

   CROSS ASSEMBLER     V10-L41   (8901)  XASS-V                                           Thu 03-Jan-2019 13:05:27      PAGE-0001
											              ARM               0102
Addr     Location Object-Code	   RE Isn  Source Statement  [ ********                       ]				    Error
  		  1 2 3 4 5 6 7 8	   ....*....1....*....2....*....3....*....4....*....5....*....6....*....7....*....8
                  		      0001 %%TOOL    'xcc-v V10.22  9226' ,190103130526					   
                  		      0002 %%COMPILE language=C , source=App200,mode=0,cps=4,dps=4,newdebug		   
                  		      0003 ;	   Cross C Compiler  XCC-V  V10.22 (9226) -88011100:03FF-		   
                  		      0004 ;		   == ARM/ARM9E (V01.03c) 8b13 ==  				   
                  		      0005 ;		   === arch:V5TE [ARM code] ===					   
                  		      0006 		   extnal    @btVibration					   
                  		      0007 		   extnal    @btstrcpy						   
                  		      0008 		   extnal    @btstrlen						   
                  		      0009 		   extnal    @btstrstr						   
                  		      0010 		   extnal    @btmemcpy						   
                  		      0011 		   extnal    @btmemcmp						   
                  		      0012 		   extnal    @btmemset						   
                  		      0013 		   extnal    @btsprintf						   
                  		      0014 		   extnal    @StartDisplay					   
                  		      0015 		   extnal    @Beep						   
                  		      0016 		   extnal    @Buzzer						   
                  		      0017 		   extnal    @DataInputBt					   
                  		      0018 		   extnal    @MasterFind					   
                  		      0019 		   extnal    @DataSend						   
                  		      0020 		   extnal    @MakeDataToSend					   
                  		      0021 		   extnal    @CheckDataByType					   
                  		      0022 		   global    @ChangePalleteForOR				   
                  		      0023 		   global    @FindBoxLostInPallete				   
                  		      0024 		   global    _send						   
                  		      0025 		   global    _rcv						   
                  		      0026 		   global    _buf						   
                  		      0027 		   global    _keyCode						   
                  		      0028 		   global    _loc						   
                  		      0029 		   global    _userId						   
                  		      0030 		   global    _msg						   
                  		      0031 		   global    _msg2						   
00000000          		      0032 B_App200	   sect	   comm							   
00000000          		      0033 Btop		   set	   $							   
                  		      0034 _send:									   
         00000000 		      0035 		   ds	     30000						   
                  		      0036 _rcv:									   
         00007530 		      0037 		   ds	     30000						   
                  		      0038 _buf:									   
         0000EA60 		      0039 		   ds	     128						   
                  		      0040 _keyCode:									   
         0000EAE0 		      0041 		   ds	     4							   
                  		      0042 _loc:									   
         0000EAE4 		      0043 		   ds	     4							   
                  		      0044 _userId:									   
         0000EAE8 		      0045 		   ds	     10							   
                  		      0046 _msg:									   
         0000EAF2 		      0047 		   ds	     128						   
                  		      0048 _msg2:									   
         0000EB72 		      0049 		   ds	     128						   
         0000EBF2 		      0050 		   ds	     2			       ; bnd 4			   
00000000          		      0051 I_App200	   sect	   comm							   
00000000          		      0052 Itop		   set	   $							   
                  		      0053 S1:										   
         00000000 6C		      0054 		   db	     06ch,06fh,063h,061h,074h				   


   CROSS ASSEMBLER     V10-L41   (8901)  XASS-V                                           Thu 03-Jan-2019 13:05:27      PAGE-0002
											              ARM               0102
Addr     Location Object-Code	   RE Isn  Source Statement  [ ********                       ]				    Error
  		  1 2 3 4 5 6 7 8	   ....*....1....*....2....*....3....*....4....*....5....*....6....*....7....*....8
         00000001 6F		     
         00000002 63		     
         00000003 61		     
         00000004 74		     
         00000005 69		      0055 		   db	     069h,06fh,06eh,0					   
         00000006 6F		     
         00000007 6E		     
         00000008 00		     
                  		      0056 S2:										   
         00000009 75		      0057 		   db	     075h,073h,065h,072h,0				   
         0000000A 73		     
         0000000B 65		     
         0000000C 72		     
         0000000D 00		     
                  		      0058 S3:										   
         0000000E 56		      0059 		   db	     056h,04eh,04eh,020h,04eh				   
         0000000F 4E		     
         00000010 4E		     
         00000011 20		     
         00000012 4E		     
         00000013 4F		      0060 		   db	     04fh,04bh,0					   
         00000014 4B		     
         00000015 00		     
                  		      0061 S4:										   
         00000016 51		      0062 		   db	     051h,075h,065h,074h,020h				   
         00000017 75		     
         00000018 65		     
         00000019 74		     
         0000001A 20		     
         0000001B 74		      0063 		   db	     074h,068h,075h,06eh,067h				   
         0000001C 68		     
         0000001D 75		     
         0000001E 6E		     
         0000001F 67		     
         00000020 00		      0064 		   db	     0							   
                  		      0065 S5:										   
         00000021 00		      0066 		   db	     0							   
                  		      0067 S6:										   
         00000022 56		      0068 		   db	     056h,0						   
         00000023 00		     
                  		      0069 S7:										   
         00000024 56		      0070 		   db	     056h,04eh,04eh,020h,04eh				   
         00000025 4E		     
         00000026 4E		     
         00000027 20		     
         00000028 4E		     
         00000029 4F		      0071 		   db	     04fh,04bh,0					   
         0000002A 4B		     
         0000002B 00		     
                  		      0072 S8:										   
         0000002C 4C		      0073 		   db	     04ch,06fh,069h,03ah,0				   
         0000002D 6F		     
         0000002E 69		     
         0000002F 3A		     


   CROSS ASSEMBLER     V10-L41   (8901)  XASS-V                                           Thu 03-Jan-2019 13:05:27      PAGE-0003
											              ARM               0102
Addr     Location Object-Code	   RE Isn  Source Statement  [ ********                       ]				    Error
  		  1 2 3 4 5 6 7 8	   ....*....1....*....2....*....3....*....4....*....5....*....6....*....7....*....8
         00000030 00		     
                  		      0074 S9:										   
         00000031 51		      0075 		   db	     051h,075h,065h,074h,020h				   
         00000032 75		     
         00000033 65		     
         00000034 74		     
         00000035 20		     
         00000036 6B		      0076 		   db	     06bh,068h,06fh,06eh,067h				   
         00000037 68		     
         00000038 6F		     
         00000039 6E		     
         0000003A 67		     
         0000003B 20		      0077 		   db	     020h,064h,075h,06eh,067h				   
         0000003C 64		     
         0000003D 75		     
         0000003E 6E		     
         0000003F 67		     
         00000040 00		      0078 		   db	     0							   
                  		      0079 S10:										   
         00000041 6D		      0080 		   db	     06dh,061h,020h,076h,061h				   
         00000042 61		     
         00000043 20		     
         00000044 76		     
         00000045 61		     
         00000046 63		      0081 		   db	     063h,068h,020h,074h,068h				   
         00000047 68		     
         00000048 20		     
         00000049 74		     
         0000004A 68		     
         0000004B 75		      0082 		   db	     075h,06eh,067h,021h,0				   
         0000004C 6E		     
         0000004D 67		     
         0000004E 21		     
         0000004F 00		     
                  		      0083 S11:										   
         00000050 00		      0084 		   db	     0							   
                  		      0085 S12:										   
         00000051 00		      0086 		   db	     0							   
                  		      0087 S13:										   
         00000052 43		      0088 		   db	     043h,03ah,020h,054h,068h				   
         00000053 3A		     
         00000054 20		     
         00000055 54		     
         00000056 68		     
         00000057 6F		      0089 		   db	     06fh,061h,074h,0					   
         00000058 61		     
         00000059 74		     
         0000005A 00		     
                  		      0090 S14:										   
         0000005B 45		      0091 		   db	     045h,04eh,054h,03ah,020h				   
         0000005C 4E		     
         0000005D 54		     
         0000005E 3A		     
         0000005F 20		     


   CROSS ASSEMBLER     V10-L41   (8901)  XASS-V                                           Thu 03-Jan-2019 13:05:27      PAGE-0004
											              ARM               0102
Addr     Location Object-Code	   RE Isn  Source Statement  [ ********                       ]				    Error
  		  1 2 3 4 5 6 7 8	   ....*....1....*....2....*....3....*....4....*....5....*....6....*....7....*....8
         00000060 51		      0092 		   db	     051h,075h,065h,074h,020h				   
         00000061 75		     
         00000062 65		     
         00000063 74		     
         00000064 20		     
         00000065 4C		      0093 		   db	     04ch,061h,069h,0					   
         00000066 61		     
         00000067 69		     
         00000068 00		     
                  		      0094 S15:										   
         00000069 56		      0095 		   db	     056h,04eh,04eh,020h,04eh				   
         0000006A 4E		     
         0000006B 4E		     
         0000006C 20		     
         0000006D 4E		     
         0000006E 4F		      0096 		   db	     04fh,04bh,0					   
         0000006F 4B		     
         00000070 00		     
                  		      0097 S16:										   
         00000071 4C		      0098 		   db	     04ch,06fh,069h,03ah,0				   
         00000072 6F		     
         00000073 69		     
         00000074 3A		     
         00000075 00		     
                  		      0099 S17:										   
         00000076 51		      0100 		   db	     051h,075h,065h,074h,020h				   
         00000077 75		     
         00000078 65		     
         00000079 74		     
         0000007A 20		     
         0000007B 73		      0101 		   db	     073h,061h,069h,020h,074h				   
         0000007C 61		     
         0000007D 69		     
         0000007E 20		     
         0000007F 74		     
         00000080 68		      0102 		   db	     068h,075h,06eh,067h,0				   
         00000081 75		     
         00000082 6E		     
         00000083 67		     
         00000084 00		     
                  		      0103 S18:										   
         00000085 00		      0104 		   db	     0							   
                  		      0105 S19:										   
         00000086 43		      0106 		   db	     043h,03ah,020h,054h,068h				   
         00000087 3A		     
         00000088 20		     
         00000089 54		     
         0000008A 68		     
         0000008B 6F		      0107 		   db	     06fh,061h,074h,0					   
         0000008C 61		     
         0000008D 74		     
         0000008E 00		     
                  		      0108 S20:										   
         0000008F 45		      0109 		   db	     045h,04eh,054h,03ah,020h				   


   CROSS ASSEMBLER     V10-L41   (8901)  XASS-V                                           Thu 03-Jan-2019 13:05:27      PAGE-0005
											              ARM               0102
Addr     Location Object-Code	   RE Isn  Source Statement  [ ********                       ]				    Error
  		  1 2 3 4 5 6 7 8	   ....*....1....*....2....*....3....*....4....*....5....*....6....*....7....*....8
         00000090 4E		     
         00000091 54		     
         00000092 3A		     
         00000093 20		     
         00000094 51		      0110 		   db	     051h,075h,065h,074h,020h				   
         00000095 75		     
         00000096 65		     
         00000097 74		     
         00000098 20		     
         00000099 4C		      0111 		   db	     04ch,061h,069h,0					   
         0000009A 61		     
         0000009B 69		     
         0000009C 00		     
                  		      0112 S21:										   
         0000009D 4D		      0113 		   db	     04dh,032h,030h,030h,0				   
         0000009E 32		     
         0000009F 30		     
         000000A0 30		     
         000000A1 00		     
                  		      0114 S22:										   
         000000A2 00		      0115 		   db	     0							   
                  		      0116 S23:										   
         000000A3 56		      0117 		   db	     056h,04eh,04eh,020h,04eh				   
         000000A4 4E		     
         000000A5 4E		     
         000000A6 20		     
         000000A7 4E		     
         000000A8 4F		      0118 		   db	     04fh,04bh,0					   
         000000A9 4B		     
         000000AA 00		     
                  		      0119 S24:										   
         000000AB 00		      0120 		   db	     0							   
                  		      0121 S25:										   
         000000AC 00		      0122 		   db	     0							   
                  		      0123 S26:										   
         000000AD 00		      0124 		   db	     0							   
                  		      0125 S27:										   
         000000AE 00		      0126 		   db	     0							   
                  		      0127 S28:										   
         000000AF 43		      0128 		   db	     043h,03ah,020h,042h,061h				   
         000000B0 3A		     
         000000B1 20		     
         000000B2 42		     
         000000B3 61		     
         000000B4 63		      0129 		   db	     063h,06bh,0					   
         000000B5 6B		     
         000000B6 00		     
                  		      0130 S29:										   
         000000B7 6C		      0131 		   db	     06ch,06fh,063h,061h,074h				   
         000000B8 6F		     
         000000B9 63		     
         000000BA 61		     
         000000BB 74		     
         000000BC 69		      0132 		   db	     069h,06fh,06eh,0					   


   CROSS ASSEMBLER     V10-L41   (8901)  XASS-V                                           Thu 03-Jan-2019 13:05:27      PAGE-0006
											              ARM               0102
Addr     Location Object-Code	   RE Isn  Source Statement  [ ********                       ]				    Error
  		  1 2 3 4 5 6 7 8	   ....*....1....*....2....*....3....*....4....*....5....*....6....*....7....*....8
         000000BD 6F		     
         000000BE 6E		     
         000000BF 00		     
                  		      0133 S30:										   
         000000C0 75		      0134 		   db	     075h,073h,065h,072h,0				   
         000000C1 73		     
         000000C2 65		     
         000000C3 72		     
         000000C4 00		     
                  		      0135 S31:										   
         000000C5 56		      0136 		   db	     056h,04eh,04eh,020h,04eh				   
         000000C6 4E		     
         000000C7 4E		     
         000000C8 20		     
         000000C9 4E		     
         000000CA 4F		      0137 		   db	     04fh,04bh,0					   
         000000CB 4B		     
         000000CC 00		     
                  		      0138 S32:										   
         000000CD 51		      0139 		   db	     051h,075h,065h,074h,020h				   
         000000CE 75		     
         000000CF 65		     
         000000D0 74		     
         000000D1 20		     
         000000D2 31		      0140 		   db	     031h,020h,074h,068h,075h				   
         000000D3 20		     
         000000D4 74		     
         000000D5 68		     
         000000D6 75		     
         000000D7 6E		      0141 		   db	     06eh,067h,020h,062h,061h				   
         000000D8 67		     
         000000D9 20		     
         000000DA 62		     
         000000DB 61		     
         000000DC 74		      0142 		   db	     074h,020h,06bh,079h,0				   
         000000DD 20		     
         000000DE 6B		     
         000000DF 79		     
         000000E0 00		     
                  		      0143 S33:										   
         000000E1 00		      0144 		   db	     0							   
                  		      0145 S34:										   
         000000E2 56		      0146 		   db	     056h,0						   
         000000E3 00		     
                  		      0147 S35:										   
         000000E4 56		      0148 		   db	     056h,04eh,04eh,020h,04eh				   
         000000E5 4E		     
         000000E6 4E		     
         000000E7 20		     
         000000E8 4E		     
         000000E9 4F		      0149 		   db	     04fh,04bh,0					   
         000000EA 4B		     
         000000EB 00		     
                  		      0150 S36:										   


   CROSS ASSEMBLER     V10-L41   (8901)  XASS-V                                           Thu 03-Jan-2019 13:05:27      PAGE-0007
											              ARM               0102
Addr     Location Object-Code	   RE Isn  Source Statement  [ ********                       ]				    Error
  		  1 2 3 4 5 6 7 8	   ....*....1....*....2....*....3....*....4....*....5....*....6....*....7....*....8
         000000EC 4C		      0151 		   db	     04ch,06fh,069h,03ah,0				   
         000000ED 6F		     
         000000EE 69		     
         000000EF 3A		     
         000000F0 00		     
                  		      0152 S37:										   
         000000F1 51		      0153 		   db	     051h,075h,065h,074h,020h				   
         000000F2 75		     
         000000F3 65		     
         000000F4 74		     
         000000F5 20		     
         000000F6 6B		      0154 		   db	     06bh,068h,06fh,06eh,067h				   
         000000F7 68		     
         000000F8 6F		     
         000000F9 6E		     
         000000FA 67		     
         000000FB 20		      0155 		   db	     020h,064h,075h,06eh,067h				   
         000000FC 64		     
         000000FD 75		     
         000000FE 6E		     
         000000FF 67		     
         00000100 00		      0156 		   db	     0							   
                  		      0157 S38:										   
         00000101 6D		      0158 		   db	     06dh,061h,020h,076h,061h				   
         00000102 61		     
         00000103 20		     
         00000104 76		     
         00000105 61		     
         00000106 63		      0159 		   db	     063h,068h,020h,074h,068h				   
         00000107 68		     
         00000108 20		     
         00000109 74		     
         0000010A 68		     
         0000010B 75		      0160 		   db	     075h,06eh,067h,021h,0				   
         0000010C 6E		     
         0000010D 67		     
         0000010E 21		     
         0000010F 00		     
                  		      0161 S39:										   
         00000110 00		      0162 		   db	     0							   
                  		      0163 S40:										   
         00000111 00		      0164 		   db	     0							   
                  		      0165 S41:										   
         00000112 43		      0166 		   db	     043h,03ah,020h,054h,068h				   
         00000113 3A		     
         00000114 20		     
         00000115 54		     
         00000116 68		     
         00000117 6F		      0167 		   db	     06fh,061h,074h,0					   
         00000118 61		     
         00000119 74		     
         0000011A 00		     
                  		      0168 S42:										   
         0000011B 45		      0169 		   db	     045h,04eh,054h,03ah,020h				   


   CROSS ASSEMBLER     V10-L41   (8901)  XASS-V                                           Thu 03-Jan-2019 13:05:27      PAGE-0008
											              ARM               0102
Addr     Location Object-Code	   RE Isn  Source Statement  [ ********                       ]				    Error
  		  1 2 3 4 5 6 7 8	   ....*....1....*....2....*....3....*....4....*....5....*....6....*....7....*....8
         0000011C 4E		     
         0000011D 54		     
         0000011E 3A		     
         0000011F 20		     
         00000120 51		      0170 		   db	     051h,075h,065h,074h,020h				   
         00000121 75		     
         00000122 65		     
         00000123 74		     
         00000124 20		     
         00000125 4C		      0171 		   db	     04ch,061h,069h,0					   
         00000126 61		     
         00000127 69		     
         00000128 00		     
                  		      0172 S43:										   
         00000129 56		      0173 		   db	     056h,04eh,04eh,020h,04eh				   
         0000012A 4E		     
         0000012B 4E		     
         0000012C 20		     
         0000012D 4E		     
         0000012E 4F		      0174 		   db	     04fh,04bh,0					   
         0000012F 4B		     
         00000130 00		     
                  		      0175 S44:										   
         00000131 4C		      0176 		   db	     04ch,06fh,069h,03ah,0				   
         00000132 6F		     
         00000133 69		     
         00000134 3A		     
         00000135 00		     
                  		      0177 S45:										   
         00000136 51		      0178 		   db	     051h,075h,065h,074h,020h				   
         00000137 75		     
         00000138 65		     
         00000139 74		     
         0000013A 20		     
         0000013B 73		      0179 		   db	     073h,061h,069h,020h,074h				   
         0000013C 61		     
         0000013D 69		     
         0000013E 20		     
         0000013F 74		     
         00000140 68		      0180 		   db	     068h,075h,06eh,067h,0				   
         00000141 75		     
         00000142 6E		     
         00000143 67		     
         00000144 00		     
                  		      0181 S46:										   
         00000145 00		      0182 		   db	     0							   
                  		      0183 S47:										   
         00000146 43		      0184 		   db	     043h,03ah,020h,054h,068h				   
         00000147 3A		     
         00000148 20		     
         00000149 54		     
         0000014A 68		     
         0000014B 6F		      0185 		   db	     06fh,061h,074h,0					   
         0000014C 61		     


   CROSS ASSEMBLER     V10-L41   (8901)  XASS-V                                           Thu 03-Jan-2019 13:05:27      PAGE-0009
											              ARM               0102
Addr     Location Object-Code	   RE Isn  Source Statement  [ ********                       ]				    Error
  		  1 2 3 4 5 6 7 8	   ....*....1....*....2....*....3....*....4....*....5....*....6....*....7....*....8
         0000014D 74		     
         0000014E 00		     
                  		      0186 S48:										   
         0000014F 45		      0187 		   db	     045h,04eh,054h,03ah,020h				   
         00000150 4E		     
         00000151 54		     
         00000152 3A		     
         00000153 20		     
         00000154 51		      0188 		   db	     051h,075h,065h,074h,020h				   
         00000155 75		     
         00000156 65		     
         00000157 74		     
         00000158 20		     
         00000159 4C		      0189 		   db	     04ch,061h,069h,0					   
         0000015A 61		     
         0000015B 69		     
         0000015C 00		     
                  		      0190 S49:										   
         0000015D 4D		      0191 		   db	     04dh,032h,030h,033h,0				   
         0000015E 32		     
         0000015F 30		     
         00000160 33		     
         00000161 00		     
                  		      0192 S50:										   
         00000162 00		      0193 		   db	     0							   
                  		      0194 S51:										   
         00000163 54		      0195 		   db	     054h,06fh,074h,061h,06ch				   
         00000164 6F		     
         00000165 74		     
         00000166 61		     
         00000167 6C		     
         00000168 20		      0196 		   db	     020h,042h,06fh,078h,03ah				   
         00000169 42		     
         0000016A 6F		     
         0000016B 78		     
         0000016C 3A		     
         0000016D 20		      0197 		   db	     020h,025h,06ch,064h,02fh				   
         0000016E 25		     
         0000016F 6C		     
         00000170 64		     
         00000171 2F		     
         00000172 25		      0198 		   db	     025h,06ch,064h,0					   
         00000173 6C		     
         00000174 64		     
         00000175 00		     
                  		      0199 S52:										   
         00000176 25		      0200 		   db	     025h,073h,0					   
         00000177 73		     
         00000178 00		     
                  		      0201 S53:										   
         00000179 51		      0202 		   db	     051h,075h,065h,074h,020h				   
         0000017A 75		     
         0000017B 65		     
         0000017C 74		     


   CROSS ASSEMBLER     V10-L41   (8901)  XASS-V                                           Thu 03-Jan-2019 13:05:27      PAGE-0010
											              ARM               0102
Addr     Location Object-Code	   RE Isn  Source Statement  [ ********                       ]				    Error
  		  1 2 3 4 5 6 7 8	   ....*....1....*....2....*....3....*....4....*....5....*....6....*....7....*....8
         0000017D 20		     
         0000017E 74		      0203 		   db	     074h,061h,074h,020h,063h				   
         0000017F 61		     
         00000180 74		     
         00000181 20		     
         00000182 63		     
         00000183 61		      0204 		   db	     061h,020h,074h,068h,075h				   
         00000184 20		     
         00000185 74		     
         00000186 68		     
         00000187 75		     
         00000188 6E		      0205 		   db	     06eh,067h,0					   
         00000189 67		     
         0000018A 00		     
                  		      0206 S54:										   
         0000018B 00		      0207 		   db	     0							   
                  		      0208 S55:										   
         0000018C 00		      0209 		   db	     0							   
                  		      0210 S56:										   
         0000018D 54		      0211 		   db	     054h,06fh,074h,061h,06ch				   
         0000018E 6F		     
         0000018F 74		     
         00000190 61		     
         00000191 6C		     
         00000192 20		      0212 		   db	     020h,042h,06fh,078h,03ah				   
         00000193 42		     
         00000194 6F		     
         00000195 78		     
         00000196 3A		     
         00000197 20		      0213 		   db	     020h,025h,06ch,064h,02fh				   
         00000198 25		     
         00000199 6C		     
         0000019A 64		     
         0000019B 2F		     
         0000019C 25		      0214 		   db	     025h,06ch,064h,0					   
         0000019D 6C		     
         0000019E 64		     
         0000019F 00		     
                  		      0215 S57:										   
         000001A0 56		      0216 		   db	     056h,04eh,04eh,020h,04eh				   
         000001A1 4E		     
         000001A2 4E		     
         000001A3 20		     
         000001A4 4E		     
         000001A5 4F		      0217 		   db	     04fh,04bh,0					   
         000001A6 4B		     
         000001A7 00		     
                  		      0218 S58:										   
         000001A8 4C		      0219 		   db	     04ch,06fh,069h,03ah,0				   
         000001A9 6F		     
         000001AA 69		     
         000001AB 3A		     
         000001AC 00		     
                  		      0220 S59:										   


   CROSS ASSEMBLER     V10-L41   (8901)  XASS-V                                           Thu 03-Jan-2019 13:05:27      PAGE-0011
											              ARM               0102
Addr     Location Object-Code	   RE Isn  Source Statement  [ ********                       ]				    Error
  		  1 2 3 4 5 6 7 8	   ....*....1....*....2....*....3....*....4....*....5....*....6....*....7....*....8
         000001AD 51		      0221 		   db	     051h,075h,065h,074h,020h				   
         000001AE 75		     
         000001AF 65		     
         000001B0 74		     
         000001B1 20		     
         000001B2 6B		      0222 		   db	     06bh,068h,06fh,06eh,067h				   
         000001B3 68		     
         000001B4 6F		     
         000001B5 6E		     
         000001B6 67		     
         000001B7 20		      0223 		   db	     020h,064h,075h,06eh,067h				   
         000001B8 64		     
         000001B9 75		     
         000001BA 6E		     
         000001BB 67		     
         000001BC 00		      0224 		   db	     0							   
                  		      0225 S60:										   
         000001BD 6D		      0226 		   db	     06dh,061h,020h,076h,061h				   
         000001BE 61		     
         000001BF 20		     
         000001C0 76		     
         000001C1 61		     
         000001C2 63		      0227 		   db	     063h,068h,020h,062h,06fh				   
         000001C3 68		     
         000001C4 20		     
         000001C5 62		     
         000001C6 6F		     
         000001C7 78		      0228 		   db	     078h,021h,0					   
         000001C8 21		     
         000001C9 00		     
                  		      0229 S61:										   
         000001CA 00		      0230 		   db	     0							   
                  		      0231 S62:										   
         000001CB 00		      0232 		   db	     0							   
                  		      0233 S63:										   
         000001CC 43		      0234 		   db	     043h,03ah,020h,054h,068h				   
         000001CD 3A		     
         000001CE 20		     
         000001CF 54		     
         000001D0 68		     
         000001D1 6F		      0235 		   db	     06fh,061h,074h,0					   
         000001D2 61		     
         000001D3 74		     
         000001D4 00		     
                  		      0236 S64:										   
         000001D5 45		      0237 		   db	     045h,04eh,054h,03ah,020h				   
         000001D6 4E		     
         000001D7 54		     
         000001D8 3A		     
         000001D9 20		     
         000001DA 51		      0238 		   db	     051h,075h,065h,074h,020h				   
         000001DB 75		     
         000001DC 65		     
         000001DD 74		     


   CROSS ASSEMBLER     V10-L41   (8901)  XASS-V                                           Thu 03-Jan-2019 13:05:27      PAGE-0012
											              ARM               0102
Addr     Location Object-Code	   RE Isn  Source Statement  [ ********                       ]				    Error
  		  1 2 3 4 5 6 7 8	   ....*....1....*....2....*....3....*....4....*....5....*....6....*....7....*....8
         000001DE 20		     
         000001DF 4C		      0239 		   db	     04ch,061h,069h,0					   
         000001E0 61		     
         000001E1 69		     
         000001E2 00		     
                  		      0240 S65:										   
         000001E3 56		      0241 		   db	     056h,04eh,04eh,020h,04eh				   
         000001E4 4E		     
         000001E5 4E		     
         000001E6 20		     
         000001E7 4E		     
         000001E8 4F		      0242 		   db	     04fh,04bh,0					   
         000001E9 4B		     
         000001EA 00		     
                  		      0243 S66:										   
         000001EB 4C		      0244 		   db	     04ch,06fh,069h,03ah,0				   
         000001EC 6F		     
         000001ED 69		     
         000001EE 3A		     
         000001EF 00		     
                  		      0245 S67:										   
         000001F0 54		      0246 		   db	     054h,068h,075h,06eh,067h				   
         000001F1 68		     
         000001F2 75		     
         000001F3 6E		     
         000001F4 67		     
         000001F5 20		      0247 		   db	     020h,06eh,061h,079h,020h				   
         000001F6 6E		     
         000001F7 61		     
         000001F8 79		     
         000001F9 20		     
         000001FA 6B		      0248 		   db	     06bh,068h,06fh,06eh,067h				   
         000001FB 68		     
         000001FC 6F		     
         000001FD 6E		     
         000001FE 67		     
         000001FF 20		      0249 		   db	     020h,063h,06fh,021h,0				   
         00000200 63		     
         00000201 6F		     
         00000202 21		     
         00000203 00		     
                  		      0250 S68:										   
         00000204 00		      0251 		   db	     0							   
                  		      0252 S69:										   
         00000205 00		      0253 		   db	     0							   
                  		      0254 S70:										   
         00000206 00		      0255 		   db	     0							   
                  		      0256 S71:										   
         00000207 43		      0257 		   db	     043h,03ah,020h,054h,068h				   
         00000208 3A		     
         00000209 20		     
         0000020A 54		     
         0000020B 68		     
         0000020C 6F		      0258 		   db	     06fh,061h,074h,0					   


   CROSS ASSEMBLER     V10-L41   (8901)  XASS-V                                           Thu 03-Jan-2019 13:05:27      PAGE-0013
											              ARM               0102
Addr     Location Object-Code	   RE Isn  Source Statement  [ ********                       ]				    Error
  		  1 2 3 4 5 6 7 8	   ....*....1....*....2....*....3....*....4....*....5....*....6....*....7....*....8
         0000020D 61		     
         0000020E 74		     
         0000020F 00		     
                  		      0259 S72:										   
         00000210 45		      0260 		   db	     045h,04eh,054h,03ah,020h				   
         00000211 4E		     
         00000212 54		     
         00000213 3A		     
         00000214 20		     
         00000215 51		      0261 		   db	     051h,075h,065h,074h,020h				   
         00000216 75		     
         00000217 65		     
         00000218 74		     
         00000219 20		     
         0000021A 4C		      0262 		   db	     04ch,061h,069h,0					   
         0000021B 61		     
         0000021C 69		     
         0000021D 00		     
                  		      0263 S73:										   
         0000021E 56		      0264 		   db	     056h,04eh,04eh,020h,04eh				   
         0000021F 4E		     
         00000220 4E		     
         00000221 20		     
         00000222 4E		     
         00000223 4F		      0265 		   db	     04fh,04bh,0					   
         00000224 4B		     
         00000225 00		     
                  		      0266 S74:										   
         00000226 4C		      0267 		   db	     04ch,06fh,069h,03ah,0				   
         00000227 6F		     
         00000228 69		     
         00000229 3A		     
         0000022A 00		     
                  		      0268 S75:										   
         0000022B 51		      0269 		   db	     051h,075h,065h,074h,020h				   
         0000022C 75		     
         0000022D 65		     
         0000022E 74		     
         0000022F 20		     
         00000230 74		      0270 		   db	     074h,072h,075h,06eh,067h				   
         00000231 72		     
         00000232 75		     
         00000233 6E		     
         00000234 67		     
         00000235 20		      0271 		   db	     020h,074h,068h,075h,06eh				   
         00000236 74		     
         00000237 68		     
         00000238 75		     
         00000239 6E		     
         0000023A 67		      0272 		   db	     067h,021h,0					   
         0000023B 21		     
         0000023C 00		     
                  		      0273 S76:										   
         0000023D 00		      0274 		   db	     0							   


   CROSS ASSEMBLER     V10-L41   (8901)  XASS-V                                           Thu 03-Jan-2019 13:05:27      PAGE-0014
											              ARM               0102
Addr     Location Object-Code	   RE Isn  Source Statement  [ ********                       ]				    Error
  		  1 2 3 4 5 6 7 8	   ....*....1....*....2....*....3....*....4....*....5....*....6....*....7....*....8
                  		      0275 S77:										   
         0000023E 00		      0276 		   db	     0							   
                  		      0277 S78:										   
         0000023F 00		      0278 		   db	     0							   
                  		      0279 S79:										   
         00000240 43		      0280 		   db	     043h,03ah,020h,054h,068h				   
         00000241 3A		     
         00000242 20		     
         00000243 54		     
         00000244 68		     
         00000245 6F		      0281 		   db	     06fh,061h,074h,0					   
         00000246 61		     
         00000247 74		     
         00000248 00		     
                  		      0282 S80:										   
         00000249 45		      0283 		   db	     045h,04eh,054h,03ah,020h				   
         0000024A 4E		     
         0000024B 54		     
         0000024C 3A		     
         0000024D 20		     
         0000024E 51		      0284 		   db	     051h,075h,065h,074h,020h				   
         0000024F 75		     
         00000250 65		     
         00000251 74		     
         00000252 20		     
         00000253 4C		      0285 		   db	     04ch,061h,069h,0					   
         00000254 61		     
         00000255 69		     
         00000256 00		     
                  		      0286 S81:										   
         00000257 25		      0287 		   db	     025h,073h,040h,025h,073h				   
         00000258 73		     
         00000259 40		     
         0000025A 25		     
         0000025B 73		     
         0000025C 00		      0288 		   db	     0							   
                  		      0289 S82:										   
         0000025D 25		      0290 		   db	     025h,073h,0					   
         0000025E 73		     
         0000025F 00		     
                  		      0291 S83:										   
         00000260 54		      0292 		   db	     054h,06fh,074h,061h,06ch				   
         00000261 6F		     
         00000262 74		     
         00000263 61		     
         00000264 6C		     
         00000265 20		      0293 		   db	     020h,042h,06fh,078h,03ah				   
         00000266 42		     
         00000267 6F		     
         00000268 78		     
         00000269 3A		     
         0000026A 20		      0294 		   db	     020h,025h,06ch,064h,02fh				   
         0000026B 25		     
         0000026C 6C		     


   CROSS ASSEMBLER     V10-L41   (8901)  XASS-V                                           Thu 03-Jan-2019 13:05:27      PAGE-0015
											              ARM               0102
Addr     Location Object-Code	   RE Isn  Source Statement  [ ********                       ]				    Error
  		  1 2 3 4 5 6 7 8	   ....*....1....*....2....*....3....*....4....*....5....*....6....*....7....*....8
         0000026D 64		     
         0000026E 2F		     
         0000026F 25		      0295 		   db	     025h,06ch,064h,0					   
         00000270 6C		     
         00000271 64		     
         00000272 00		     
                  		      0296 S84:										   
         00000273 56		      0297 		   db	     056h,04eh,04eh,020h,04eh				   
         00000274 4E		     
         00000275 4E		     
         00000276 20		     
         00000277 4E		     
         00000278 4F		      0298 		   db	     04fh,04bh,0					   
         00000279 4B		     
         0000027A 00		     
                  		      0299 S85:										   
         0000027B 5B		      0300 		   db	     05bh,054h,068h,06fh,06eh				   
         0000027C 54		     
         0000027D 68		     
         0000027E 6F		     
         0000027F 6E		     
         00000280 67		      0301 		   db	     067h,020h,074h,069h,06eh				   
         00000281 20		     
         00000282 74		     
         00000283 69		     
         00000284 6E		     
         00000285 5D		      0302 		   db	     05dh,0						   
         00000286 00		     
                  		      0303 S86:										   
         00000287 00		      0304 		   db	     0							   
                  		      0305 S87:										   
         00000288 00		      0306 		   db	     0							   
                  		      0307 S88:										   
         00000289 43		      0308 		   db	     043h,03ah,020h,054h,068h				   
         0000028A 3A		     
         0000028B 20		     
         0000028C 54		     
         0000028D 68		     
         0000028E 6F		      0309 		   db	     06fh,061h,074h,0					   
         0000028F 61		     
         00000290 74		     
         00000291 00		     
                  		      0310 S89:										   
         00000292 45		      0311 		   db	     045h,04eh,054h,03ah,020h				   
         00000293 4E		     
         00000294 54		     
         00000295 3A		     
         00000296 20		     
         00000297 47		      0312 		   db	     047h,075h,069h,0					   
         00000298 75		     
         00000299 69		     
         0000029A 00		     
                  		      0313 S90:										   
         0000029B 4D		      0314 		   db	     04dh,032h,030h,033h,0				   


   CROSS ASSEMBLER     V10-L41   (8901)  XASS-V                                           Thu 03-Jan-2019 13:05:27      PAGE-0016
											              ARM               0102
Addr     Location Object-Code	   RE Isn  Source Statement  [ ********                       ]				    Error
  		  1 2 3 4 5 6 7 8	   ....*....1....*....2....*....3....*....4....*....5....*....6....*....7....*....8
         0000029C 32		     
         0000029D 30		     
         0000029E 33		     
         0000029F 00		     
                  		      0315 S91:										   
         000002A0 53		      0316 		   db	     053h,030h,031h,0					   
         000002A1 30		     
         000002A2 31		     
         000002A3 00		     
                  		      0317 %%BFILE   'C:\Users\11709931\Desktop\KEYENC~1\keyence\App200.c' ,181224135129,35
                  		           4										   
00000000          		      0318 C_App200	   sect	   code							   
         00000000 		      0319 		   code32							   
                  		      0320 %%REGPARA R0									   
                  		      0321 %%BFILE   'C:\Users\11709931\Desktop\KEYENC~1\keyence\App200.h' ,181221181009,18
                  		      0322 %%BFILE   'P:\pdrv\barlib\Keyence\nokbt1500.h' ,161112115905,309		   
                  		      0323 %%BFILE   'C:\Users\11709931\Desktop\KEYENC~1\keyence\inc\btlib.h' ,181122094114
                  		           ,1243									   
                  		      0324 %%BFILE   'C:\keyence\CPP\INCLUDE\string.h' ,000112113136,50			   
                  		      0325 %%BFILE   'C:\keyence\CPP\INCLUDE\memory.h' ,000112113136,27			   
                  		      0326 %%TYP     'void'		 ,   0, 0, 0,	11111111b, 0,0,0		   
                  		      0327 %%TYP     'char'		 ,   1, 2, 1,	00111111b, 4,0,2		   
                  		      0328 %%TYP     'unsigned char'	 ,   2, 2, 1,	01111111b, 4,0,2		   
                  		      0329 %%TYP     'short'		 ,   3, 3, 2,	00111111b, 4,0,2		   
                  		      0330 %%TYP     'unsigned short'	 ,   4, 3, 2,	01111111b, 4,0,2		   
                  		      0331 %%TYP     'int'		 ,   5, 3, 4,	00111111b, 4,0,2		   
                  		      0332 %%TYP     'unsigned int'	 ,   6, 3, 4,	01111111b, 4,0,2		   
                  		      0333 %%TYP     'long'		 ,   7, 3, 4,	00111111b, 4,0,2		   
                  		      0334 %%TYP     'unsigned long'	 ,   8, 3, 4,	01111111b, 4,0,2		   
                  		      0335 %%TYP     'float'		 ,   9, 4, 4,	00000000b, 4,0,2		   
                  		      0336 %%TYP     'double'		 ,  10, 4, 8,	00000001b, 8,0,3		   
                  		      0337 %%TYP     'enum'		 ,  11, 8, 4,	00111111b, 4,0,2		   
                  		      0338 %%TYP     'struct'		 ,  12, 9, 0,	11111111b, 0,0,4		   
                  		      0339 %%TYP     'union'		 ,  13,10, 0,	11111111b, 0,0,4		   
                  		      0340 %%TYP     'pointer'		 ,  14,11, 4,	01111111b, 4,0,2		   
                  		      0341 %%EFILE   									   
                  		      0342 %%EFILE   									   
                  		      0343 %%BFILE   'C:\keyence\CPP\INCLUDE\stdlib.h' ,000112113136,58			   
                  		      0344 %%EFILE   									   
                  		      0345 %%EFILE   									   
                  		      0346 %%BFILE   'C:\Users\11709931\Desktop\KEYENC~1\keyence\inc\btext.h' ,150123134216
                  		           ,548										   
                  		      0347 %%EFILE   									   
                  		      0348 %%EFILE   									   
                  		      0349 %%BFILE   'C:\Users\11709931\Desktop\KEYENC~1\keyence\Common.h' ,181221181143,29
                  		      0350 %%EFILE   									   
                  		      0351 %%EFILE   									   
                  		      0352 %%SYM     _iobuf,9,type=12,id=1,size=16					   
                  		      0353 %%DDS     									   
                  		      0354 %%SYM     _cnt,7,type=5,val=0,size=4						   
                  		      0355 %%SYM     _ptr,7,type=2,val=4,size=4						   
                  		      0356 %%DTY     									   
                  		      0357 %%DPT     									   
                  		      0358 %%ENDD    									   


   CROSS ASSEMBLER     V10-L41   (8901)  XASS-V                                           Thu 03-Jan-2019 13:05:27      PAGE-0017
											              ARM               0102
Addr     Location Object-Code	   RE Isn  Source Statement  [ ********                       ]				    Error
  		  1 2 3 4 5 6 7 8	   ....*....1....*....2....*....3....*....4....*....5....*....6....*....7....*....8
                  		      0359 %%SYM     _base,7,type=2,val=8,size=4					   
                  		      0360 %%DTY     									   
                  		      0361 %%DPT     									   
                  		      0362 %%ENDD    									   
                  		      0363 %%SYM     _flag,7,type=3,val=12,size=2					   
                  		      0364 %%SYM     _file,7,type=2,val=14,size=1					   
                  		      0365 %%ENDD    									   
                  		      0366 %%SYM     _dateinfo,9,type=12,id=2,size=4					   
                  		      0367 %%DDS     									   
                  		      0368 %%SYM     year,7,type=3,val=0,size=2						   
                  		      0369 %%SYM     month,7,type=2,val=2,size=1					   
                  		      0370 %%SYM     day,7,type=2,val=3,size=1						   
                  		      0371 %%ENDD    									   
                  		      0372 %%SYM     _timeinfo,9,type=12,id=3,size=4					   
                  		      0373 %%DDS     									   
                  		      0374 %%SYM     hour,7,type=2,val=0,size=1						   
                  		      0375 %%SYM     min,7,type=2,val=1,size=1						   
                  		      0376 %%SYM     sec,7,type=2,val=2,size=1						   
                  		      0377 %%SYM     reserve,7,type=2,val=3,size=1					   
                  		      0378 %%ENDD    									   
                  		      0379 %%SYM     _tposition,9,type=12,id=4,size=4					   
                  		      0380 %%DDS     									   
                  		      0381 %%SYM     x,7,type=3,val=0,size=2						   
                  		      0382 %%SYM     y,7,type=3,val=2,size=2						   
                  		      0383 %%ENDD    									   
                  		      0384 %%SYM     _gposition,9,type=12,id=5,size=4					   
                  		      0385 %%DDS     									   
                  		      0386 %%SYM     x,7,type=3,val=0,size=2						   
                  		      0387 %%SYM     y,7,type=3,val=2,size=2						   
                  		      0388 %%ENDD    									   
                  		      0389 %%SYM     _dspattr,9,type=12,id=6,size=12					   
                  		      0390 %%DDS     									   
                  		      0391 %%SYM     tposition,7,sym=4,val=0,size=4					   
                  		      0392 %%SYM     attribute,7,type=3,val=4,size=2					   
                  		      0393 %%SYM     mag,7,type=3,val=6,size=2						   
                  		      0394 %%SYM     fold,7,type=3,val=8,size=2						   
                  		      0395 %%ENDD    									   
                  		      0396 %%SYM     _dspattrg,9,type=12,id=7,size=12					   
                  		      0397 %%DDS     									   
                  		      0398 %%SYM     gposition,7,sym=5,val=0,size=4					   
                  		      0399 %%SYM     attribute,7,type=3,val=4,size=2					   
                  		      0400 %%SYM     mag,7,type=3,val=6,size=2						   
                  		      0401 %%SYM     fold,7,type=3,val=8,size=2						   
                  		      0402 %%ENDD    									   
                  		      0403 %%SYM     _menuinfo,9,type=12,id=8,size=80					   
                  		      0404 %%DDS     									   
                  		      0405 %%SYM     rsv0,7,type=3,val=0,size=2						   
                  		      0406 %%SYM     tenkeydirect,7,type=3,val=2,size=2					   
                  		      0407 %%SYM     totalitem,7,type=3,val=4,size=2					   
                  		      0408 %%SYM     inititem,7,type=3,val=6,size=2					   
                  		      0409 %%SYM     menuitem,7,type=2,val=8,size=64					   
                  		      0410 %%DTY     									   
                  		      0411 %%DPT     									   
                  		      0412 %%DAR     4,16								   


   CROSS ASSEMBLER     V10-L41   (8901)  XASS-V                                           Thu 03-Jan-2019 13:05:27      PAGE-0018
											              ARM               0102
Addr     Location Object-Code	   RE Isn  Source Statement  [ ********                       ]				    Error
  		  1 2 3 4 5 6 7 8	   ....*....1....*....2....*....3....*....4....*....5....*....6....*....7....*....8
                  		      0413 %%ENDD    									   
                  		      0414 %%SYM     rsv1,7,type=3,val=72,size=2					   
                  		      0415 %%SYM     rsv2,7,type=3,val=74,size=2					   
                  		      0416 %%SYM     rsv3,7,type=3,val=76,size=2					   
                  		      0417 %%ENDD    									   
                  		      0418 %%SYM     _keyfunc,9,type=12,id=9,size=12					   
                  		      0419 %%DDS     									   
                  		      0420 %%SYM     F1,7,type=2,val=0,size=1						   
                  		      0421 %%SYM     F2,7,type=2,val=1,size=1						   
                  		      0422 %%SYM     F3,7,type=2,val=2,size=1						   
                  		      0423 %%SYM     L,7,type=2,val=3,size=1						   
                  		      0424 %%SYM     R,7,type=2,val=4,size=1						   
                  		      0425 %%SYM     Trg,7,type=2,val=5,size=1						   
                  		      0426 %%SYM     minus,7,type=2,val=6,size=3					   
                  		      0427 %%DTY     									   
                  		      0428 %%DAR     1,3								   
                  		      0429 %%ENDD    									   
                  		      0430 %%ENDD    									   
                  		      0431 %%SYM     _inputintegerattr,9,type=12,id=10,size=12				   
                  		      0432 %%DDS     									   
                  		      0433 %%SYM     inputtype,7,type=3,val=0,size=2					   
                  		      0434 %%SYM     inputarea,7,type=3,val=2,size=2					   
                  		      0435 %%SYM     minvalue,7,type=7,val=4,size=4					   
                  		      0436 %%SYM     maxvalue,7,type=7,val=8,size=4					   
                  		      0437 %%ENDD    									   
                  		      0438 %%SYM     _inputdecimalattr,9,type=12,id=11,size=16				   
                  		      0439 %%DDS     									   
                  		      0440 %%SYM     inputtype,7,type=3,val=0,size=2					   
                  		      0441 %%SYM     inputarea,7,type=3,val=2,size=2					   
                  		      0442 %%SYM     minvalue,7,type=7,val=4,size=4					   
                  		      0443 %%SYM     maxvalue,7,type=7,val=8,size=4					   
                  		      0444 %%SYM     digit,7,type=3,val=12,size=2					   
                  		      0445 %%ENDD    									   
                  		      0446 %%SYM     _inputstrattr,9,type=12,id=12,size=8				   
                  		      0447 %%DDS     									   
                  		      0448 %%SYM     inputtype,7,type=3,val=0,size=2					   
                  		      0449 %%SYM     inputarea,7,type=3,val=2,size=2					   
                  		      0450 %%SYM     mindigit,7,type=3,val=4,size=2					   
                  		      0451 %%SYM     maxdigit,7,type=3,val=6,size=2					   
                  		      0452 %%ENDD    									   
                  		      0453 %%SYM     _bcrconf,9,type=12,id=13,size=16					   
                  		      0454 %%DDS     									   
                  		      0455 %%SYM     mode,7,type=3,val=0,size=2						   
                  		      0456 %%SYM     trial,7,type=3,val=2,size=2					   
                  		      0457 %%SYM     overlap,7,type=3,val=4,size=2					   
                  		      0458 %%SYM     comparecnt,7,type=3,val=6,size=2					   
                  		      0459 %%SYM     rsv1,7,type=3,val=8,size=2						   
                  		      0460 %%SYM     rsv2,7,type=3,val=10,size=2					   
                  		      0461 %%SYM     rsv3,7,type=3,val=12,size=2					   
                  		      0462 %%SYM     rsv4,7,type=3,val=14,size=2					   
                  		      0463 %%ENDD    									   
                  		      0464 %%SYM     _jancodeset,9,type=12,id=14,size=4					   
                  		      0465 %%DDS     									   
                  		      0466 %%SYM     flgset,7,type=4,val=0,size=2					   


   CROSS ASSEMBLER     V10-L41   (8901)  XASS-V                                           Thu 03-Jan-2019 13:05:27      PAGE-0019
											              ARM               0102
Addr     Location Object-Code	   RE Isn  Source Statement  [ ********                       ]				    Error
  		  1 2 3 4 5 6 7 8	   ....*....1....*....2....*....3....*....4....*....5....*....6....*....7....*....8
                  		      0467 %%SYM     AdGap_min,7,type=2,val=2,size=1					   
                  		      0468 %%SYM     AdGap_max,7,type=2,val=3,size=1					   
                  		      0469 %%ENDD    									   
                  		      0470 %%SYM     _c39codeset,9,type=12,id=15,size=8					   
                  		      0471 %%DDS     									   
                  		      0472 %%SYM     min,7,type=4,val=0,size=2						   
                  		      0473 %%SYM     max,7,type=4,val=2,size=2						   
                  		      0474 %%SYM     flgset,7,type=4,val=4,size=2					   
                  		      0475 %%SYM     rsv1,7,type=3,val=6,size=2						   
                  		      0476 %%ENDD    									   
                  		      0477 %%SYM     _e128codeset,9,type=12,id=16,size=8				   
                  		      0478 %%DDS     									   
                  		      0479 %%SYM     min,7,type=4,val=0,size=2						   
                  		      0480 %%SYM     max,7,type=4,val=2,size=2						   
                  		      0481 %%SYM     flgset,7,type=4,val=4,size=2					   
                  		      0482 %%SYM     separator,7,type=2,val=6,size=1					   
                  		      0483 %%SYM     rsv,7,type=2,val=7,size=1						   
                  		      0484 %%ENDD    									   
                  		      0485 %%SYM     _c128codeset,9,type=12,id=17,size=8				   
                  		      0486 %%DDS     									   
                  		      0487 %%SYM     min,7,type=4,val=0,size=2						   
                  		      0488 %%SYM     max,7,type=4,val=2,size=2						   
                  		      0489 %%SYM     flgset,7,type=4,val=4,size=2					   
                  		      0490 %%SYM     rsv1,7,type=3,val=6,size=2						   
                  		      0491 %%ENDD    									   
                  		      0492 %%SYM     _itfcodeset,9,type=12,id=18,size=8					   
                  		      0493 %%DDS     									   
                  		      0494 %%SYM     min,7,type=4,val=0,size=2						   
                  		      0495 %%SYM     max,7,type=4,val=2,size=2						   
                  		      0496 %%SYM     flgset,7,type=4,val=4,size=2					   
                  		      0497 %%SYM     rsv1,7,type=3,val=6,size=2						   
                  		      0498 %%ENDD    									   
                  		      0499 %%SYM     _nw7codeset,9,type=12,id=19,size=8					   
                  		      0500 %%DDS     									   
                  		      0501 %%SYM     min,7,type=4,val=0,size=2						   
                  		      0502 %%SYM     max,7,type=4,val=2,size=2						   
                  		      0503 %%SYM     flgset,7,type=4,val=4,size=2					   
                  		      0504 %%SYM     rsv1,7,type=3,val=6,size=2						   
                  		      0505 %%ENDD    									   
                  		      0506 %%SYM     _c93codeset,9,type=12,id=20,size=8					   
                  		      0507 %%DDS     									   
                  		      0508 %%SYM     min,7,type=4,val=0,size=2						   
                  		      0509 %%SYM     max,7,type=4,val=2,size=2						   
                  		      0510 %%SYM     flgset,7,type=4,val=4,size=2					   
                  		      0511 %%SYM     rsv1,7,type=3,val=6,size=2						   
                  		      0512 %%ENDD    									   
                  		      0513 %%SYM     _tofcodeset,9,type=12,id=21,size=4					   
                  		      0514 %%DDS     									   
                  		      0515 %%SYM     min,7,type=4,val=0,size=2						   
                  		      0516 %%SYM     max,7,type=4,val=2,size=2						   
                  		      0517 %%ENDD    									   
                  		      0518 %%SYM     _coopcodeset,9,type=12,id=22,size=4				   
                  		      0519 %%DDS     									   
                  		      0520 %%SYM     min,7,type=4,val=0,size=2						   


   CROSS ASSEMBLER     V10-L41   (8901)  XASS-V                                           Thu 03-Jan-2019 13:05:27      PAGE-0020
											              ARM               0102
Addr     Location Object-Code	   RE Isn  Source Statement  [ ********                       ]				    Error
  		  1 2 3 4 5 6 7 8	   ....*....1....*....2....*....3....*....4....*....5....*....6....*....7....*....8
                  		      0521 %%SYM     max,7,type=4,val=2,size=2						   
                  		      0522 %%ENDD    									   
                  		      0523 %%SYM     _qrcodeset,9,type=12,id=23,size=8					   
                  		      0524 %%DDS     									   
                  		      0525 %%SYM     min,7,type=4,val=0,size=2						   
                  		      0526 %%SYM     max,7,type=4,val=2,size=2						   
                  		      0527 %%SYM     flgset,7,type=4,val=4,size=2					   
                  		      0528 %%ENDD    									   
                  		      0529 %%SYM     _pdfcodeset,9,type=12,id=24,size=8					   
                  		      0530 %%DDS     									   
                  		      0531 %%SYM     min,7,type=4,val=0,size=2						   
                  		      0532 %%SYM     max,7,type=4,val=2,size=2						   
                  		      0533 %%SYM     flgset,7,type=4,val=4,size=2					   
                  		      0534 %%ENDD    									   
                  		      0535 %%SYM     _dmcodeset,9,type=12,id=25,size=8					   
                  		      0536 %%DDS     									   
                  		      0537 %%SYM     min,7,type=4,val=0,size=2						   
                  		      0538 %%SYM     max,7,type=4,val=2,size=2						   
                  		      0539 %%SYM     flgset,7,type=4,val=4,size=2					   
                  		      0540 %%ENDD    									   
                  		      0541 %%SYM     _mccodeset,9,type=12,id=26,size=8					   
                  		      0542 %%DDS     									   
                  		      0543 %%SYM     min,7,type=4,val=0,size=2						   
                  		      0544 %%SYM     max,7,type=4,val=2,size=2						   
                  		      0545 %%SYM     flgset,7,type=4,val=4,size=2					   
                  		      0546 %%ENDD    									   
                  		      0547 %%SYM     _rsscodeset,9,type=12,id=27,size=8					   
                  		      0548 %%DDS     									   
                  		      0549 %%SYM     min,7,type=4,val=0,size=2						   
                  		      0550 %%SYM     max,7,type=4,val=2,size=2						   
                  		      0551 %%SYM     flgset,7,type=4,val=4,size=2					   
                  		      0552 %%ENDD    									   
                  		      0553 %%SYM     _compositeset,9,type=12,id=28,size=4				   
                  		      0554 %%DDS     									   
                  		      0555 %%SYM     flgset,7,type=4,val=0,size=2					   
                  		      0556 %%SYM     separator,7,type=2,val=2,size=1					   
                  		      0557 %%SYM     rsv,7,type=2,val=3,size=1						   
                  		      0558 %%ENDD    									   
                  		      0559 %%SYM     _bcrcodeset,9,type=12,id=29,size=60				   
                  		      0560 %%DDS     									   
                  		      0561 %%SYM     JAN,7,sym=14,val=0,size=4						   
                  		      0562 %%SYM     CODE39,7,sym=15,val=4,size=8					   
                  		      0563 %%SYM     EAN128,7,sym=16,val=12,size=8					   
                  		      0564 %%SYM     CODE128,7,sym=17,val=20,size=8					   
                  		      0565 %%SYM     ITF,7,sym=18,val=28,size=8						   
                  		      0566 %%SYM     NW7,7,sym=19,val=36,size=8						   
                  		      0567 %%SYM     CODE93,7,sym=20,val=44,size=8					   
                  		      0568 %%SYM     TOF,7,sym=21,val=52,size=4						   
                  		      0569 %%SYM     COOP,7,sym=22,val=56,size=4					   
                  		      0570 %%ENDD    									   
                  		      0571 %%SYM     _bcrinput,9,type=12,id=30,size=132					   
                  		      0572 %%DDS     									   
                  		      0573 %%SYM     keta,7,type=3,val=0,size=2						   
                  		      0574 %%SYM     codetype,7,type=3,val=2,size=2					   


   CROSS ASSEMBLER     V10-L41   (8901)  XASS-V                                           Thu 03-Jan-2019 13:05:27      PAGE-0021
											              ARM               0102
Addr     Location Object-Code	   RE Isn  Source Statement  [ ********                       ]				    Error
  		  1 2 3 4 5 6 7 8	   ....*....1....*....2....*....3....*....4....*....5....*....6....*....7....*....8
                  		      0575 %%SYM     bcrdata,7,type=2,val=4,size=128					   
                  		      0576 %%DTY     									   
                  		      0577 %%DAR     1,128								   
                  		      0578 %%ENDD    									   
                  		      0579 %%ENDD    									   
                  		      0580 %%SYM     _bcr_result_report,9,type=12,id=31,size=12				   
                  		      0581 %%DDS     									   
                  		      0582 %%SYM     keta,7,type=3,val=0,size=2						   
                  		      0583 %%SYM     codetype,7,type=3,val=2,size=2					   
                  		      0584 %%SYM     composite,7,type=3,val=4,size=2					   
                  		      0585 %%SYM     quality,7,type=3,val=6,size=2					   
                  		      0586 %%SYM     extraType,7,type=2,val=8,size=1					   
                  		      0587 %%SYM     codelink,7,type=2,val=9,size=1					   
                  		      0588 %%ENDD    									   
                  		      0589 %%SYM     _bcr_result_qr_report,9,type=12,id=32,size=8			   
                  		      0590 %%DDS     									   
                  		      0591 %%SYM     pos,7,type=3,val=0,size=2						   
                  		      0592 %%SYM     parity,7,type=3,val=2,size=2					   
                  		      0593 %%SYM     count,7,type=3,val=4,size=2					   
                  		      0594 %%ENDD    									   
                  		      0595 %%SYM     _bcr_fulldetection_column,9,type=12,id=33,size=4			   
                  		      0596 %%DDS     									   
                  		      0597 %%SYM     min,7,type=4,val=0,size=2						   
                  		      0598 %%SYM     max,7,type=4,val=2,size=2						   
                  		      0599 %%ENDD    									   
                  		      0600 %%SYM     _bcr_fulldetection_codeset,9,type=12,id=34,size=20			   
                  		      0601 %%DDS     									   
                  		      0602 %%SYM     type,7,type=3,val=0,size=2						   
                  		      0603 %%SYM     codecount,7,type=3,val=2,size=2					   
                  		      0604 %%SYM     columneset,7,sym=33,val=4,size=16					   
                  		      0605 %%DTY     									   
                  		      0606 %%DAR     4,4								   
                  		      0607 %%ENDD    									   
                  		      0608 %%ENDD    									   
                  		      0609 %%SYM     _bcr_fulldetection_set,9,type=12,id=35,size=84			   
                  		      0610 %%DDS     									   
                  		      0611 %%SYM     typecount,7,type=3,val=0,size=2					   
                  		      0612 %%SYM     rsv1,7,type=3,val=2,size=2						   
                  		      0613 %%SYM     codeset,7,sym=34,val=4,size=80					   
                  		      0614 %%DTY     									   
                  		      0615 %%DAR     20,4								   
                  		      0616 %%ENDD    									   
                  		      0617 %%ENDD    									   
                  		      0618 %%SYM     _bcr_buzzer_action,9,type=12,id=36,size=12				   
                  		      0619 %%DDS     									   
                  		      0620 %%SYM     sw,7,type=3,val=0,size=2						   
                  		      0621 %%SYM     ontime,7,type=3,val=2,size=2					   
                  		      0622 %%SYM     offtime,7,type=3,val=4,size=2					   
                  		      0623 %%SYM     cnt,7,type=3,val=6,size=2						   
                  		      0624 %%SYM     pitch,7,type=3,val=8,size=2					   
                  		      0625 %%SYM     rsv1,7,type=3,val=10,size=2					   
                  		      0626 %%ENDD    									   
                  		      0627 %%SYM     _bcr_led_action,9,type=12,id=37,size=12				   
                  		      0628 %%DDS     									   


   CROSS ASSEMBLER     V10-L41   (8901)  XASS-V                                           Thu 03-Jan-2019 13:05:27      PAGE-0022
											              ARM               0102
Addr     Location Object-Code	   RE Isn  Source Statement  [ ********                       ]				    Error
  		  1 2 3 4 5 6 7 8	   ....*....1....*....2....*....3....*....4....*....5....*....6....*....7....*....8
                  		      0629 %%SYM     sw,7,type=3,val=0,size=2						   
                  		      0630 %%SYM     ontime,7,type=3,val=2,size=2					   
                  		      0631 %%SYM     offtime,7,type=3,val=4,size=2					   
                  		      0632 %%SYM     cnt,7,type=3,val=6,size=2						   
                  		      0633 %%SYM     color,7,type=3,val=8,size=2					   
                  		      0634 %%SYM     rsv1,7,type=3,val=10,size=2					   
                  		      0635 %%ENDD    									   
                  		      0636 %%SYM     _bcr_vibrator_action,9,type=12,id=38,size=12			   
                  		      0637 %%DDS     									   
                  		      0638 %%SYM     sw,7,type=3,val=0,size=2						   
                  		      0639 %%SYM     ontime,7,type=3,val=2,size=2					   
                  		      0640 %%SYM     offtime,7,type=3,val=4,size=2					   
                  		      0641 %%SYM     cnt,7,type=3,val=6,size=2						   
                  		      0642 %%SYM     rsv1,7,type=3,val=8,size=2						   
                  		      0643 %%SYM     rsv2,7,type=3,val=10,size=2					   
                  		      0644 %%ENDD    									   
                  		      0645 %%SYM     _file_info,9,type=12,id=39,size=272				   
                  		      0646 %%DDS     									   
                  		      0647 %%SYM     drive,7,type=2,val=0,size=2					   
                  		      0648 %%DTY     									   
                  		      0649 %%DAR     1,2								   
                  		      0650 %%ENDD    									   
                  		      0651 %%SYM     filename,7,type=2,val=2,size=254					   
                  		      0652 %%DTY     									   
                  		      0653 %%DAR     1,254								   
                  		      0654 %%ENDD    									   
                  		      0655 %%SYM     isDirectory,7,type=2,val=256,size=1				   
                  		      0656 %%SYM     filesize,7,type=7,val=260,size=4					   
                  		      0657 %%SYM     year,7,type=3,val=264,size=2					   
                  		      0658 %%SYM     month,7,type=2,val=266,size=1					   
                  		      0659 %%SYM     day,7,type=2,val=267,size=1					   
                  		      0660 %%SYM     hour,7,type=2,val=268,size=1					   
                  		      0661 %%SYM     min,7,type=2,val=269,size=1					   
                  		      0662 %%SYM     rsv2,7,type=2,val=270,size=1					   
                  		      0663 %%SYM     rsv3,7,type=2,val=271,size=1					   
                  		      0664 %%ENDD    									   
                  		      0665 %%SYM     _drive_info,9,type=12,id=40,size=16				   
                  		      0666 %%DDS     									   
                  		      0667 %%SYM     totalsize,7,type=7,val=0,size=4					   
                  		      0668 %%SYM     freesize,7,type=7,val=4,size=4					   
                  		      0669 %%SYM     invalidsize,7,type=7,val=8,size=4					   
                  		      0670 %%SYM     filecnt,7,type=3,val=12,size=2					   
                  		      0671 %%ENDD    									   
                  		      0672 %%SYM     _master_index,9,type=12,id=41,size=28				   
                  		      0673 %%DDS     									   
                  		      0674 %%SYM     datatype,7,type=3,val=0,size=2					   
                  		      0675 %%SYM     separator,7,type=2,val=2,size=1					   
                  		      0676 %%SYM     fieldcnt,7,type=1,val=3,size=1					   
                  		      0677 %%SYM     fieldlen,7,type=3,val=4,size=20					   
                  		      0678 %%DTY     									   
                  		      0679 %%DAR     2,10								   
                  		      0680 %%ENDD    									   
                  		      0681 %%SYM     rsv1,7,type=2,val=24,size=1					   
                  		      0682 %%SYM     rsv2,7,type=2,val=25,size=1					   


   CROSS ASSEMBLER     V10-L41   (8901)  XASS-V                                           Thu 03-Jan-2019 13:05:27      PAGE-0023
											              ARM               0102
Addr     Location Object-Code	   RE Isn  Source Statement  [ ********                       ]				    Error
  		  1 2 3 4 5 6 7 8	   ....*....1....*....2....*....3....*....4....*....5....*....6....*....7....*....8
                  		      0683 %%ENDD    									   
                  		      0684 %%SYM     _master_search,9,type=12,id=42,size=48				   
                  		      0685 %%DDS     									   
                  		      0686 %%SYM     ope,7,type=2,val=0,size=1						   
                  		      0687 %%SYM     searchdata,7,type=2,val=4,size=40					   
                  		      0688 %%DTY     									   
                  		      0689 %%DPT     									   
                  		      0690 %%DAR     4,10								   
                  		      0691 %%ENDD    									   
                  		      0692 %%SYM     incdeldata,7,type=2,val=44,size=1					   
                  		      0693 %%SYM     rsv1,7,type=2,val=45,size=1					   
                  		      0694 %%ENDD    									   
                  		      0695 %%SYM     _alarm_pattern,9,type=12,id=43,size=76				   
                  		      0696 %%DDS     									   
                  		      0697 %%SYM     ontime,7,type=3,val=0,size=2					   
                  		      0698 %%SYM     offtime,7,type=3,val=2,size=2					   
                  		      0699 %%SYM     swBuzzer,7,type=3,val=4,size=2					   
                  		      0700 %%SYM     swVibration,7,type=3,val=6,size=2					   
                  		      0701 %%SYM     swLed,7,type=3,val=8,size=2					   
                  		      0702 %%SYM     count,7,type=3,val=10,size=2					   
                  		      0703 %%SYM     message,7,type=2,val=12,size=64					   
                  		      0704 %%DTY     									   
                  		      0705 %%DAR     1,64								   
                  		      0706 %%ENDD    									   
                  		      0707 %%ENDD    									   
                  		      0708 %%SYM     _lost_alarm,9,type=12,id=44,size=92				   
                  		      0709 %%DDS     									   
                  		      0710 %%SYM     sw,7,type=3,val=0,size=2						   
                  		      0711 %%SYM     watchtime,7,type=3,val=2,size=2					   
                  		      0712 %%SYM     timestart,7,sym=3,val=4,size=4					   
                  		      0713 %%SYM     timestop,7,sym=3,val=8,size=4					   
                  		      0714 %%SYM     interval,7,type=3,val=12,size=2					   
                  		      0715 %%SYM     crsv1,7,type=2,val=14,size=2					   
                  		      0716 %%DTY     									   
                  		      0717 %%DAR     1,2								   
                  		      0718 %%ENDD    									   
                  		      0719 %%SYM     pattern,7,sym=43,val=16,size=76					   
                  		      0720 %%ENDD    									   
                  		      0721 %%SYM     _alarm,9,type=12,id=45,size=84					   
                  		      0722 %%DDS     									   
                  		      0723 %%SYM     sw,7,type=3,val=0,size=2						   
                  		      0724 %%SYM     crsv1,7,type=2,val=2,size=2					   
                  		      0725 %%DTY     									   
                  		      0726 %%DAR     1,2								   
                  		      0727 %%ENDD    									   
                  		      0728 %%SYM     time,7,sym=3,val=4,size=4						   
                  		      0729 %%SYM     pattern,7,sym=43,val=8,size=76					   
                  		      0730 %%ENDD    									   
                  		      0731 %%SYM     _schedule,9,type=12,id=46,size=268					   
                  		      0732 %%DDS     									   
                  		      0733 %%SYM     sw,7,type=3,val=0,size=2						   
                  		      0734 %%SYM     crsv1,7,type=2,val=2,size=2					   
                  		      0735 %%DTY     									   
                  		      0736 %%DAR     1,2								   


   CROSS ASSEMBLER     V10-L41   (8901)  XASS-V                                           Thu 03-Jan-2019 13:05:27      PAGE-0024
											              ARM               0102
Addr     Location Object-Code	   RE Isn  Source Statement  [ ********                       ]				    Error
  		  1 2 3 4 5 6 7 8	   ....*....1....*....2....*....3....*....4....*....5....*....6....*....7....*....8
                  		      0737 %%ENDD    									   
                  		      0738 %%SYM     time,7,sym=3,val=4,size=4						   
                  		      0739 %%SYM     filename,7,type=2,val=8,size=260					   
                  		      0740 %%DTY     									   
                  		      0741 %%DAR     1,260								   
                  		      0742 %%ENDD    									   
                  		      0743 %%ENDD    									   
                  		      0744 %%SYM     _SEARCH_INDEX,9,type=12,id=47,size=48				   
                  		      0745 %%DDS     									   
                  		      0746 %%SYM     recordFormat,7,type=3,val=0,size=2					   
                  		      0747 %%SYM     recordLength,7,type=3,val=2,size=2					   
                  		      0748 %%SYM     separator,7,type=2,val=4,size=1					   
                  		      0749 %%SYM     dmy,7,type=2,val=5,size=1						   
                  		      0750 %%SYM     sortType,7,type=3,val=6,size=2					   
                  		      0751 %%SYM     indexMode,7,type=3,val=8,size=2					   
                  		      0752 %%SYM     indexNum,7,type=3,val=10,size=2					   
                  		      0753 %%SYM     indexPosition,7,type=3,val=12,size=18				   
                  		      0754 %%DTY     									   
                  		      0755 %%DAR     2,9								   
                  		      0756 %%ENDD    									   
                  		      0757 %%SYM     indexLength,7,type=3,val=30,size=18				   
                  		      0758 %%DTY     									   
                  		      0759 %%DAR     2,9								   
                  		      0760 %%ENDD    									   
                  		      0761 %%ENDD    									   
                  		      0762 %%SYM     WLanParam,8,type=11,id=48						   
                  		      0763 %%DEN     									   
                  		      0764 %%SYM     PRM_TERMINALIP,5,type=5,val='1'					   
                  		      0765 %%SYM     PRM_SUBNETMASK,5,type=5,val='2'					   
                  		      0766 %%SYM     PRM_GATEWAYIP,5,type=5,val='3'					   
                  		      0767 %%SYM     PRM_HOSTIP,5,type=5,val='4'					   
                  		      0768 %%SYM     PRM_DHCPENABLE,5,type=5,val='5'					   
                  		      0769 %%SYM     PRM_TERMINALNAME,5,type=5,val='6'					   
                  		      0770 %%SYM     PRM_PRI_DNS_ADDR,5,type=5,val='7'					   
                  		      0771 %%SYM     PRM_SEC_DNS_ADDR,5,type=5,val='8'					   
                  		      0772 %%SYM     PRM_FTP_PASV,5,type=5,val='9'					   
                  		      0773 %%SYM     PRM_FTP_PORTMODE,5,type=5,val='10'					   
                  		      0774 %%SYM     PRM_USE_FTPS,5,type=5,val='11'					   
                  		      0775 %%SYM     PRM_SOCKET_NOTIFY,5,type=5,val='12'				   
                  		      0776 %%SYM     PRM_FTP_TRANSMODE,5,type=5,val='13'				   
                  		      0777 %%SYM     PRM_FTP_EPHEMERAL_PORT,5,type=5,val='14'				   
                  		      0778 %%SYM     PRM_FTP_SIZECHECK,5,type=5,val='15'				   
                  		      0779 %%SYM     PRM_FTP_TEMPDRIVE,5,type=5,val='16'				   
                  		      0780 %%SYM     PRM_COMM_TRANSMODE,5,type=5,val='17'				   
                  		      0781 %%SYM     PRM_PREAMBLETYPE,5,type=5,val='101'				   
                  		      0782 %%SYM     PRM_RFRATE,5,type=5,val='102'					   
                  		      0783 %%SYM     PRM_WEPAUTHENTICATIONTYPE,5,type=5,val='103'			   
                  		      0784 %%SYM     PRM_WPAAUTHENTICATIONMODE,5,type=5,val='104'			   
                  		      0785 %%SYM     PRM_BEACONLOSTCOUNT,5,type=5,val='105'				   
                  		      0786 %%SYM     PRM_PWMODE,5,type=5,val='106'					   
                  		      0787 %%SYM     PRM_POWERSAVETIME,5,type=5,val='107'				   
                  		      0788 %%SYM     PRM_INFRASSID,5,type=5,val='108'					   
                  		      0789 %%SYM     PRM_INFRAWEPINDEX,5,type=5,val='109'				   
                  		      0790 %%SYM     PRM_INFRAWEP_1,5,type=5,val='110'					   


   CROSS ASSEMBLER     V10-L41   (8901)  XASS-V                                           Thu 03-Jan-2019 13:05:27      PAGE-0025
											              ARM               0102
Addr     Location Object-Code	   RE Isn  Source Statement  [ ********                       ]				    Error
  		  1 2 3 4 5 6 7 8	   ....*....1....*....2....*....3....*....4....*....5....*....6....*....7....*....8
                  		      0791 %%SYM     PRM_INFRAWEP_2,5,type=5,val='111'					   
                  		      0792 %%SYM     PRM_INFRAWEP_3,5,type=5,val='112'					   
                  		      0793 %%SYM     PRM_INFRAWEP_4,5,type=5,val='113'					   
                  		      0794 %%SYM     PRM_ADHOCCHANNEL,5,type=5,val='114'				   
                  		      0795 %%SYM     PRM_ADHOCSSID,5,type=5,val='115'					   
                  		      0796 %%SYM     PRM_ADHOCWEPINDEX,5,type=5,val='116'				   
                  		      0797 %%SYM     PRM_ADHOCWEP_1,5,type=5,val='117'					   
                  		      0798 %%SYM     PRM_ADHOCWEP_2,5,type=5,val='118'					   
                  		      0799 %%SYM     PRM_ADHOCWEP_3,5,type=5,val='119'					   
                  		      0800 %%SYM     PRM_ADHOCWEP_4,5,type=5,val='120'					   
                  		      0801 %%SYM     PRM_WPACIPHERMODE,5,type=5,val='121'				   
                  		      0802 %%SYM     PRM_PRESHAREDKEY,5,type=5,val='122'				   
                  		      0803 %%SYM     PRM_USERNAME,5,type=5,val='123'					   
                  		      0804 %%SYM     PRM_PASSWORD,5,type=5,val='124'					   
                  		      0805 %%SYM     PRM_ROOTCAFILENAME,5,type=5,val='125'				   
                  		      0806 %%SYM     PRM_CERTFILENAME,5,type=5,val='126'				   
                  		      0807 %%SYM     PRM_PRIVATEKEYFILENAME,5,type=5,val='127'				   
                  		      0808 %%SYM     PRM_MAC_ADDR,5,type=5,val='128'					   
                  		      0809 %%SYM     PRM_NETWORKMODE,5,type=5,val='129'					   
                  		      0810 %%SYM     PRM_WLAN_READY,5,type=5,val='130'					   
                  		      0811 %%SYM     PRM_RSSI_THRESH,5,type=5,val='131'					   
                  		      0812 %%SYM     PRM_INFRACHANNEL,5,type=5,val='132'				   
                  		      0813 %%SYM     PRM_RADIUS_LOGOFF,5,type=5,val='133'				   
                  		      0814 %%SYM     PRM_WLAN_INFRA_802d11_MODE,5,type=5,val='134'			   
                  		      0815 %%SYM     PRM_INFRACHANNEL_5G,5,type=5,val='135'				   
                  		      0816 %%SYM     PRM_PINCODE,5,type=5,val='201'					   
                  		      0817 %%SYM     PRM_LOCALDEVICENAME,5,type=5,val='202'				   
                  		      0818 %%SYM     PRM_BD_ADDR,5,type=5,val='203'					   
                  		      0819 %%SYM     PRM_CON_BD_ADDR,5,type=5,val='204'					   
                  		      0820 %%SYM     PRM_SECURITYMODE,5,type=5,val='205'				   
                  		      0821 %%SYM     PRM_BD_DTRMODE,5,type=5,val='206'					   
                  		      0822 %%SYM     PRM_BLUE_SPPMODE,5,type=5,val='207'				   
                  		      0823 %%SYM     PRM_LAST_TARGET_BD_ADDR,5,type=5,val='208'				   
                  		      0824 %%SYM     PRM_TELNUMBER,5,type=5,val='301'					   
                  		      0825 %%SYM     PRM_PPP_USERNAME,5,type=5,val='302'				   
                  		      0826 %%SYM     PRM_PPP_PASSWORD,5,type=5,val='303'				   
                  		      0827 %%SYM     PRM_USE_PAP,5,type=5,val='304'					   
                  		      0828 %%SYM     PRM_USE_CHAP,5,type=5,val='305'					   
                  		      0829 %%SYM     PRM_PPP_TIMEOUT,5,type=5,val='306'					   
                  		      0830 %%SYM     PRM_PPP_HANGUP,5,type=5,val='307'					   
                  		      0831 %%SYM     PRM_MODEM_ATCOMMAND,5,type=5,val='401'				   
                  		      0832 %%SYM     PRM_MODEM_TELNUMBER,5,type=5,val='402'				   
                  		      0833 %%SYM     PRM_MODEM_DIALTYPE,5,type=5,val='403'				   
                  		      0834 %%SYM     PRM_MODEM_DIALTIMEOUT,5,type=5,val='404'				   
                  		      0835 %%SYM     PRM_MODEM_REDIALCOUNT,5,type=5,val='405'				   
                  		      0836 %%SYM     PRM_MODEM_REDIALINTERVAL,5,type=5,val='406'			   
                  		      0837 %%SYM     PRM_MODEM_CRADLERATE,5,type=5,val='407'				   
                  		      0838 %%ENDD    									   
                  		      0839 %%SYM     _st_rf_configset,9,type=12,id=49,size=8				   
                  		      0840 %%DDS     									   
                  		      0841 %%SYM     NetworkMode,7,type=2,val=0,size=1					   
                  		      0842 %%SYM     AdhocCh,7,type=2,val=1,size=1					   
                  		      0843 %%SYM     Preamble,7,type=2,val=2,size=1					   
                  		      0844 %%SYM     WepAuthtype,7,type=2,val=3,size=1					   


   CROSS ASSEMBLER     V10-L41   (8901)  XASS-V                                           Thu 03-Jan-2019 13:05:27      PAGE-0026
											              ARM               0102
Addr     Location Object-Code	   RE Isn  Source Statement  [ ********                       ]				    Error
  		  1 2 3 4 5 6 7 8	   ....*....1....*....2....*....3....*....4....*....5....*....6....*....7....*....8
                  		      0845 %%SYM     rate,7,type=2,val=4,size=1						   
                  		      0846 %%SYM     PwMode,7,type=2,val=5,size=1					   
                  		      0847 %%SYM     PowerSavetime,7,type=2,val=6,size=1				   
                  		      0848 %%SYM     BeaconLostcount,7,type=2,val=7,size=1				   
                  		      0849 %%ENDD    									   
                  		      0850 %%SYM     _st_rf_connectioninfo,9,type=12,id=50,size=12			   
                  		      0851 %%DDS     									   
                  		      0852 %%SYM     AuthStatus,7,type=2,val=0,size=1					   
                  		      0853 %%SYM     Ch,7,type=2,val=1,size=1						   
                  		      0854 %%SYM     MacAddress,7,type=2,val=2,size=6					   
                  		      0855 %%DTY     									   
                  		      0856 %%DAR     1,6								   
                  		      0857 %%ENDD    									   
                  		      0858 %%SYM     Rssi,7,type=2,val=8,size=1						   
                  		      0859 %%ENDD    									   
                  		      0860 %%SYM     _st_wep_info,9,type=12,id=51,size=20				   
                  		      0861 %%DDS     									   
                  		      0862 %%SYM     size,7,type=7,val=0,size=4						   
                  		      0863 %%SYM     wep,7,type=2,val=4,size=14						   
                  		      0864 %%DTY     									   
                  		      0865 %%DAR     1,14								   
                  		      0866 %%ENDD    									   
                  		      0867 %%ENDD    									   
                  		      0868 %%SYM     _st_rf_securityinfoset,9,type=12,id=52,size=96			   
                  		      0869 %%DDS     									   
                  		      0870 %%SYM     ssid,7,type=2,val=0,size=33					   
                  		      0871 %%DTY     									   
                  		      0872 %%DAR     1,33								   
                  		      0873 %%ENDD    									   
                  		      0874 %%SYM     ssid_size,7,type=2,val=33,size=1					   
                  		      0875 %%SYM     wep_selected,7,type=2,val=34,size=1				   
                  		      0876 %%SYM     wep_size,7,type=2,val=35,size=4					   
                  		      0877 %%DTY     									   
                  		      0878 %%DAR     1,4								   
                  		      0879 %%ENDD    									   
                  		      0880 %%SYM     wep,7,type=2,val=39,size=56					   
                  		      0881 %%DTY     									   
                  		      0882 %%DAR     1,4,14								   
                  		      0883 %%ENDD    									   
                  		      0884 %%ENDD    									   
                  		      0885 %%SYM     _st_rf_securityauthset,9,type=12,id=53,size=908			   
                  		      0886 %%DDS     									   
                  		      0887 %%SYM     psk_len,7,type=3,val=0,size=2					   
                  		      0888 %%SYM     psk,7,type=2,val=2,size=64						   
                  		      0889 %%DTY     									   
                  		      0890 %%DAR     1,64								   
                  		      0891 %%ENDD    									   
                  		      0892 %%SYM     usr_id_len,7,type=3,val=66,size=2					   
                  		      0893 %%SYM     usr_id,7,type=2,val=68,size=33					   
                  		      0894 %%DTY     									   
                  		      0895 %%DAR     1,33								   
                  		      0896 %%ENDD    									   
                  		      0897 %%SYM     usr_pass_len,7,type=3,val=102,size=2				   
                  		      0898 %%SYM     usr_pass,7,type=2,val=104,size=33					   


   CROSS ASSEMBLER     V10-L41   (8901)  XASS-V                                           Thu 03-Jan-2019 13:05:27      PAGE-0027
											              ARM               0102
Addr     Location Object-Code	   RE Isn  Source Statement  [ ********                       ]				    Error
  		  1 2 3 4 5 6 7 8	   ....*....1....*....2....*....3....*....4....*....5....*....6....*....7....*....8
                  		      0899 %%DTY     									   
                  		      0900 %%DAR     1,33								   
                  		      0901 %%ENDD    									   
                  		      0902 %%SYM     rootca_filename,7,type=2,val=137,size=256				   
                  		      0903 %%DTY     									   
                  		      0904 %%DAR     1,256								   
                  		      0905 %%ENDD    									   
                  		      0906 %%SYM     cert_filename,7,type=2,val=393,size=256				   
                  		      0907 %%DTY     									   
                  		      0908 %%DAR     1,256								   
                  		      0909 %%ENDD    									   
                  		      0910 %%SYM     prvkey_filename,7,type=2,val=649,size=256				   
                  		      0911 %%DTY     									   
                  		      0912 %%DAR     1,256								   
                  		      0913 %%ENDD    									   
                  		      0914 %%ENDD    									   
                  		      0915 %%SYM     btsockaddr,9,type=12,id=54,size=16					   
                  		      0916 %%DDS     									   
                  		      0917 %%SYM     sa_family,7,type=4,val=0,size=2					   
                  		      0918 %%SYM     sa_data,7,type=2,val=2,size=14					   
                  		      0919 %%DTY     									   
                  		      0920 %%DAR     1,14								   
                  		      0921 %%ENDD    									   
                  		      0922 %%ENDD    									   
                  		      0923 %%SYM     btin_addr,9,type=12,id=55,size=4					   
                  		      0924 %%DDS     									   
                  		      0925 %%SYM     ,10,type=13,id=56,size=4						   
                  		      0926 %%DDS     									   
                  		      0927 %%SYM     ,9,type=12,id=57,size=4						   
                  		      0928 %%DDS     									   
                  		      0929 %%SYM     s_b1,7,type=2,val=0,size=1						   
                  		      0930 %%SYM     s_b2,7,type=2,val=1,size=1						   
                  		      0931 %%SYM     s_b3,7,type=2,val=2,size=1						   
                  		      0932 %%SYM     s_b4,7,type=2,val=3,size=1						   
                  		      0933 %%ENDD    									   
                  		      0934 %%SYM     S_un_b,7,sym=57,val=0,size=4					   
                  		      0935 %%SYM     ,9,type=12,id=58,size=4						   
                  		      0936 %%DDS     									   
                  		      0937 %%SYM     s_w1,7,type=4,val=0,size=2						   
                  		      0938 %%SYM     s_w2,7,type=4,val=2,size=2						   
                  		      0939 %%ENDD    									   
                  		      0940 %%SYM     S_un_w,7,sym=58,val=0,size=4					   
                  		      0941 %%SYM     S_addr,7,type=8,val=0,size=4					   
                  		      0942 %%ENDD    									   
                  		      0943 %%SYM     S_un,7,sym=56,val=0,size=4						   
                  		      0944 %%ENDD    									   
                  		      0945 %%SYM     btsockaddr_in,9,type=12,id=59,size=16				   
                  		      0946 %%DDS     									   
                  		      0947 %%SYM     sin_family,7,type=3,val=0,size=2					   
                  		      0948 %%SYM     sin_port,7,type=4,val=2,size=2					   
                  		      0949 %%SYM     sin_addr,7,sym=55,val=4,size=4					   
                  		      0950 %%SYM     sin_zero,7,type=2,val=8,size=8					   
                  		      0951 %%DTY     									   
                  		      0952 %%DAR     1,8								   


   CROSS ASSEMBLER     V10-L41   (8901)  XASS-V                                           Thu 03-Jan-2019 13:05:27      PAGE-0028
											              ARM               0102
Addr     Location Object-Code	   RE Isn  Source Statement  [ ********                       ]				    Error
  		  1 2 3 4 5 6 7 8	   ....*....1....*....2....*....3....*....4....*....5....*....6....*....7....*....8
                  		      0953 %%ENDD    									   
                  		      0954 %%ENDD    									   
                  		      0955 %%SYM     btfd_set,9,type=12,id=60,size=260					   
                  		      0956 %%DDS     									   
                  		      0957 %%SYM     fd_count,7,type=6,val=0,size=4					   
                  		      0958 %%SYM     fd_array,7,type=5,val=4,size=256					   
                  		      0959 %%DTY     									   
                  		      0960 %%DAR     4,64								   
                  		      0961 %%ENDD    									   
                  		      0962 %%ENDD    									   
                  		      0963 %%SYM     bttimeval,9,type=12,id=61,size=8					   
                  		      0964 %%DDS     									   
                  		      0965 %%SYM     tv_sec,7,type=7,val=0,size=4					   
                  		      0966 %%SYM     tv_usec,7,type=7,val=4,size=4					   
                  		      0967 %%ENDD    									   
                  		      0968 %%SYM     bthostent,9,type=12,id=62,size=24					   
                  		      0969 %%DDS     									   
                  		      0970 %%SYM     h_name,7,type=2,val=0,size=4					   
                  		      0971 %%DTY     									   
                  		      0972 %%DPT     									   
                  		      0973 %%ENDD    									   
                  		      0974 %%SYM     h_aliases,7,type=2,val=4,size=4					   
                  		      0975 %%DTY     									   
                  		      0976 %%DPT     									   
                  		      0977 %%DAR     4,1								   
                  		      0978 %%ENDD    									   
                  		      0979 %%SYM     h_addrtype,7,type=4,val=8,size=2					   
                  		      0980 %%SYM     h_length,7,type=4,val=10,size=2					   
                  		      0981 %%SYM     h_addr_list,7,type=2,val=12,size=12				   
                  		      0982 %%DTY     									   
                  		      0983 %%DPT     									   
                  		      0984 %%DAR     4,3								   
                  		      0985 %%ENDD    									   
                  		      0986 %%ENDD    									   
                  		      0987 %%SYM     _st_ftpconfig,9,type=12,id=63,size=404				   
                  		      0988 %%DDS     									   
                  		      0989 %%SYM     timeout,7,type=7,val=0,size=4					   
                  		      0990 %%SYM     cancelkey,7,type=7,val=4,size=4					   
                  		      0991 %%SYM     target_ip,7,type=8,val=8,size=4					   
                  		      0992 %%SYM     ftp_portnum,7,type=4,val=12,size=2					   
                  		      0993 %%SYM     rsv1,7,type=4,val=14,size=2					   
                  		      0994 %%SYM     usrname,7,type=2,val=16,size=65					   
                  		      0995 %%DTY     									   
                  		      0996 %%DAR     1,65								   
                  		      0997 %%ENDD    									   
                  		      0998 %%SYM     password,7,type=2,val=81,size=65					   
                  		      0999 %%DTY     									   
                  		      1000 %%DAR     1,65								   
                  		      1001 %%ENDD    									   
                  		      1002 %%SYM     logfilename,7,type=2,val=146,size=256				   
                  		      1003 %%DTY     									   
                  		      1004 %%DAR     1,256								   
                  		      1005 %%ENDD    									   
                  		      1006 %%ENDD    									   


   CROSS ASSEMBLER     V10-L41   (8901)  XASS-V                                           Thu 03-Jan-2019 13:05:27      PAGE-0029
											              ARM               0102
Addr     Location Object-Code	   RE Isn  Source Statement  [ ********                       ]				    Error
  		  1 2 3 4 5 6 7 8	   ....*....1....*....2....*....3....*....4....*....5....*....6....*....7....*....8
                  		      1007 %%SYM     _st_ftpsconfig,9,type=12,id=64,size=268				   
                  		      1008 %%DDS     									   
                  		      1009 %%SYM     ftps_protocol,7,type=5,val=0,size=4				   
                  		      1010 %%SYM     ftps_data_encrypt,7,type=5,val=4,size=4				   
                  		      1011 %%SYM     ftps_verify,7,type=5,val=8,size=4					   
                  		      1012 %%SYM     ftps_certfile,7,type=2,val=12,size=256				   
                  		      1013 %%DTY     									   
                  		      1014 %%DAR     1,256								   
                  		      1015 %%ENDD    									   
                  		      1016 %%ENDD    									   
                  		      1017 %%SYM     _rfstatus,9,type=12,id=65,size=12					   
                  		      1018 %%DDS     									   
                  		      1019 %%SYM     ip_adr,7,type=2,val=0,size=4					   
                  		      1020 %%DTY     									   
                  		      1021 %%DAR     1,4								   
                  		      1022 %%ENDD    									   
                  		      1023 %%SYM     subnet,7,type=2,val=4,size=4					   
                  		      1024 %%DTY     									   
                  		      1025 %%DAR     1,4								   
                  		      1026 %%ENDD    									   
                  		      1027 %%SYM     defgate,7,type=2,val=8,size=4					   
                  		      1028 %%DTY     									   
                  		      1029 %%DAR     1,4								   
                  		      1030 %%ENDD    									   
                  		      1031 %%ENDD    									   
                  		      1032 %%SYM     _host_status,9,type=12,id=66,size=4				   
                  		      1033 %%DDS     									   
                  		      1034 %%SYM     ip_adr,7,type=2,val=0,size=4					   
                  		      1035 %%DTY     									   
                  		      1036 %%DAR     1,4								   
                  		      1037 %%ENDD    									   
                  		      1038 %%ENDD    									   
                  		      1039 %%SYM     _rfdatif,9,type=12,id=67,size=12					   
                  		      1040 %%DDS     									   
                  		      1041 %%SYM     ip,7,type=2,val=0,size=4						   
                  		      1042 %%DTY     									   
                  		      1043 %%DAR     1,4								   
                  		      1044 %%ENDD    									   
                  		      1045 %%SYM     cnt,7,type=8,val=4,size=4						   
                  		      1046 %%SYM     buf,7,type=2,val=8,size=4						   
                  		      1047 %%DTY     									   
                  		      1048 %%DPT     									   
                  		      1049 %%ENDD    									   
                  		      1050 %%ENDD    									   
                  		      1051 %%SYM     _fileup_status,9,type=12,id=68,size=8				   
                  		      1052 %%DDS     									   
                  		      1053 %%SYM     len,7,type=8,val=0,size=4						   
                  		      1054 %%SYM     ip_adr,7,type=2,val=4,size=4					   
                  		      1055 %%DTY     									   
                  		      1056 %%DAR     1,4								   
                  		      1057 %%ENDD    									   
                  		      1058 %%ENDD    									   
                  		      1059 %%SYM     _ess_status,9,type=12,id=69,size=36				   
                  		      1060 %%DDS     									   


   CROSS ASSEMBLER     V10-L41   (8901)  XASS-V                                           Thu 03-Jan-2019 13:05:27      PAGE-0030
											              ARM               0102
Addr     Location Object-Code	   RE Isn  Source Statement  [ ********                       ]				    Error
  		  1 2 3 4 5 6 7 8	   ....*....1....*....2....*....3....*....4....*....5....*....6....*....7....*....8
                  		      1061 %%SYM     ess_len,7,type=8,val=0,size=4					   
                  		      1062 %%SYM     ess_dat,7,type=2,val=4,size=32					   
                  		      1063 %%DTY     									   
                  		      1064 %%DAR     1,32								   
                  		      1065 %%ENDD    									   
                  		      1066 %%ENDD    									   
                  		      1067 %%SYM     _retry_status,9,type=12,id=70,size=4				   
                  		      1068 %%DDS     									   
                  		      1069 %%SYM     retry_count_max,7,type=2,val=0,size=1				   
                  		      1070 %%SYM     retry_timer_init,7,type=2,val=1,size=1				   
                  		      1071 %%ENDD    									   
                  		      1072 %%SYM     ,9,type=12,id=71,size=324						   
                  		      1073 %%DDS     									   
                  		      1074 %%SYM     major_version,7,type=2,val=0,size=1				   
                  		      1075 %%SYM     minor_version,7,type=2,val=1,size=1				   
                  		      1076 %%SYM     comment,7,type=2,val=2,size=62					   
                  		      1077 %%DTY     									   
                  		      1078 %%DAR     1,62								   
                  		      1079 %%ENDD    									   
                  		      1080 %%SYM     filepath,7,type=2,val=64,size=260					   
                  		      1081 %%DTY     									   
                  		      1082 %%DAR     1,260								   
                  		      1083 %%ENDD    									   
                  		      1084 %%ENDD    									   
                  		      1085 %%SYM     _st_zgnconfig,9,type=12,id=72,size=152				   
                  		      1086 %%DDS     									   
                  		      1087 %%SYM     MaxTextSize,7,type=4,val=0,size=2					   
                  		      1088 %%SYM     Timeout,7,type=4,val=2,size=2					   
                  		      1089 %%SYM     DestIP,7,type=2,val=4,size=80					   
                  		      1090 %%DTY     									   
                  		      1091 %%DAR     1,80								   
                  		      1092 %%ENDD    									   
                  		      1093 %%SYM     DestPortNo,7,type=4,val=84,size=2					   
                  		      1094 %%SYM     LocalPortNo,7,type=4,val=86,size=2					   
                  		      1095 %%SYM     TcpConnectRetry,7,type=4,val=88,size=2				   
                  		      1096 %%SYM     TtcRoundupInit,7,type=4,val=90,size=2				   
                  		      1097 %%SYM     DefineMN,7,type=2,val=92,size=1					   
                  		      1098 %%SYM     ZeroByteFile,7,type=2,val=93,size=1				   
                  		      1099 %%SYM     TransDateCheck,7,type=2,val=94,size=1				   
                  		      1100 %%SYM     TtcBranch,7,type=2,val=95,size=1					   
                  		      1101 %%SYM     Hostcord,7,type=2,val=96,size=7					   
                  		      1102 %%DTY     									   
                  		      1103 %%DAR     1,7								   
                  		      1104 %%ENDD    									   
                  		      1105 %%SYM     Termcord,7,type=2,val=103,size=7					   
                  		      1106 %%DTY     									   
                  		      1107 %%DAR     1,7								   
                  		      1108 %%ENDD    									   
                  		      1109 %%SYM     Password,7,type=2,val=110,size=6					   
                  		      1110 %%DTY     									   
                  		      1111 %%DAR     1,6								   
                  		      1112 %%ENDD    									   
                  		      1113 %%SYM     Ext,7,type=2,val=116,size=34					   
                  		      1114 %%DTY     									   


   CROSS ASSEMBLER     V10-L41   (8901)  XASS-V                                           Thu 03-Jan-2019 13:05:27      PAGE-0031
											              ARM               0102
Addr     Location Object-Code	   RE Isn  Source Statement  [ ********                       ]				    Error
  		  1 2 3 4 5 6 7 8	   ....*....1....*....2....*....3....*....4....*....5....*....6....*....7....*....8
                  		      1115 %%DAR     1,34								   
                  		      1116 %%ENDD    									   
                  		      1117 %%ENDD    									   
                  		      1118 %%SYM     _st_zgnfconfig,9,type=12,id=73,size=316				   
                  		      1119 %%DDS     									   
                  		      1120 %%SYM     FileName,7,type=2,val=0,size=256					   
                  		      1121 %%DTY     									   
                  		      1122 %%DAR     1,256								   
                  		      1123 %%ENDD    									   
                  		      1124 %%SYM     Mode,7,type=2,val=256,size=1					   
                  		      1125 %%SYM     Branch,7,type=2,val=257,size=1					   
                  		      1126 %%SYM     Pack,7,type=2,val=258,size=1					   
                  		      1127 %%SYM     Derimita,7,type=2,val=259,size=1					   
                  		      1128 %%SYM     Blocking,7,type=2,val=260,size=1					   
                  		      1129 %%SYM     ChangeCodePtn,7,type=2,val=261,size=1				   
                  		      1130 %%SYM     Cycle,7,type=2,val=262,size=1					   
                  		      1131 %%SYM     VLRec,7,type=2,val=263,size=1					   
                  		      1132 %%SYM     RecSize,7,type=4,val=264,size=2					   
                  		      1133 %%SYM     ZFileName,7,type=2,val=266,size=12					   
                  		      1134 %%DTY     									   
                  		      1135 %%DAR     1,12								   
                  		      1136 %%ENDD    									   
                  		      1137 %%SYM     FileAccessKey,7,type=2,val=278,size=6				   
                  		      1138 %%DTY     									   
                  		      1139 %%DAR     1,6								   
                  		      1140 %%ENDD    									   
                  		      1141 %%SYM     FileSub,7,type=2,val=284,size=17					   
                  		      1142 %%DTY     									   
                  		      1143 %%DAR     1,17								   
                  		      1144 %%ENDD    									   
                  		      1145 %%SYM     FileExt,7,type=2,val=301,size=14					   
                  		      1146 %%DTY     									   
                  		      1147 %%DAR     1,14								   
                  		      1148 %%ENDD    									   
                  		      1149 %%ENDD    									   
                  		      1150 %%SYM     _apli_updateinfo,9,type=12,id=74,size=328				   
                  		      1151 %%DDS     									   
                  		      1152 %%SYM     apptype,7,type=2,val=0,size=1					   
                  		      1153 %%SYM     filename,7,type=2,val=1,size=256					   
                  		      1154 %%DTY     									   
                  		      1155 %%DAR     1,256								   
                  		      1156 %%ENDD    									   
                  		      1157 %%SYM     title,7,type=2,val=257,size=65					   
                  		      1158 %%DTY     									   
                  		      1159 %%DAR     1,65								   
                  		      1160 %%ENDD    									   
                  		      1161 %%SYM     version,7,type=2,val=322,size=2					   
                  		      1162 %%DTY     									   
                  		      1163 %%DAR     1,2								   
                  		      1164 %%ENDD    									   
                  		      1165 %%SYM     priority,7,type=2,val=324,size=1					   
                  		      1166 %%ENDD    									   
                  		      1167 %%SYM     _st_comenv,9,type=12,id=75,size=12					   
                  		      1168 %%DDS     									   


   CROSS ASSEMBLER     V10-L41   (8901)  XASS-V                                           Thu 03-Jan-2019 13:05:27      PAGE-0032
											              ARM               0102
Addr     Location Object-Code	   RE Isn  Source Statement  [ ********                       ]				    Error
  		  1 2 3 4 5 6 7 8	   ....*....1....*....2....*....3....*....4....*....5....*....6....*....7....*....8
                  		      1169 %%SYM     baudRate,7,type=8,val=0,size=4					   
                  		      1170 %%SYM     stopBits,7,type=3,val=4,size=2					   
                  		      1171 %%SYM     parity,7,type=3,val=6,size=2					   
                  		      1172 %%SYM     dataLen,7,type=3,val=8,size=2					   
                  		      1173 %%ENDD    									   
                  		      1174 %%SYM     ,9,type=12,id=76,size=44						   
                  		      1175 %%DDS     									   
                  		      1176 %%SYM     ch,7,type=2,val=0,size=1						   
                  		      1177 %%SYM     signallevel,7,type=2,val=1,size=1					   
                  		      1178 %%SYM     macaddr,7,type=2,val=2,size=6					   
                  		      1179 %%DTY     									   
                  		      1180 %%DAR     1,6								   
                  		      1181 %%ENDD    									   
                  		      1182 %%SYM     ssidlen,7,type=2,val=8,size=1					   
                  		      1183 %%SYM     ssid,7,type=2,val=9,size=32					   
                  		      1184 %%DTY     									   
                  		      1185 %%DAR     1,32								   
                  		      1186 %%ENDD    									   
                  		      1187 %%SYM     rsv1,7,type=2,val=41,size=3					   
                  		      1188 %%DTY     									   
                  		      1189 %%DAR     1,3								   
                  		      1190 %%ENDD    									   
                  		      1191 %%ENDD    									   
                  		      1192 %%SYM     ,9,type=12,id=77,size=528						   
                  		      1193 %%DDS     									   
                  		      1194 %%SYM     apinfo,7,sym=76,val=0,size=528					   
                  		      1195 %%DTY     									   
                  		      1196 %%DAR     44,12								   
                  		      1197 %%ENDD    									   
                  		      1198 %%ENDD    									   
                  		      1199 %%SYM     ,9,type=12,id=78,size=44						   
                  		      1200 %%DDS     									   
                  		      1201 %%SYM     devicename,7,type=2,val=0,size=32					   
                  		      1202 %%DTY     									   
                  		      1203 %%DAR     1,32								   
                  		      1204 %%ENDD    									   
                  		      1205 %%SYM     bd_address,7,type=2,val=32,size=12					   
                  		      1206 %%DTY     									   
                  		      1207 %%DAR     1,12								   
                  		      1208 %%ENDD    									   
                  		      1209 %%ENDD    									   
                  		      1210 %%SYM     ,9,type=12,id=79,size=396						   
                  		      1211 %%DDS     									   
                  		      1212 %%SYM     bluetoothinfo,7,sym=78,val=0,size=396				   
                  		      1213 %%DTY     									   
                  		      1214 %%DAR     44,9								   
                  		      1215 %%ENDD    									   
                  		      1216 %%ENDD    									   
                  		      1217 %%SYM     ,8,type=11,id=80							   
                  		      1218 %%DEN     									   
                  		      1219 %%SYM     BT_GUI_WT_CANVAS,5,type=5,val='0'					   
                  		      1220 %%SYM     BT_GUI_WT_EDIT_FIELD,5,type=5,val='1'				   
                  		      1221 %%SYM     BT_GUI_WT_ML_EDIT,5,type=5,val='2'					   
                  		      1222 %%SYM     BT_GUI_WT_TEXTBOX,5,type=5,val='3'					   


   CROSS ASSEMBLER     V10-L41   (8901)  XASS-V                                           Thu 03-Jan-2019 13:05:27      PAGE-0033
											              ARM               0102
Addr     Location Object-Code	   RE Isn  Source Statement  [ ********                       ]				    Error
  		  1 2 3 4 5 6 7 8	   ....*....1....*....2....*....3....*....4....*....5....*....6....*....7....*....8
                  		      1223 %%SYM     BT_GUI_WT_GROUPBOX,5,type=5,val='4'				   
                  		      1224 %%SYM     BT_GUI_WT_LISTBOX,5,type=5,val='5'					   
                  		      1225 %%SYM     BT_GUI_WT_COMBOBOX,5,type=5,val='6'				   
                  		      1226 %%SYM     BT_GUI_WT_CHECKBOX,5,type=5,val='7'				   
                  		      1227 %%SYM     BT_GUI_WT_RADIOBUTTON,5,type=5,val='8'				   
                  		      1228 %%SYM     BT_GUI_WT_BUTTON,5,type=5,val='9'					   
                  		      1229 %%SYM     BT_GUI_WT_WINDOW,5,type=5,val='10'					   
                  		      1230 %%ENDD    									   
                  		      1231 %%SYM     ,8,type=11,id=81							   
                  		      1232 %%DEN     									   
                  		      1233 %%SYM     BT_GUI_PT_VISIBLE,5,type=5,val='0'					   
                  		      1234 %%SYM     BT_GUI_PT_ENABLE,5,type=5,val='1'					   
                  		      1235 %%SYM     BT_GUI_PT_FRAME,5,type=5,val='2'					   
                  		      1236 %%SYM     BT_GUI_PT_BGCOLOR,5,type=5,val='3'					   
                  		      1237 %%SYM     BT_GUI_PT_TEXTCOLOR,5,type=5,val='4'				   
                  		      1238 %%SYM     BT_GUI_PT_SEL_BGCOLOR,5,type=5,val='5'				   
                  		      1239 %%SYM     BT_GUI_PT_SEL_TEXTCOLOR,5,type=5,val='6'				   
                  		      1240 %%SYM     BT_GUI_PT_EXCLUSIVE,5,type=5,val='7'				   
                  		      1241 %%SYM     BT_GUI_PT_TEXTDATA,5,type=5,val='8'				   
                  		      1242 %%SYM     BT_GUI_PT_IMAGE_FILE,5,type=5,val='9'				   
                  		      1243 %%SYM     BT_GUI_PT_FONTSIZE,5,type=5,val='10'				   
                  		      1244 %%SYM     BT_GUI_PT_TEXTALIGN,5,type=5,val='11'				   
                  		      1245 %%SYM     BT_GUI_PT_HSCROLLBAR,5,type=5,val='12'				   
                  		      1246 %%SYM     BT_GUI_PT_VSCROLLBAR,5,type=5,val='13'				   
                  		      1247 %%SYM     BT_GUI_PT_STRLEN,5,type=5,val='14'					   
                  		      1248 %%SYM     BT_GUI_PT_CHECKED,5,type=5,val='15'				   
                  		      1249 %%SYM     BT_GUI_PT_INPUTMAX,5,type=5,val='16'				   
                  		      1250 %%SYM     BT_GUI_PT_TRG_MODE,5,type=5,val='17'				   
                  		      1251 %%SYM     BT_GUI_PT_F3KEY_MODE,5,type=5,val='18'				   
                  		      1252 %%SYM     BT_GUI_PT_FOCUSIN_EDIT,5,type=5,val='19'				   
                  		      1253 %%SYM     BT_GUI_PT_AUTOREAD_ENABLE,5,type=5,val='20'			   
                  		      1254 %%SYM     BT_GUI_PT_KEYINPUT_ENABLE,5,type=5,val='21'			   
                  		      1255 %%SYM     BT_GUI_PT_FOCUSINDICATOR,5,type=5,val='22'				   
                  		      1256 %%ENDD    									   
                  		      1257 %%SYM     _bt_gui_fontinfo,9,type=12,id=82,size=12				   
                  		      1258 %%DDS     									   
                  		      1259 %%SYM     sFontSize,7,type=3,val=0,size=2					   
                  		      1260 %%SYM     sReserve1,7,type=3,val=2,size=2					   
                  		      1261 %%SYM     ulTextColor,7,type=8,val=4,size=4					   
                  		      1262 %%SYM     ulBkgColor,7,type=8,val=8,size=4					   
                  		      1263 %%ENDD    									   
                  		      1264 %%SYM     _bt_gui_drawex,9,type=12,id=83,size=32				   
                  		      1265 %%DDS     									   
                  		      1266 %%SYM     fontinfo,7,sym=82,val=0,size=12					   
                  		      1267 %%SYM     gapx,7,type=3,val=12,size=2					   
                  		      1268 %%SYM     gapy,7,type=3,val=14,size=2					   
                  		      1269 %%SYM     type,7,type=3,val=16,size=2					   
                  		      1270 %%SYM     sReserve1,7,type=3,val=18,size=2					   
                  		      1271 %%SYM     attrg,7,sym=7,val=20,size=12					   
                  		      1272 %%ENDD    									   
                  		      1273 %%SYM     ,9,type=12,id=84,size=76						   
                  		      1274 %%DDS     									   
                  		      1275 %%SYM     anykey,7,type=5,val=0,size=4					   
                  		      1276 %%SYM     key0,7,type=5,val=4,size=4						   


   CROSS ASSEMBLER     V10-L41   (8901)  XASS-V                                           Thu 03-Jan-2019 13:05:27      PAGE-0034
											              ARM               0102
Addr     Location Object-Code	   RE Isn  Source Statement  [ ********                       ]				    Error
  		  1 2 3 4 5 6 7 8	   ....*....1....*....2....*....3....*....4....*....5....*....6....*....7....*....8
                  		      1277 %%SYM     key1,7,type=5,val=8,size=4						   
                  		      1278 %%SYM     key2,7,type=5,val=12,size=4					   
                  		      1279 %%SYM     key3,7,type=5,val=16,size=4					   
                  		      1280 %%SYM     key4,7,type=5,val=20,size=4					   
                  		      1281 %%SYM     key5,7,type=5,val=24,size=4					   
                  		      1282 %%SYM     key6,7,type=5,val=28,size=4					   
                  		      1283 %%SYM     key7,7,type=5,val=32,size=4					   
                  		      1284 %%SYM     key8,7,type=5,val=36,size=4					   
                  		      1285 %%SYM     key9,7,type=5,val=40,size=4					   
                  		      1286 %%SYM     keyEnt,7,type=5,val=44,size=4					   
                  		      1287 %%SYM     keyEsc,7,type=5,val=48,size=4					   
                  		      1288 %%SYM     keyFnUp,7,type=5,val=52,size=4					   
                  		      1289 %%SYM     keyClr,7,type=5,val=56,size=4					   
                  		      1290 %%SYM     keyL,7,type=5,val=60,size=4					   
                  		      1291 %%SYM     keyR,7,type=5,val=64,size=4					   
                  		      1292 %%SYM     keyUp,7,type=5,val=68,size=4					   
                  		      1293 %%SYM     keyDown,7,type=5,val=72,size=4					   
                  		      1294 %%ENDD    									   
                  		      1295 %%SYM     ,9,type=12,id=85,size=244						   
                  		      1296 %%DDS     									   
                  		      1297 %%SYM     data,7,type=2,val=0,size=242					   
                  		      1298 %%DTY     									   
                  		      1299 %%DAR     1,11,22								   
                  		      1300 %%ENDD    									   
                  		      1301 %%ENDD    									   
                  		      1302 %%SYM     ,9,type=12,id=86,size=24						   
                  		      1303 %%DDS     									   
                  		      1304 %%SYM     name,7,type=2,val=0,size=21					   
                  		      1305 %%DTY     									   
                  		      1306 %%DAR     1,21								   
                  		      1307 %%ENDD    									   
                  		      1308 %%ENDD    									   
                  		      1309 %%SYM     ,9,type=12,id=87,size=384						   
                  		      1310 %%DDS     									   
                  		      1311 %%SYM     item,7,sym=86,val=0,size=384					   
                  		      1312 %%DTY     									   
                  		      1313 %%DAR     24,16								   
                  		      1314 %%ENDD    									   
                  		      1315 %%ENDD    									   
                  		      1316 %%SYM     ,9,type=12,id=88,size=12						   
                  		      1317 %%DDS     									   
                  		      1318 %%SYM     year,7,type=3,val=0,size=2						   
                  		      1319 %%SYM     month,7,type=3,val=2,size=2					   
                  		      1320 %%SYM     day,7,type=3,val=4,size=2						   
                  		      1321 %%SYM     hour,7,type=3,val=6,size=2						   
                  		      1322 %%SYM     min,7,type=3,val=8,size=2						   
                  		      1323 %%SYM     sec,7,type=3,val=10,size=2						   
                  		      1324 %%ENDD    									   
                  		      1325 %%SYM     ,9,type=12,id=89,size=232						   
                  		      1326 %%DDS     									   
                  		      1327 %%SYM     mode,7,type=5,val=0,size=4						   
                  		      1328 %%SYM     title,7,type=2,val=4,size=21					   
                  		      1329 %%DTY     									   
                  		      1330 %%DAR     1,21								   


   CROSS ASSEMBLER     V10-L41   (8901)  XASS-V                                           Thu 03-Jan-2019 13:05:27      PAGE-0035
											              ARM               0102
Addr     Location Object-Code	   RE Isn  Source Statement  [ ********                       ]				    Error
  		  1 2 3 4 5 6 7 8	   ....*....1....*....2....*....3....*....4....*....5....*....6....*....7....*....8
                  		      1331 %%ENDD    									   
                  		      1332 %%SYM     l1,7,type=2,val=25,size=21						   
                  		      1333 %%DTY     									   
                  		      1334 %%DAR     1,21								   
                  		      1335 %%ENDD    									   
                  		      1336 %%SYM     l2,7,type=2,val=46,size=21						   
                  		      1337 %%DTY     									   
                  		      1338 %%DAR     1,21								   
                  		      1339 %%ENDD    									   
                  		      1340 %%SYM     l3,7,type=2,val=67,size=21						   
                  		      1341 %%DTY     									   
                  		      1342 %%DAR     1,21								   
                  		      1343 %%ENDD    									   
                  		      1344 %%SYM     l4,7,type=2,val=88,size=21						   
                  		      1345 %%DTY     									   
                  		      1346 %%DAR     1,21								   
                  		      1347 %%ENDD    									   
                  		      1348 %%SYM     l5,7,type=2,val=109,size=21					   
                  		      1349 %%DTY     									   
                  		      1350 %%DAR     1,21								   
                  		      1351 %%ENDD    									   
                  		      1352 %%SYM     l6,7,type=2,val=130,size=21					   
                  		      1353 %%DTY     									   
                  		      1354 %%DAR     1,21								   
                  		      1355 %%ENDD    									   
                  		      1356 %%SYM     l7,7,type=2,val=151,size=21					   
                  		      1357 %%DTY     									   
                  		      1358 %%DAR     1,21								   
                  		      1359 %%ENDD    									   
                  		      1360 %%SYM     buffer,7,type=2,val=172,size=4					   
                  		      1361 %%DTY     									   
                  		      1362 %%DPT     									   
                  		      1363 %%ENDD    									   
                  		      1364 %%SYM     bufsize,7,type=6,val=176,size=4					   
                  		      1365 %%SYM     emptyOK,7,type=5,val=180,size=4					   
                  		      1366 %%SYM     upkey,7,type=5,val=184,size=4					   
                  		      1367 %%SYM     downkey,7,type=5,val=188,size=4					   
                  		      1368 %%SYM     bar_read,7,type=5,val=192,size=4					   
                  		      1369 %%SYM     keychange,7,type=5,val=196,size=4					   
                  		      1370 %%SYM     defdata,7,type=2,val=200,size=21					   
                  		      1371 %%DTY     									   
                  		      1372 %%DAR     1,21								   
                  		      1373 %%ENDD    									   
                  		      1374 %%SYM     alpha,7,type=2,val=221,size=1					   
                  		      1375 %%SYM     c1,7,type=2,val=222,size=1						   
                  		      1376 %%SYM     c2,7,type=2,val=223,size=1						   
                  		      1377 %%SYM     c3,7,type=2,val=224,size=1						   
                  		      1378 %%SYM     c4,7,type=2,val=225,size=1						   
                  		      1379 %%SYM     c5,7,type=2,val=226,size=1						   
                  		      1380 %%SYM     c6,7,type=2,val=227,size=1						   
                  		      1381 %%SYM     c7,7,type=2,val=228,size=1						   
                  		      1382 %%ENDD    									   
                  		      1383 %%SYM     ,9,type=12,id=90,size=48						   
                  		      1384 %%DDS     									   


   CROSS ASSEMBLER     V10-L41   (8901)  XASS-V                                           Thu 03-Jan-2019 13:05:27      PAGE-0036
											              ARM               0102
Addr     Location Object-Code	   RE Isn  Source Statement  [ ********                       ]				    Error
  		  1 2 3 4 5 6 7 8	   ....*....1....*....2....*....3....*....4....*....5....*....6....*....7....*....8
                  		      1385 %%SYM     Name,7,type=2,val=0,size=30					   
                  		      1386 %%DTY     									   
                  		      1387 %%DAR     1,30								   
                  		      1388 %%ENDD    									   
                  		      1389 %%SYM     AdminSign,7,type=2,val=30,size=1					   
                  		      1390 %%SYM     Location,7,type=2,val=31,size=3					   
                  		      1391 %%DTY     									   
                  		      1392 %%DAR     1,3								   
                  		      1393 %%ENDD    									   
                  		      1394 %%SYM     UserId,7,type=2,val=34,size=10					   
                  		      1395 %%DTY     									   
                  		      1396 %%DAR     1,10								   
                  		      1397 %%ENDD    									   
                  		      1398 %%SYM     None,7,type=2,val=44,size=1					   
                  		      1399 %%ENDD    									   
                  		      1400 %%SYM     ,9,type=12,id=91,size=100						   
                  		      1401 %%DDS     									   
                  		      1402 %%SYM     msg1,7,type=2,val=0,size=20					   
                  		      1403 %%DTY     									   
                  		      1404 %%DAR     1,20								   
                  		      1405 %%ENDD    									   
                  		      1406 %%SYM     msg2,7,type=2,val=20,size=20					   
                  		      1407 %%DTY     									   
                  		      1408 %%DAR     1,20								   
                  		      1409 %%ENDD    									   
                  		      1410 %%SYM     msg3,7,type=2,val=40,size=20					   
                  		      1411 %%DTY     									   
                  		      1412 %%DAR     1,20								   
                  		      1413 %%ENDD    									   
                  		      1414 %%SYM     msg4,7,type=2,val=60,size=20					   
                  		      1415 %%DTY     									   
                  		      1416 %%DAR     1,20								   
                  		      1417 %%ENDD    									   
                  		      1418 %%SYM     msg5,7,type=2,val=80,size=20					   
                  		      1419 %%DTY     									   
                  		      1420 %%DAR     1,20								   
                  		      1421 %%ENDD    									   
                  		      1422 %%ENDD    									   
                  		      1423 %%SYM     ,9,type=12,id=92,size=16						   
                  		      1424 %%DDS     									   
                  		      1425 %%SYM     box,7,type=2,val=0,size=15						   
                  		      1426 %%DTY     									   
                  		      1427 %%DAR     1,15								   
                  		      1428 %%ENDD    									   
                  		      1429 %%ENDD    									   
                  		      1430 %%SYM     ,9,type=12,id=93,size=3200						   
                  		      1431 %%DDS     									   
                  		      1432 %%SYM     ListBox,7,sym=92,val=0,size=3200					   
                  		      1433 %%DTY     									   
                  		      1434 %%DAR     16,200								   
                  		      1435 %%ENDD    									   
                  		      1436 %%ENDD    									   
                  		      1437 %%SYM     send,0,type=2,cls=2,val=_send,size=30000				   
                  		      1438 %%DTY     									   


   CROSS ASSEMBLER     V10-L41   (8901)  XASS-V                                           Thu 03-Jan-2019 13:05:27      PAGE-0037
											              ARM               0102
Addr     Location Object-Code	   RE Isn  Source Statement  [ ********                       ]				    Error
  		  1 2 3 4 5 6 7 8	   ....*....1....*....2....*....3....*....4....*....5....*....6....*....7....*....8
                  		      1439 %%DAR     1,30000								   
                  		      1440 %%ENDD    									   
                  		      1441 %%SYM     rcv,0,type=2,cls=2,val=_rcv,size=30000				   
                  		      1442 %%DTY     									   
                  		      1443 %%DAR     1,30000								   
                  		      1444 %%ENDD    									   
                  		      1445 %%SYM     buf,0,type=2,cls=2,val=_buf,size=128				   
                  		      1446 %%DTY     									   
                  		      1447 %%DAR     1,128								   
                  		      1448 %%ENDD    									   
                  		      1449 %%SYM     keyCode,0,type=5,cls=2,val=_keyCode,size=4				   
                  		      1450 %%SYM     loc,0,type=2,cls=2,val=_loc,size=4					   
                  		      1451 %%DTY     									   
                  		      1452 %%DAR     1,4								   
                  		      1453 %%ENDD    									   
                  		      1454 %%SYM     userId,0,type=2,cls=2,val=_userId,size=10				   
                  		      1455 %%DTY     									   
                  		      1456 %%DAR     1,10								   
                  		      1457 %%ENDD    									   
                  		      1458 %%SYM     msg,0,type=2,cls=2,val=_msg,size=128				   
                  		      1459 %%DTY     									   
                  		      1460 %%DAR     1,128								   
                  		      1461 %%ENDD    									   
                  		      1462 %%SYM     msg2,0,type=2,cls=2,val=_msg2,size=128				   
                  		      1463 %%DTY     									   
                  		      1464 %%DAR     1,128								   
                  		      1465 %%ENDD    									   
                  		      1466 %%LINE    000012								   
                  		      1467 %%FUNC    ChangePalleteForOR,3,cls=2,type=5,ftype=1				   
                  		      1468 %%RVALUE  kind=direct,register=R0,atype=2					   
                  		      1469 @ChangePalleteForOR: ;entry							   
         00000000 C05C2DE9	      1470 		   stmfd     sp!,{r6,r7,r10,r11,r12,lr}				   
         00000004 0DB0A0E1	      1471 		   mov	     r11,sp						   
                  		      1472 %%SAVE  R6,kind=direct,base=R11,offset=0,atype=6				   
                  		      1473 %%SAVE  R7,kind=direct,base=R11,offset=4,atype=6				   
                  		      1474 %%SAVE  R10,kind=direct,base=R11,offset=8,atype=6				   
                  		      1475 %%SAVE  R12,kind=direct,base=R11,offset=16,atype=6				   
00000118 00000008 46DF4DE2	      1476 		   sub	     sp,#280						   
00000118          		      1477 AS@ChangePalleteForOR   set	   280		   ; stack frame total size	   
                  		      1478 %%BF	     									   
                  		      1479 %%SYM     ret,0,type=5,size=4,cls=6,val=0,delete 				   
                  		      1480 %%SYM     cntError,0,type=5,cls=1,reg=R7,val=0,size=4			   
                  		      1481 %%SYM     seq,0,type=2,cls=6,val=-44,size=25					   
                  		      1482 %%DTY     									   
                  		      1483 %%DAR     1,25								   
                  		      1484 %%ENDD    									   
                  		      1485 %%SYM     pallete,0,type=2,cls=6,val=-16,size=16				   
                  		      1486 %%DTY     									   
                  		      1487 %%DAR     1,16								   
                  		      1488 %%ENDD    									   
                  		      1489 %%SYM     set,0,sym=89,cls=6,val=-276,size=232				   
                  		      1490 %%SCOPE   init								   
00000000 0000000C 00C0A0E3	      1491 		   mov	     r12,#0						   
00000000 00000010 00A0A0E3	      1492 		   mov	     r10,#0						   


   CROSS ASSEMBLER     V10-L41   (8901)  XASS-V                                           Thu 03-Jan-2019 13:05:27      PAGE-0038
											              ARM               0102
Addr     Location Object-Code	   RE Isn  Source Statement  [ ********                       ]				    Error
  		  1 2 3 4 5 6 7 8	   ....*....1....*....2....*....3....*....4....*....5....*....6....*....7....*....8
00000004 00000014 04608DE2	      1493 		   adrl	     r6,sp,AS@ChangePalleteForOR-276			   
                  		      1494 %%LINE    000013								   
                  		      1495 ;Expr(14): 16								   
                  		      1496 %%SCOPE   init								   
         00000018 0C70A0E1	      1497 		   mov	     r7,r12						   
                  		      1498 %%LINE    000018								   
                  		      1499 ;Expr(18): btmemset(loc,0,sizeof(loc))  					   
                  		      1500 %%SCOPE   on,cntError							   
00000004 0000001C 0420A0E3	      1501 		   mov	     r2,#4						   
         00000020 0A10A0E1	      1502 		   mov	     r1,r10						   
00000A38 00000024 0C0A9FE5	      1503 		   ldr	     r0,S__loc						   
                  		      1504 %%CALL									   
00000000 00000028 000000EB	    E 1505 		   bl	     @btmemset						   
                  		      1506 %%LINE    000019								   
                  		      1507 ;Expr(19): btmemset(userId,0,sizeof(userId))	   				   
0000000A 0000002C 0A20A0E3	      1508 		   mov	     r2,#10						   
         00000030 0A10A0E1	      1509 		   mov	     r1,r10						   
00000A34 00000034 F8099FE5	      1510 		   ldr	     r0,S__userId					   
                  		      1511 %%CALL									   
00000000 00000038 000000EB	    E 1512 		   bl	     @btmemset						   
                  		      1513 %%LINE    000021								   
                  		      1514 ;Expr(21): MasterFind("location",loc)   					   
00000A38 0000003C F4199FE5	      1515 		   ldr	     r1,S__loc						   
00000A04 00000040 BC099FE5	      1516 		   ldr	     r0,S_S1						   
                  		      1517 %%CALL									   
00000000 00000044 000000EB	    E 1518 		   bl	     @MasterFind					   
                  		      1519 %%LINE    000022								   
                  		      1520 ;Expr(22): MasterFind("user",userId)	   					   
00000A34 00000048 E4199FE5	      1521 		   ldr	     r1,S__userId					   
00000A00 0000004C AC099FE5	      1522 		   ldr	     r0,S_S2						   
                  		      1523 %%CALL									   
00000000 00000050 000000EB	    E 1524 		   bl	     @MasterFind					   
                  		      1525 L5:										   
                  		      1526 %%LINE    000027								   
                  		      1527 ;Expr(27): btmemset(buf,0,sizeof(buf))  					   
                  		      1528 %%SCOPE   init,cntError							   
00000080 00000054 8020A0E3	      1529 		   mov	     r2,#128						   
         00000058 0A10A0E1	      1530 		   mov	     r1,r10						   
00000AA4 0000005C 400A9FE5	      1531 		   ldr	     r0,S__buf						   
                  		      1532 %%CALL									   
00000000 00000060 000000EB	    E 1533 		   bl	     @btmemset						   
                  		      1534 %%LINE    000028								   
                  		      1535 ;Expr(28): btmemset(&set,0,sizeof(set)) 					   
000000E8 00000064 E820A0E3	      1536 		   mov	     r2,#232						   
         00000068 0A10A0E1	      1537 		   mov	     r1,r10						   
         0000006C 0600A0E1	      1538 		   mov	     r0,r6						   
                  		      1539 %%CALL									   
00000000 00000070 000000EB	    E 1540 		   bl	     @btmemset						   
                  		      1541 %%LINE    000029								   
                  		      1542 ;Expr(29): set.mode=1   							   
00000001 00000074 0100A0E3	      1543 		   mov	     r0,#1						   
00000000 00000078 000086E5	      1544 		   str	     r0,[r6,#0]						   
                  		      1545 %%LINE    000030								   
                  		      1546 ;Expr(30): set.buffer=buf	   						   


   CROSS ASSEMBLER     V10-L41   (8901)  XASS-V                                           Thu 03-Jan-2019 13:05:27      PAGE-0039
											              ARM               0102
Addr     Location Object-Code	   RE Isn  Source Statement  [ ********                       ]				    Error
  		  1 2 3 4 5 6 7 8	   ....*....1....*....2....*....3....*....4....*....5....*....6....*....7....*....8
00000AA4 0000007C 201A9FE5	      1547 		   ldr	     r1,S__buf						   
000000AC 00000080 AC1086E5	      1548 		   str	     r1,[r6,#172]					   
                  		      1549 %%LINE    000031								   
                  		      1550 ;Expr(31): set.bufsize=sizeof(buf)	   					   
00000080 00000084 8020A0E3	      1551 		   mov	     r2,#128						   
000000B0 00000088 B02086E5	      1552 		   str	     r2,[r6,#176]					   
                  		      1553 %%LINE    000033								   
                  		      1554 ;Expr(33): btstrcpy(set.title,"VNN NOK")	   				   
00000004 0000008C 040096E2	      1555 		   adds	     r0,r6,#4						   
00000A10 00000090 78199FE5	      1556 		   ldr	     r1,S_S3						   
                  		      1557 %%CALL									   
00000000 00000094 000000EB	    E 1558 		   bl	     @btstrcpy						   
                  		      1559 %%LINE    000034								   
                  		      1560 ;Expr(34): btstrcpy(set.l1,"Quet thung")	   				   
00000019 00000098 190096E2	      1561 		   adds	     r0,r6,#25						   
00000A0C 0000009C 68199FE5	      1562 		   ldr	     r1,S_S4						   
                  		      1563 %%CALL									   
00000000 000000A0 000000EB	    E 1564 		   bl	     @btstrcpy						   
                  		      1565 %%LINE    000035								   
                  		      1566 ;Expr(35): btstrcpy(set.l2,"")  						   
0000002E 000000A4 2E0096E2	      1567 		   adds	     r0,r6,#46						   
00000A08 000000A8 58199FE5	      1568 		   ldr	     r1,S_S5						   
                  		      1569 %%CALL									   
00000000 000000AC 000000EB	    E 1570 		   bl	     @btstrcpy						   
                  		      1571 %%LINE    000037								   
                  		      1572 ;Expr(37): ret=DataInputBt(&set)	    - if -				   
         000000B0 0600A0E1	      1573 		   mov	     r0,r6						   
                  		      1574 %%CALL									   
00000000 000000B4 000000EB	    E 1575 		   bl	     @DataInputBt					   
                  		      1576 %%LINE    000039								   
                  		      1577 ;Expr(39): ret  								   
00000000 000000B8 000050E3	      1578 		   cmp	     r0,#0						   
000002E0 000000BC 8700001A	      1579 		   bne.x     L62						   
                  		      1580 ; - endif - - if -								   
                  		      1581 %%LINE    000042								   
                  		      1582 ;Expr(42): btmemcmp(buf,"V",1)  						   
                  		      1583 %%SCOPE   init,cntError							   
00000001 000000C0 0120A0E3	      1584 		   mov	     r2,#1						   
00000A14 000000C4 48199FE5	      1585 		   ldr	     r1,S_S6						   
00000AA4 000000C8 D4099FE5	      1586 		   ldr	     r0,S__buf						   
                  		      1587 %%CALL									   
00000000 000000CC 000000EB	    E 1588 		   bl	     @btmemcmp						   
00000000 000000D0 000050E3	      1589 		   cmp	     r0,#0						   
00000148 000000D4 1B00000A	      1590 		   beq.x     L27						   
                  		      1591 %%LINE    000044								   
                  		      1592 ;Expr(44): Buzzer()	   							   
                  		      1593 %%SCOPE   init,cntError							   
                  		      1594 %%CALL									   
00000000 000000D8 000000EB	    E 1595 		   bl	     @Buzzer						   
                  		      1596 %%LINE    000045								   
                  		      1597 ;Expr(45): cntError++   							   
00000001 000000DC 017097E2	      1598 		   adds	     r7,r7,#1						   
                  		      1599 L13:										   
                  		      1600 ; - do -									   


   CROSS ASSEMBLER     V10-L41   (8901)  XASS-V                                           Thu 03-Jan-2019 13:05:27      PAGE-0040
											              ARM               0102
Addr     Location Object-Code	   RE Isn  Source Statement  [ ********                       ]				    Error
  		  1 2 3 4 5 6 7 8	   ....*....1....*....2....*....3....*....4....*....5....*....6....*....7....*....8
                  		      1601 %%LINE    000049								   
                  		      1602 ;Expr(49): keyCode=StartDisplay("VNN NOK","Loi:","Quet khong dung","ma vach thun
                  		           g!","","","C: Thoat","ENT: Quet Lai")    - if -				   
                  		      1603 %%SCOPE   init,cntError							   
00000A18 000000E0 30099FE5	      1604 		   ldr	     r0,S_S14						   
         000000E4 01002DE9	      1605 		   stmfd     sp!,{r0}						   
00000009 000000E8 091040E2	      1606 		   sub	     r1,r0,#9		   ; ldr r1,S_S13		   
         000000EC 02002DE9	      1607 		   stmfd     sp!,{r1}						   
0000000A 000000F0 0A2040E2	      1608 		   sub	     r2,r0,#10		   ; ldr r2,S_S12		   
         000000F4 04002DE9	      1609 		   stmfd     sp!,{r2}						   
0000000B 000000F8 0B0040E2	      1610 		   sub	     r0,r0,#11		   ; ldr r0,S_S11		   
         000000FC 01002DE9	      1611 		   stmfd     sp!,{r0}						   
0000000F 00000100 0F3040E2	      1612 		   sub	     r3,r0,#15		   ; ldr r3,S_S10		   
00000020 00000104 202042E2	      1613 		   sub	     r2,r2,#32		   ; ldr r2,S_S9		   
00000026 00000108 261041E2	      1614 		   sub	     r1,r1,#38		   ; ldr r1,S_S8		   
0000002C 0000010C 2C0040E2	      1615 		   sub	     r0,r0,#44		   ; ldr r0,S_S7		   
                  		      1616 %%CALL									   
00000000 00000110 000000EB	    E 1617 		   bl	     @StartDisplay					   
00000A90 00000114 74599FE5	      1618 		   ldr	     r5,Btop_59520					   
00000260 00000118 600285E5	      1619 		   str	     r0,[r5,#608]					   
                  		      1620 %%LINE    000051								   
                  		      1621 ;Expr(51): keyCode==(0019)	   						   
00000010 0000011C 10D08DE2	      1622 		   add	     sp,#16						   
00000260 00000120 601295E5	      1623 		   ldr	     r1,[r5,#608]					   
00000019 00000124 190051E3	      1624 		   cmp	     r1,#25						   
000002C8 00000128 6600000A	      1625 		   beq.x     L63						   
                  		      1626 %%LINE    000054								   
                  		      1627 ;Expr(54): keyCode!=(000d)	   						   
                  		      1628 %%SCOPE   init,cntError							   
00000260 0000012C 600295E5	      1629 		   ldr	     r0,[r5,#608]					   
0000000D 00000130 0D0050E3	      1630 		   cmp	     r0,#13						   
000000E0 00000134 E9FFFF1A	      1631 		   bne.x     L13						   
                  		      1632 %%LINE    000056								   
                  		      1633 ;Expr(56): keyCode=0	    - if -						   
                  		      1634 %%SCOPE   init,cntError							   
00000260 00000138 60C285E5	      1635 		   str	     r12,[r5,#608]					   
                  		      1636 %%LINE    000058								   
                  		      1637 ;Expr(58): cntError>2   							   
00000002 0000013C 020057E3	      1638 		   cmp	     r7,#2						   
00000054 00000140 C3FFFFDA	      1639 		   ble.x     L5							   
000002E0 00000144 650000EA	      1640 		   b.x	     L62						   
                  		      1641 L27:										   
                  		      1642 ; - endif -									   
                  		      1643 %%LINE    000063								   
                  		      1644 ;Expr(63): cntError=0   							   
                  		      1645 %%SCOPE   init								   
         00000148 0C70A0E1	      1646 		   mov	     r7,r12						   
                  		      1647 %%LINE    000064								   
                  		      1648 ;Expr(64): ret=CheckDataByType(loc,buf,3)	    - if -			   
                  		      1649 %%SCOPE   on,cntError							   
00000003 0000014C 0320A0E3	      1650 		   mov	     r2,#3						   
00000AA4 00000150 4C199FE5	      1651 		   ldr	     r1,S__buf						   
00000084 00000154 840081E2	      1652 		   add	     r0,r1,#132		   ; ldr r0,S__loc		   
                  		      1653 %%CALL									   


   CROSS ASSEMBLER     V10-L41   (8901)  XASS-V                                           Thu 03-Jan-2019 13:05:27      PAGE-0041
											              ARM               0102
Addr     Location Object-Code	   RE Isn  Source Statement  [ ********                       ]				    Error
  		  1 2 3 4 5 6 7 8	   ....*....1....*....2....*....3....*....4....*....5....*....6....*....7....*....8
00000000 00000158 000000EB	    E 1654 		   bl	     @CheckDataByType					   
                  		      1655 %%LINE    000066								   
                  		      1656 ;Expr(66): ret  								   
00000000 0000015C 000050E3	      1657 		   cmp	     r0,#0						   
000001CC 00000160 1900000A	      1658 		   beq.x     L45						   
                  		      1659 %%LINE    000068								   
                  		      1660 ;Expr(68): Buzzer()	   							   
                  		      1661 %%SCOPE   init								   
                  		      1662 %%CALL									   
00000000 00000164 000000EB	    E 1663 		   bl	     @Buzzer						   
                  		      1664 %%LINE    000069								   
                  		      1665 ;Expr(69): cntError++   							   
00000001 00000168 0170A0E3	      1666 		   mov	     r7,#1						   
                  		      1667 L31:										   
                  		      1668 ; - do -									   
                  		      1669 %%LINE    000073								   
                  		      1670 ;Expr(73): keyCode=StartDisplay("VNN NOK","Loi:","Quet sai thung",loc,"",buf,"C:
                  		            Thoat","ENT: Quet Lai")	    - if -					   
                  		      1671 %%SCOPE   init,cntError							   
00000A1C 0000016C A8089FE5	      1672 		   ldr	     r0,S_S20						   
         00000170 01002DE9	      1673 		   stmfd     sp!,{r0}						   
00000009 00000174 091040E2	      1674 		   sub	     r1,r0,#9		   ; ldr r1,S_S19		   
         00000178 02002DE9	      1675 		   stmfd     sp!,{r1}						   
00000AA4 0000017C 20299FE5	      1676 		   ldr	     r2,S__buf						   
         00000180 04002DE9	      1677 		   stmfd     sp!,{r2}						   
0000000A 00000184 0A0040E2	      1678 		   sub	     r0,r0,#10		   ; ldr r0,S_S18		   
         00000188 01002DE9	      1679 		   stmfd     sp!,{r0}						   
00000084 0000018C 843082E2	      1680 		   add	     r3,r2,#132		   ; ldr r3,S__loc		   
0000000F 00000190 0F2040E2	      1681 		   sub	     r2,r0,#15		   ; ldr r2,S_S17		   
00000015 00000194 151041E2	      1682 		   sub	     r1,r1,#21		   ; ldr r1,S_S16		   
0000001C 00000198 1C0040E2	      1683 		   sub	     r0,r0,#28		   ; ldr r0,S_S15		   
                  		      1684 %%CALL									   
00000000 0000019C 000000EB	    E 1685 		   bl	     @StartDisplay					   
00000A90 000001A0 E8589FE5	      1686 		   ldr	     r5,Btop_59520					   
00000260 000001A4 600285E5	      1687 		   str	     r0,[r5,#608]					   
                  		      1688 %%LINE    000074								   
                  		      1689 ;Expr(74): keyCode==(0019)	   						   
00000010 000001A8 10D08DE2	      1690 		   add	     sp,#16						   
00000260 000001AC 601295E5	      1691 		   ldr	     r1,[r5,#608]					   
00000019 000001B0 190051E3	      1692 		   cmp	     r1,#25						   
000002C8 000001B4 4300000A	      1693 		   beq.x     L63						   
                  		      1694 %%LINE    000076								   
                  		      1695 ;Expr(76): keyCode!=(000d)	   						   
                  		      1696 %%SCOPE   init,cntError							   
00000260 000001B8 600295E5	      1697 		   ldr	     r0,[r5,#608]					   
0000000D 000001BC 0D0050E3	      1698 		   cmp	     r0,#13						   
0000016C 000001C0 E9FFFF1A	      1699 		   bne.x     L31						   
                  		      1700 %%LINE    000078								   
                  		      1701 ;Expr(78): keyCode=0	    - if -						   
                  		      1702 %%SCOPE   init,cntError							   
00000260 000001C4 60C285E5	      1703 		   str	     r12,[r5,#608]					   
00000054 000001C8 A1FFFFEA	      1704 		   b.x	     L5							   
                  		      1705 L45:										   
                  		      1706 ; - endif -									   


   CROSS ASSEMBLER     V10-L41   (8901)  XASS-V                                           Thu 03-Jan-2019 13:05:27      PAGE-0042
											              ARM               0102
Addr     Location Object-Code	   RE Isn  Source Statement  [ ********                       ]				    Error
  		  1 2 3 4 5 6 7 8	   ....*....1....*....2....*....3....*....4....*....5....*....6....*....7....*....8
                  		      1707 %%LINE    000087								   
                  		      1708 ;Expr(87): btmemset(send,0,sizeof(send))	   				   
                  		      1709 %%SCOPE   init,cntError							   
00000AA0 000001CC CC289FE5	      1710 		   ldr	     r2,S_30000						   
         000001D0 0A10A0E1	      1711 		   mov	     r1,r10						   
00000A9C 000001D4 C0089FE5	      1712 		   ldr	     r0,S__send						   
                  		      1713 %%CALL									   
00000000 000001D8 000000EB	    E 1714 		   bl	     @btmemset						   
                  		      1715 %%LINE    000088								   
                  		      1716 ;Expr(88): MakeDataToSend("M200","",buf,send)   				   
00000A9C 000001DC B8389FE5	      1717 		   ldr	     r3,S__send						   
00000AA4 000001E0 BC289FE5	      1718 		   ldr	     r2,S__buf						   
00000A20 000001E4 34189FE5	      1719 		   ldr	     r1,S_S22						   
00000005 000001E8 050041E2	      1720 		   sub	     r0,r1,#5		   ; ldr r0,S_S21		   
                  		      1721 %%CALL									   
00000000 000001EC 000000EB	    E 1722 		   bl	     @MakeDataToSend					   
                  		      1723 %%LINE    000090								   
                  		      1724 ;Expr(90): ret=DataSend(send,btstrlen(send),rcv,sizeof(rcv),(0))	    - if - 
         000001F0 00102DE9	      1725 		   stmfd     sp!,{r12}						   
00000A9C 000001F4 A0089FE5	      1726 		   ldr	     r0,S__send						   
                  		      1727 %%CALL									   
00000000 000001F8 000000EB	    E 1728 		   bl	     @btstrlen						   
00000004 000001FC 04008DE5	      1729 		   str	     r0,[sp,#AS@ChangePalleteForOR-280+4]		   
00000AA0 00000200 98389FE5	      1730 		   ldr	     r3,S_30000						   
00000A94 00000204 88289FE5	      1731 		   ldr	     r2,S__rcv						   
         00000208 0010A0E1	      1732 		   mov	     r1,r0						   
00000A9C 0000020C 88089FE5	      1733 		   ldr	     r0,S__send						   
                  		      1734 %%CALL									   
00000000 00000210 000000EB	    E 1735 		   bl	     @DataSend						   
                  		      1736 %%LINE    000092								   
                  		      1737 ;Expr(92): ret==2	   							   
00000004 00000214 04D08DE2	      1738 		   add	     sp,#4						   
00000002 00000218 020050E3	      1739 		   cmp	     r0,#2						   
000002D0 0000021C 2B00001A	      1740 		   bne.x     L52						   
                  		      1741 ; - then -									   
                  		      1742 %%LINE    000094								   
                  		      1743 ;Expr(94): btmemset(pallete,0,sizeof(pallete))  				   
                  		      1744 %%SCOPE   init,cntError							   
00000010 00000220 1020A0E3	      1745 		   mov	     r2,#16						   
         00000224 0A10A0E1	      1746 		   mov	     r1,r10						   
00000108 00000228 420F8DE2	      1747 		   adrl	     r0,sp,AS@ChangePalleteForOR-16			   
                  		      1748 %%CALL									   
00000000 0000022C 000000EB	    E 1749 		   bl	     @btmemset						   
                  		      1750 %%LINE    000095								   
                  		      1751 ;Expr(95): btmemset(seq,0,sizeof(seq))  					   
00000019 00000230 1920A0E3	      1752 		   mov	     r2,#25						   
         00000234 0A10A0E1	      1753 		   mov	     r1,r10						   
000000EC 00000238 EC008DE2	      1754 		   adrl	     r0,sp,AS@ChangePalleteForOR-44			   
                  		      1755 %%CALL									   
00000000 0000023C 000000EB	    E 1756 		   bl	     @btmemset						   
                  		      1757 %%LINE    000097								   
                  		      1758 ;Expr(97): btmemcpy(seq,rcv,20) 						   
00000014 00000240 1420A0E3	      1759 		   mov	     r2,#20						   
00000A94 00000244 48189FE5	      1760 		   ldr	     r1,S__rcv						   


   CROSS ASSEMBLER     V10-L41   (8901)  XASS-V                                           Thu 03-Jan-2019 13:05:27      PAGE-0043
											              ARM               0102
Addr     Location Object-Code	   RE Isn  Source Statement  [ ********                       ]				    Error
  		  1 2 3 4 5 6 7 8	   ....*....1....*....2....*....3....*....4....*....5....*....6....*....7....*....8
000000EC 00000248 EC008DE2	      1761 		   adrl	     r0,sp,AS@ChangePalleteForOR-44			   
                  		      1762 %%CALL									   
00000000 0000024C 000000EB	    E 1763 		   bl	     @btmemcpy						   
                  		      1764 %%LINE    000098								   
                  		      1765 ;Expr(98): btmemcpy(pallete,rcv+ 20,15) 					   
00000A28 00000250 D0179FE5	      1766 		   ldr	     r1,S_20__rcv					   
0000000F 00000254 0F20A0E3	      1767 		   mov	     r2,#15						   
00000108 00000258 420F8DE2	      1768 		   adrl	     r0,sp,AS@ChangePalleteForOR-16			   
                  		      1769 %%CALL									   
00000000 0000025C 000000EB	    E 1770 		   bl	     @btmemcpy						   
                  		      1771 %%LINE    000100								   
                  		      1772 ;Expr(100): btVibration((1),7,0,1)	   					   
00000001 00000260 0130A0E3	      1773 		   mov	     r3,#1						   
00000000 00000264 0020A0E3	      1774 		   mov	     r2,#0						   
00000007 00000268 0710A0E3	      1775 		   mov	     r1,#7						   
         0000026C 0300A0E1	      1776 		   mov	     r0,r3						   
                  		      1777 %%CALL									   
00000000 00000270 000000EB	    E 1778 		   bl	     @btVibration					   
                  		      1779 %%LINE    000101								   
                  		      1780 ;Expr(101): Beep(0)	   							   
         00000274 0C00A0E1	      1781 		   mov	     r0,r12						   
                  		      1782 %%CALL									   
00000000 00000278 000000EB	    E 1783 		   bl	     @Beep						   
                  		      1784 %%LINE    000102								   
                  		      1785 ;Expr(102): keyCode=StartDisplay("VNN NOK","",seq,pallete,"","","","C: Back")   
                  		            - if -									   
00000A24 0000027C A0079FE5	      1786 		   ldr	     r0,S_S28						   
         00000280 01002DE9	      1787 		   stmfd     sp!,{r0}						   
00000001 00000284 011040E2	      1788 		   sub	     r1,r0,#1		   ; ldr r1,S_S27		   
         00000288 02002DE9	      1789 		   stmfd     sp!,{r1}						   
00000002 0000028C 022040E2	      1790 		   sub	     r2,r0,#2		   ; ldr r2,S_S26		   
         00000290 04002DE9	      1791 		   stmfd     sp!,{r2}						   
00000003 00000294 030040E2	      1792 		   sub	     r0,r0,#3		   ; ldr r0,S_S25		   
         00000298 01002DE9	      1793 		   stmfd     sp!,{r0}						   
00000118 0000029C 463F8DE2	      1794 		   adrl	     r3,sp,AS@ChangePalleteForOR-16+16			   
000000FC 000002A0 FC208DE2	      1795 		   adrl	     r2,sp,AS@ChangePalleteForOR-44+16			   
00000003 000002A4 031041E2	      1796 		   sub	     r1,r1,#3		   ; ldr r1,S_S24		   
00000009 000002A8 090040E2	      1797 		   sub	     r0,r0,#9		   ; ldr r0,S_S23		   
                  		      1798 %%CALL									   
00000000 000002AC 000000EB	    E 1799 		   bl	     @StartDisplay					   
00000A90 000002B0 D8579FE5	      1800 		   ldr	     r5,Btop_59520					   
00000260 000002B4 600285E5	      1801 		   str	     r0,[r5,#608]					   
                  		      1802 %%LINE    000104								   
                  		      1803 ;Expr(104): keyCode==(0019)	   						   
00000010 000002B8 10D08DE2	      1804 		   add	     sp,#16						   
00000260 000002BC 601295E5	      1805 		   ldr	     r1,[r5,#608]					   
00000019 000002C0 190051E3	      1806 		   cmp	     r1,#25						   
000002D0 000002C4 0100001A	      1807 		   bne.x     L52						   
                  		      1808 L63:										   
                  		      1809 ;winch object								   
                  		      1810 ;Expr(105): - 2 								   
                  		      1811 %%SCOPE   init								   
00000001 000002C8 0100E0E3	      1812 		   mvn	     r0,#1						   
000002F8 000002CC 090000EA	      1813 		   b.x	     L61						   


   CROSS ASSEMBLER     V10-L41   (8901)  XASS-V                                           Thu 03-Jan-2019 13:05:27      PAGE-0044
											              ARM               0102
Addr     Location Object-Code	   RE Isn  Source Statement  [ ********                       ]				    Error
  		  1 2 3 4 5 6 7 8	   ....*....1....*....2....*....3....*....4....*....5....*....6....*....7....*....8
                  		      1814 L52:										   
                  		      1815 ; - endif - - if -								   
                  		      1816 %%LINE    000108								   
                  		      1817 ;Expr(108): keyCode==(0019)	   						   
                  		      1818 %%SCOPE   init,cntError							   
00000A90 000002D0 B8579FE5	      1819 		   ldr	     r5,Btop_59520					   
00000260 000002D4 600295E5	      1820 		   ldr	     r0,[r5,#608]					   
00000019 000002D8 190050E3	      1821 		   cmp	     r0,#25						   
000002E8 000002DC 0100001A	      1822 		   bne.x     L57						   
                  		      1823 L62:										   
                  		      1824 ;winch object								   
                  		      1825 ;Expr(109): - 1 								   
                  		      1826 %%SCOPE   init								   
00000000 000002E0 0000E0E3	      1827 		   mvn	     r0,#0						   
000002F8 000002E4 030000EA	      1828 		   b.x	     L61						   
                  		      1829 L57:										   
                  		      1830 %%LINE    000111								   
                  		      1831 ;Expr(111): btstrlen(buf)==12   						   
                  		      1832 %%SCOPE   init,cntError							   
00000AA4 000002E8 B4079FE5	      1833 		   ldr	     r0,S__buf						   
                  		      1834 %%CALL									   
00000000 000002EC 000000EB	    E 1835 		   bl	     @btstrlen						   
0000000C 000002F0 0C0050E3	      1836 		   cmp	     r0,#12						   
00000054 000002F4 56FFFF0A	      1837 		   beq.x     L5							   
                  		      1838 L61:										   
                  		      1839 ; RET									   
                  		      1840 %%LINE    000112								   
                  		      1841 %%SCOPE init									   
                  		      1842 %%EF	     									   
00000118 000002F8 46DF8DE2	      1843 		   add	     sp,#280						   
                  		      1844 %%RESTORE	   R6								   
                  		      1845 %%RESTORE	   R7								   
                  		      1846 %%RESTORE	   R10								   
                  		      1847 %%RESTORE	   R12								   
                  		      1848 %%RETURN									   
         000002FC C09CBDE8	      1849 		   ldmfd     sp!,{r6,r7,r10,r11,r12,pc}				   
         00000300 		      1850 		   bnd	     4							   
                  		      1851 %%FEND    									   
                  		      1852 ;	   cntError -> regid  8	    int						   
                  		      1853 ;	   pallete -> offset -16    array					   
                  		      1854 ;	   seq -> offset -44	    array					   
                  		      1855 ;	   set -> offset -276	    struct					   
                  		      1856 %%LINE    000115								   
                  		      1857 %%FUNC    FindBoxLostInPallete,3,cls=2,type=5,ftype=1			   
                  		      1858 %%RVALUE  kind=direct,register=R0,atype=2					   
                  		      1859 @FindBoxLostInPallete: ;entry						   
         00000300 C05C2DE9	      1860 		   stmfd     sp!,{r6,r7,r10,r11,r12,lr}				   
         00000304 0DB0A0E1	      1861 		   mov	     r11,sp						   
                  		      1862 %%SAVE  R6,kind=direct,base=R11,offset=0,atype=6				   
                  		      1863 %%SAVE  R7,kind=direct,base=R11,offset=4,atype=6				   
                  		      1864 %%SAVE  R10,kind=direct,base=R11,offset=8,atype=6				   
                  		      1865 %%SAVE  R12,kind=direct,base=R11,offset=16,atype=6				   
000000F4 00000308 F4D04DE2	      1866 		   sub	     sp,#244						   
00007800 0000030C 1EDB4DE2	      1867 		   sub	     sp,#30720						   


   CROSS ASSEMBLER     V10-L41   (8901)  XASS-V                                           Thu 03-Jan-2019 13:05:27      PAGE-0045
											              ARM               0102
Addr     Location Object-Code	   RE Isn  Source Statement  [ ********                       ]				    Error
  		  1 2 3 4 5 6 7 8	   ....*....1....*....2....*....3....*....4....*....5....*....6....*....7....*....8
000078F4          		      1868 AS@FindBoxLostInPallete set	   30964	   ; stack frame total size	   
                  		      1869 %%BF	     									   
                  		      1870 %%SYM     ret,0,type=5,size=4,cls=6,val=0,delete 				   
                  		      1871 %%SYM     cntError,0,type=5,cls=1,reg=R7,val=0,size=4			   
                  		      1872 %%SYM     totalBox,0,type=5,cls=6,val=-4,size=4				   
                  		      1873 %%SYM     boxScan,0,type=5,cls=6,val=-8,size=4				   
                  		      1874 %%SYM     seq,0,type=2,size=25,cls=6,val=0,delete 				   
                  		      1875 %%SYM     pallete,0,type=2,size=16,cls=6,val=0,delete 			   
                  		      1876 %%SYM     boxes,0,type=2,cls=6,val=-10248,size=10240				   
                  		      1877 %%DTY     									   
                  		      1878 %%DAR     1,10240								   
                  		      1879 %%ENDD    									   
                  		      1880 %%SYM     boxesTemp,0,type=2,cls=6,val=-20488,size=10240			   
                  		      1881 %%DTY     									   
                  		      1882 %%DAR     1,10240								   
                  		      1883 %%ENDD    									   
                  		      1884 %%SYM     Test,0,type=2,cls=6,val=-30728,size=10240				   
                  		      1885 %%DTY     									   
                  		      1886 %%DAR     1,10240								   
                  		      1887 %%ENDD    									   
                  		      1888 %%SYM     Test2,0,type=2,size=10240,cls=6,val=0,delete 			   
                  		      1889 %%SYM     r,0,type=2,size=4,cls=6,val=0,delete 				   
                  		      1890 %%SYM     pointer,0,type=2,size=4,cls=6,val=0,delete 			   
                  		      1891 %%SYM     posBox,0,type=5,size=4,cls=6,val=0,delete 				   
                  		      1892 %%SYM     Cancel,0,type=5,size=4,cls=6,val=0,delete 				   
                  		      1893 %%SYM     set,0,sym=89,cls=6,val=-30960,size=232				   
                  		      1894 %%SCOPE   init								   
00000000 00000310 00C0A0E3	      1895 		   mov	     r12,#0						   
00000000 00000314 00A0A0E3	      1896 		   mov	     r10,#0						   
00000004 00000318 04608DE2	      1897 		   adrl	     r6,sp,AS@FindBoxLostInPallete-30960		   
                  		      1898 %%LINE    000116								   
                  		      1899 ;Expr(116): 0   								   
                  		      1900 %%SCOPE   init								   
         0000031C 0A70A0E1	      1901 		   mov	     r7,r10						   
                  		      1902 %%LINE    000127								   
                  		      1903 ;Expr(127): btmemset(loc,0,sizeof(loc)) 					   
                  		      1904 %%SCOPE   on,cntError							   
00000004 00000320 0420A0E3	      1905 		   mov	     r2,#4						   
         00000324 0C10A0E1	      1906 		   mov	     r1,r12						   
00000A38 00000328 08079FE5	      1907 		   ldr	     r0,S__loc						   
                  		      1908 %%CALL									   
00000000 0000032C 000000EB	    E 1909 		   bl	     @btmemset						   
                  		      1910 %%LINE    000128								   
                  		      1911 ;Expr(128): btmemset(userId,0,sizeof(userId))   				   
0000000A 00000330 0A20A0E3	      1912 		   mov	     r2,#10						   
         00000334 0C10A0E1	      1913 		   mov	     r1,r12						   
00000A34 00000338 F4069FE5	      1914 		   ldr	     r0,S__userId					   
                  		      1915 %%CALL									   
00000000 0000033C 000000EB	    E 1916 		   bl	     @btmemset						   
                  		      1917 %%LINE    000130								   
                  		      1918 ;Expr(130): MasterFind("location",loc)  					   
00000A38 00000340 F0169FE5	      1919 		   ldr	     r1,S__loc						   
00000A30 00000344 E4069FE5	      1920 		   ldr	     r0,S_S29						   
                  		      1921 %%CALL									   


   CROSS ASSEMBLER     V10-L41   (8901)  XASS-V                                           Thu 03-Jan-2019 13:05:27      PAGE-0046
											              ARM               0102
Addr     Location Object-Code	   RE Isn  Source Statement  [ ********                       ]				    Error
  		  1 2 3 4 5 6 7 8	   ....*....1....*....2....*....3....*....4....*....5....*....6....*....7....*....8
00000000 00000348 000000EB	    E 1922 		   bl	     @MasterFind					   
                  		      1923 %%LINE    000131								   
                  		      1924 ;Expr(131): MasterFind("user",userId)   					   
00000A34 0000034C E0169FE5	      1925 		   ldr	     r1,S__userId					   
00000A2C 00000350 D4069FE5	      1926 		   ldr	     r0,S_S30						   
                  		      1927 %%CALL									   
00000000 00000354 000000EB	    E 1928 		   bl	     @MasterFind					   
                  		      1929 L69:										   
                  		      1930 %%LINE    000136								   
                  		      1931 ;Expr(136): btmemset(buf,0,sizeof(buf)) 					   
                  		      1932 %%SCOPE   init,cntError							   
00000080 00000358 8020A0E3	      1933 		   mov	     r2,#128						   
         0000035C 0C10A0E1	      1934 		   mov	     r1,r12						   
00000AA4 00000360 3C079FE5	      1935 		   ldr	     r0,S__buf						   
                  		      1936 %%CALL									   
00000000 00000364 000000EB	    E 1937 		   bl	     @btmemset						   
                  		      1938 %%LINE    000137								   
                  		      1939 ;Expr(137): btmemset(&set,0,sizeof(set))	   				   
000000E8 00000368 E820A0E3	      1940 		   mov	     r2,#232						   
         0000036C 0C10A0E1	      1941 		   mov	     r1,r12						   
         00000370 0600A0E1	      1942 		   mov	     r0,r6						   
                  		      1943 %%CALL									   
00000000 00000374 000000EB	    E 1944 		   bl	     @btmemset						   
                  		      1945 %%LINE    000138								   
                  		      1946 ;Expr(138): set.mode=1  							   
00000001 00000378 0100A0E3	      1947 		   mov	     r0,#1						   
00000000 0000037C 000086E5	      1948 		   str	     r0,[r6,#0]						   
                  		      1949 %%LINE    000139								   
                  		      1950 ;Expr(139): set.buffer=buf	   						   
00000AA4 00000380 1C179FE5	      1951 		   ldr	     r1,S__buf						   
000000AC 00000384 AC1086E5	      1952 		   str	     r1,[r6,#172]					   
                  		      1953 %%LINE    000140								   
                  		      1954 ;Expr(140): set.bufsize=sizeof(buf)	   					   
00000080 00000388 8020A0E3	      1955 		   mov	     r2,#128						   
000000B0 0000038C B02086E5	      1956 		   str	     r2,[r6,#176]					   
                  		      1957 %%LINE    000142								   
                  		      1958 ;Expr(142): btstrcpy(set.title,"VNN NOK")	   				   
00000004 00000390 040096E2	      1959 		   adds	     r0,r6,#4						   
00000A44 00000394 A8169FE5	      1960 		   ldr	     r1,S_S31						   
                  		      1961 %%CALL									   
00000000 00000398 000000EB	    E 1962 		   bl	     @btstrcpy						   
                  		      1963 %%LINE    000143								   
                  		      1964 ;Expr(143): btstrcpy(set.l1,"Quet 1 thung bat ky")	   			   
00000019 0000039C 190096E2	      1965 		   adds	     r0,r6,#25						   
00000A40 000003A0 98169FE5	      1966 		   ldr	     r1,S_S32						   
                  		      1967 %%CALL									   
00000000 000003A4 000000EB	    E 1968 		   bl	     @btstrcpy						   
                  		      1969 %%LINE    000144								   
                  		      1970 ;Expr(144): btstrcpy(set.l2,"") 						   
0000002E 000003A8 2E0096E2	      1971 		   adds	     r0,r6,#46						   
00000A3C 000003AC 88169FE5	      1972 		   ldr	     r1,S_S33						   
                  		      1973 %%CALL									   
00000000 000003B0 000000EB	    E 1974 		   bl	     @btstrcpy						   
                  		      1975 %%LINE    000146								   


   CROSS ASSEMBLER     V10-L41   (8901)  XASS-V                                           Thu 03-Jan-2019 13:05:27      PAGE-0047
											              ARM               0102
Addr     Location Object-Code	   RE Isn  Source Statement  [ ********                       ]				    Error
  		  1 2 3 4 5 6 7 8	   ....*....1....*....2....*....3....*....4....*....5....*....6....*....7....*....8
                  		      1976 ;Expr(146): ret=DataInputBt(&set)	    - if -				   
         000003B4 0600A0E1	      1977 		   mov	     r0,r6						   
                  		      1978 %%CALL									   
00000000 000003B8 000000EB	    E 1979 		   bl	     @DataInputBt					   
                  		      1980 %%LINE    000148								   
                  		      1981 ;Expr(148): ret 								   
00000000 000003BC 000050E3	      1982 		   cmp	     r0,#0						   
000009D8 000003C0 8401001A	      1983 		   bne.x     L202						   
                  		      1984 ; - endif - - if -								   
                  		      1985 %%LINE    000151								   
                  		      1986 ;Expr(151): btmemcmp(buf,"V",1) 						   
                  		      1987 %%SCOPE   init,cntError							   
00000001 000003C4 0120A0E3	      1988 		   mov	     r2,#1						   
00000A48 000003C8 78169FE5	      1989 		   ldr	     r1,S_S34						   
00000AA4 000003CC D0069FE5	      1990 		   ldr	     r0,S__buf						   
                  		      1991 %%CALL									   
00000000 000003D0 000000EB	    E 1992 		   bl	     @btmemcmp						   
00000000 000003D4 000050E3	      1993 		   cmp	     r0,#0						   
0000044C 000003D8 1B00000A	      1994 		   beq.x     L91						   
                  		      1995 %%LINE    000153								   
                  		      1996 ;Expr(153): Buzzer()	   							   
                  		      1997 %%SCOPE   init,cntError							   
                  		      1998 %%CALL									   
00000000 000003DC 000000EB	    E 1999 		   bl	     @Buzzer						   
                  		      2000 %%LINE    000154								   
                  		      2001 ;Expr(154): cntError++  							   
00000001 000003E0 017097E2	      2002 		   adds	     r7,r7,#1						   
                  		      2003 L77:										   
                  		      2004 ; - do -									   
                  		      2005 %%LINE    000158								   
                  		      2006 ;Expr(158): keyCode=StartDisplay("VNN NOK","Loi:","Quet khong dung","ma vach thu
                  		           ng!","","","C: Thoat","ENT: Quet Lai")   - if -				   
                  		      2007 %%SCOPE   init,cntError							   
00000A4C 000003E4 60069FE5	      2008 		   ldr	     r0,S_S42						   
         000003E8 01002DE9	      2009 		   stmfd     sp!,{r0}						   
00000009 000003EC 091040E2	      2010 		   sub	     r1,r0,#9		   ; ldr r1,S_S41		   
         000003F0 02002DE9	      2011 		   stmfd     sp!,{r1}						   
0000000A 000003F4 0A2040E2	      2012 		   sub	     r2,r0,#10		   ; ldr r2,S_S40		   
         000003F8 04002DE9	      2013 		   stmfd     sp!,{r2}						   
0000000B 000003FC 0B0040E2	      2014 		   sub	     r0,r0,#11		   ; ldr r0,S_S39		   
         00000400 01002DE9	      2015 		   stmfd     sp!,{r0}						   
0000000F 00000404 0F3040E2	      2016 		   sub	     r3,r0,#15		   ; ldr r3,S_S38		   
00000020 00000408 202042E2	      2017 		   sub	     r2,r2,#32		   ; ldr r2,S_S37		   
00000026 0000040C 261041E2	      2018 		   sub	     r1,r1,#38		   ; ldr r1,S_S36		   
0000002C 00000410 2C0040E2	      2019 		   sub	     r0,r0,#44		   ; ldr r0,S_S35		   
                  		      2020 %%CALL									   
00000000 00000414 000000EB	    E 2021 		   bl	     @StartDisplay					   
00000A90 00000418 70569FE5	      2022 		   ldr	     r5,Btop_59520					   
00000260 0000041C 600285E5	      2023 		   str	     r0,[r5,#608]					   
                  		      2024 %%LINE    000160								   
                  		      2025 ;Expr(160): keyCode==(0019)	   						   
00000010 00000420 10D08DE2	      2026 		   add	     sp,#16						   
00000260 00000424 601295E5	      2027 		   ldr	     r1,[r5,#608]					   
00000019 00000428 190051E3	      2028 		   cmp	     r1,#25						   


   CROSS ASSEMBLER     V10-L41   (8901)  XASS-V                                           Thu 03-Jan-2019 13:05:27      PAGE-0048
											              ARM               0102
Addr     Location Object-Code	   RE Isn  Source Statement  [ ********                       ]				    Error
  		  1 2 3 4 5 6 7 8	   ....*....1....*....2....*....3....*....4....*....5....*....6....*....7....*....8
0000094C 0000042C 4601000A	      2029 		   beq.x     L203						   
                  		      2030 %%LINE    000163								   
                  		      2031 ;Expr(163): keyCode!=(000d)	   						   
                  		      2032 %%SCOPE   init,cntError							   
00000260 00000430 600295E5	      2033 		   ldr	     r0,[r5,#608]					   
0000000D 00000434 0D0050E3	      2034 		   cmp	     r0,#13						   
000003E4 00000438 E9FFFF1A	      2035 		   bne.x     L77						   
                  		      2036 %%LINE    000165								   
                  		      2037 ;Expr(165): keyCode=0    - if -						   
                  		      2038 %%SCOPE   init,cntError							   
00000260 0000043C 60A285E5	      2039 		   str	     r10,[r5,#608]					   
                  		      2040 %%LINE    000167								   
                  		      2041 ;Expr(167): cntError>2  							   
00000002 00000440 020057E3	      2042 		   cmp	     r7,#2						   
00000358 00000444 C3FFFFDA	      2043 		   ble.x     L69						   
000009D8 00000448 620100EA	      2044 		   b.x	     L202						   
                  		      2045 L91:										   
                  		      2046 ; - endif -									   
                  		      2047 %%LINE    000172								   
                  		      2048 ;Expr(172): cntError=0  							   
                  		      2049 %%SCOPE   init								   
         0000044C 0A70A0E1	      2050 		   mov	     r7,r10						   
                  		      2051 %%LINE    000173								   
                  		      2052 ;Expr(173): ret=CheckDataByType(loc,buf,3)	    - if -			   
                  		      2053 %%SCOPE   on,cntError							   
00000003 00000450 0320A0E3	      2054 		   mov	     r2,#3						   
00000AA4 00000454 48169FE5	      2055 		   ldr	     r1,S__buf						   
00000084 00000458 840081E2	      2056 		   add	     r0,r1,#132		   ; ldr r0,S__loc		   
                  		      2057 %%CALL									   
00000000 0000045C 000000EB	    E 2058 		   bl	     @CheckDataByType					   
                  		      2059 %%LINE    000175								   
                  		      2060 ;Expr(175): ret 								   
00000000 00000460 000050E3	      2061 		   cmp	     r0,#0						   
000004D0 00000464 1900000A	      2062 		   beq.x     L109						   
                  		      2063 %%LINE    000177								   
                  		      2064 ;Expr(177): Buzzer()	   							   
                  		      2065 %%SCOPE   init								   
                  		      2066 %%CALL									   
00000000 00000468 000000EB	    E 2067 		   bl	     @Buzzer						   
                  		      2068 %%LINE    000178								   
                  		      2069 ;Expr(178): cntError++  							   
00000001 0000046C 0170A0E3	      2070 		   mov	     r7,#1						   
                  		      2071 L95:										   
                  		      2072 ; - do -									   
                  		      2073 %%LINE    000182								   
                  		      2074 ;Expr(182): keyCode=StartDisplay("VNN NOK","Loi:","Quet sai thung",loc,"",buf,"C
                  		           : Thoat","ENT: Quet Lai")	    - if -					   
                  		      2075 %%SCOPE   init,cntError							   
00000A50 00000470 D8059FE5	      2076 		   ldr	     r0,S_S48						   
         00000474 01002DE9	      2077 		   stmfd     sp!,{r0}						   
00000009 00000478 091040E2	      2078 		   sub	     r1,r0,#9		   ; ldr r1,S_S47		   
         0000047C 02002DE9	      2079 		   stmfd     sp!,{r1}						   
00000AA4 00000480 1C269FE5	      2080 		   ldr	     r2,S__buf						   
         00000484 04002DE9	      2081 		   stmfd     sp!,{r2}						   


   CROSS ASSEMBLER     V10-L41   (8901)  XASS-V                                           Thu 03-Jan-2019 13:05:27      PAGE-0049
											              ARM               0102
Addr     Location Object-Code	   RE Isn  Source Statement  [ ********                       ]				    Error
  		  1 2 3 4 5 6 7 8	   ....*....1....*....2....*....3....*....4....*....5....*....6....*....7....*....8
0000000A 00000488 0A0040E2	      2082 		   sub	     r0,r0,#10		   ; ldr r0,S_S46		   
         0000048C 01002DE9	      2083 		   stmfd     sp!,{r0}						   
00000084 00000490 843082E2	      2084 		   add	     r3,r2,#132		   ; ldr r3,S__loc		   
0000000F 00000494 0F2040E2	      2085 		   sub	     r2,r0,#15		   ; ldr r2,S_S45		   
00000015 00000498 151041E2	      2086 		   sub	     r1,r1,#21		   ; ldr r1,S_S44		   
0000001C 0000049C 1C0040E2	      2087 		   sub	     r0,r0,#28		   ; ldr r0,S_S43		   
                  		      2088 %%CALL									   
00000000 000004A0 000000EB	    E 2089 		   bl	     @StartDisplay					   
00000A90 000004A4 E4559FE5	      2090 		   ldr	     r5,Btop_59520					   
00000260 000004A8 600285E5	      2091 		   str	     r0,[r5,#608]					   
                  		      2092 %%LINE    000183								   
                  		      2093 ;Expr(183): keyCode==(0019)	   						   
00000010 000004AC 10D08DE2	      2094 		   add	     sp,#16						   
00000260 000004B0 601295E5	      2095 		   ldr	     r1,[r5,#608]					   
00000019 000004B4 190051E3	      2096 		   cmp	     r1,#25						   
0000094C 000004B8 2301000A	      2097 		   beq.x     L203						   
                  		      2098 %%LINE    000185								   
                  		      2099 ;Expr(185): keyCode!=(000d)	   						   
                  		      2100 %%SCOPE   init,cntError							   
00000260 000004BC 600295E5	      2101 		   ldr	     r0,[r5,#608]					   
0000000D 000004C0 0D0050E3	      2102 		   cmp	     r0,#13						   
00000470 000004C4 E9FFFF1A	      2103 		   bne.x     L95						   
                  		      2104 %%LINE    000187								   
                  		      2105 ;Expr(187): keyCode=0    - if -						   
                  		      2106 %%SCOPE   init,cntError							   
00000260 000004C8 60A285E5	      2107 		   str	     r10,[r5,#608]					   
00000358 000004CC A1FFFFEA	      2108 		   b.x	     L69						   
                  		      2109 L109:									   
                  		      2110 ; - endif -									   
                  		      2111 %%LINE    000195								   
                  		      2112 ;Expr(195): btmemset(send,0,sizeof(send))	   				   
                  		      2113 %%SCOPE   init,cntError							   
00000AA0 000004D0 C8259FE5	      2114 		   ldr	     r2,S_30000						   
         000004D4 0C10A0E1	      2115 		   mov	     r1,r12						   
00000A9C 000004D8 BC059FE5	      2116 		   ldr	     r0,S__send						   
                  		      2117 %%CALL									   
00000000 000004DC 000000EB	    E 2118 		   bl	     @btmemset						   
                  		      2119 %%LINE    000196								   
                  		      2120 ;Expr(196): MakeDataToSend("M203","",buf,send)  				   
00000A9C 000004E0 B4359FE5	      2121 		   ldr	     r3,S__send						   
00000AA4 000004E4 B8259FE5	      2122 		   ldr	     r2,S__buf						   
00000A54 000004E8 64159FE5	      2123 		   ldr	     r1,S_S50						   
00000005 000004EC 050041E2	      2124 		   sub	     r0,r1,#5		   ; ldr r0,S_S49		   
                  		      2125 %%CALL									   
00000000 000004F0 000000EB	    E 2126 		   bl	     @MakeDataToSend					   
                  		      2127 %%LINE    000198								   
                  		      2128 ;Expr(198): ret=DataSend(send,btstrlen(send),rcv,sizeof(rcv),(0))	    - if - 
         000004F4 00042DE9	      2129 		   stmfd     sp!,{r10}						   
00000A9C 000004F8 9C059FE5	      2130 		   ldr	     r0,S__send						   
                  		      2131 %%CALL									   
00000000 000004FC 000000EB	    E 2132 		   bl	     @btstrlen						   
00000004 00000500 04008DE5	      2133 		   str	     r0,[sp,#AS@FindBoxLostInPallete-30964+4]		   
00000AA0 00000504 94359FE5	      2134 		   ldr	     r3,S_30000						   
00000A94 00000508 84259FE5	      2135 		   ldr	     r2,S__rcv						   


   CROSS ASSEMBLER     V10-L41   (8901)  XASS-V                                           Thu 03-Jan-2019 13:05:27      PAGE-0050
											              ARM               0102
Addr     Location Object-Code	   RE Isn  Source Statement  [ ********                       ]				    Error
  		  1 2 3 4 5 6 7 8	   ....*....1....*....2....*....3....*....4....*....5....*....6....*....7....*....8
         0000050C 0010A0E1	      2136 		   mov	     r1,r0						   
00000A9C 00000510 84059FE5	      2137 		   ldr	     r0,S__send						   
                  		      2138 %%CALL									   
00000000 00000514 000000EB	    E 2139 		   bl	     @DataSend						   
                  		      2140 %%LINE    000200								   
                  		      2141 ;Expr(200): ret==1	   							   
00000004 00000518 04D08DE2	      2142 		   add	     sp,#4						   
00000001 0000051C 010050E3	      2143 		   cmp	     r0,#1						   
000009D8 00000520 2C01000A	      2144 		   beq.x     L202						   
                  		      2145 ; - endif -									   
                  		      2146 %%LINE    000204								   
                  		      2147 ;Expr(204): btmemcpy(boxes,rcv,sizeof(boxes))   				   
                  		      2148 %%SCOPE   init,cntError							   
00002800 00000524 0A2BA0E3	      2149 		   mov	     r2,#10240						   
00000A94 00000528 64159FE5	      2150 		   ldr	     r1,S__rcv						   
000050EC 0000052C 050A8DE2EC0080E2    2151 		   adrl	     r0,sp,AS@FindBoxLostInPallete-10248		   
                  		      2152 %%CALL									   
00000000 00000534 000000EB	    E 2153 		   bl	     @btmemcpy						   
                  		      2154 %%LINE    000206								   
                  		      2155 ;Expr(206): totalBox=btstrlen((char*)boxes)/15   - if -			   
000050EC 00000538 050A8DE2EC0080E2    2156 		   adrl	     r0,sp,AS@FindBoxLostInPallete-10248		   
                  		      2157 %%CALL									   
00000000 00000540 000000EB	    E 2158 		   bl	     @btstrlen						   
0000000F 00000544 0F10A0E3	      2159 		   mov	     r1,#15						   
00000000 00000548 000000EB	    E 2160 		   bl	     cslldiv						   
000078F0 0000054C 3C4F8DE21E4B84E2    2161 		   adrl	     r4,sp,AS@FindBoxLostInPallete-4			   
00000000 00000554 000084E5	      2162 		   str	     r0,[r4,#0]						   
                  		      2163 %%LINE    000208								   
                  		      2164 ;Expr(208): totalBox>0  							   
         00000558 0A0050E1	      2165 		   cmp	     r0,r10						   
000009E0 0000055C 1F0100DA	      2166 		   ble.x     L195						   
                  		      2167 ; - then -									   
                  		      2168 %%LINE    000211								   
                  		      2169 ;Expr(211): btsprintf(msg,"Total Box: %ld/%ld",boxScan,totalBox)	   	   
                  		      2170 %%SCOPE   init,cntError							   
         00000560 01002DE9	      2171 		   stmfd     sp!,{r0}						   
00000001 00000564 0110A0E3	      2172 		   mov	     r1,#1						   
         00000568 02002DE9	      2173 		   stmfd     sp!,{r1}						   
00000A68 0000056C F4249FE5	      2174 		   ldr	     r2,S_S51						   
         00000570 04002DE9	      2175 		   stmfd     sp!,{r2}						   
00000A88 00000574 0C059FE5	      2176 		   ldr	     r0,S__msg						   
         00000578 01002DE9	      2177 		   stmfd     sp!,{r0}						   
                  		      2178 %%CALL									   
00000000 0000057C 000000EB	    E 2179 		   bl	     @btsprintf						   
                  		      2180 %%LINE    000212								   
                  		      2181 ;Expr(212): btmemset(boxesTemp,0,sizeof(boxesTemp))	   			   
00002800 00000580 0A2BA0E3	      2182 		   mov	     r2,#10240						   
         00000584 0C10A0E1	      2183 		   mov	     r1,r12						   
000028FC 00000588 0A0B8DE2FC0080E2    2184 		   adrl	     r0,sp,AS@FindBoxLostInPallete-20488+16		   
                  		      2185 %%CALL									   
00000000 00000590 000000EB	    E 2186 		   bl	     @btmemset						   
                  		      2187 %%LINE    000214								   
                  		      2188 ;Expr(214): btsprintf(boxesTemp,"%s",buf)	   				   
00000AA4 00000594 08059FE5	      2189 		   ldr	     r0,S__buf						   


   CROSS ASSEMBLER     V10-L41   (8901)  XASS-V                                           Thu 03-Jan-2019 13:05:27      PAGE-0051
											              ARM               0102
Addr     Location Object-Code	   RE Isn  Source Statement  [ ********                       ]				    Error
  		  1 2 3 4 5 6 7 8	   ....*....1....*....2....*....3....*....4....*....5....*....6....*....7....*....8
         00000598 01002DE9	      2190 		   stmfd     sp!,{r0}						   
00000A64 0000059C C0149FE5	      2191 		   ldr	     r1,S_S52						   
         000005A0 02002DE9	      2192 		   stmfd     sp!,{r1}						   
00002904 000005A4 04208DE2292C82E2    2193 		   adrl	     r2,sp,AS@FindBoxLostInPallete-20488+24		   
         000005AC 04002DE9	      2194 		   stmfd     sp!,{r2}						   
                  		      2195 %%CALL									   
00000000 000005B0 000000EB	    E 2196 		   bl	     @btsprintf						   
                  		      2197 %%LINE    000215								   
                  		      2198 ;Expr(215): boxScan=2   							   
00000002 000005B4 0200A0E3	      2199 		   mov	     r0,#2						   
00007908 000005B8 08408DE2794C84E2    2200 		   adrl	     r4,sp,AS@FindBoxLostInPallete-8+28			   
00000000 000005C0 000084E5	      2201 		   str	     r0,[r4,#0]						   
                  		      2202 %%LINE    000217								   
                  		      2203 ;Expr(217): btmemset(&set,0,sizeof(set))	   				   
000000E8 000005C4 E820A0E3	      2204 		   mov	     r2,#232						   
         000005C8 0C10A0E1	      2205 		   mov	     r1,r12						   
         000005CC 0600A0E1	      2206 		   mov	     r0,r6						   
                  		      2207 %%CALL									   
00000000 000005D0 000000EB	    E 2208 		   bl	     @btmemset						   
                  		      2209 %%LINE    000218								   
                  		      2210 ;Expr(218): set.mode=1  							   
00000001 000005D4 0100A0E3	      2211 		   mov	     r0,#1						   
00000000 000005D8 000086E5	      2212 		   str	     r0,[r6,#0]						   
                  		      2213 %%LINE    000219								   
                  		      2214 ;Expr(219): set.buffer=buf	   						   
00000AA4 000005DC C0149FE5	      2215 		   ldr	     r1,S__buf						   
000000AC 000005E0 AC1086E5	      2216 		   str	     r1,[r6,#172]					   
                  		      2217 %%LINE    000220								   
                  		      2218 ;Expr(220): set.bufsize=sizeof(buf)	   					   
00000080 000005E4 8020A0E3	      2219 		   mov	     r2,#128						   
000000B0 000005E8 B02086E5	      2220 		   str	     r2,[r6,#176]					   
                  		      2221 %%LINE    000221								   
                  		      2222 ;Expr(221): btstrcpy(set.l1,"Quet tat ca thung")	   			   
00000019 000005EC 190096E2	      2223 		   adds	     r0,r6,#25						   
00000A60 000005F0 68149FE5	      2224 		   ldr	     r1,S_S53						   
                  		      2225 %%CALL									   
00000000 000005F4 000000EB	    E 2226 		   bl	     @btstrcpy						   
                  		      2227 %%LINE    000222								   
                  		      2228 ;Expr(222): btstrcpy(set.l2,"") 						   
0000002E 000005F8 2E0096E2	      2229 		   adds	     r0,r6,#46						   
00000A5C 000005FC 58149FE5	      2230 		   ldr	     r1,S_S54						   
                  		      2231 %%CALL									   
00000000 00000600 000000EB	    E 2232 		   bl	     @btstrcpy						   
                  		      2233 %%LINE    000223								   
                  		      2234 ;Expr(223): btstrcpy(set.l3,"") 						   
00000043 00000604 430096E2	      2235 		   adds	     r0,r6,#67						   
00000A58 00000608 48149FE5	      2236 		   ldr	     r1,S_S55						   
                  		      2237 %%CALL									   
00000000 0000060C 000000EB	    E 2238 		   bl	     @btstrcpy						   
                  		      2239 %%LINE    000224								   
                  		      2240 ;Expr(224): btstrcpy(set.l4,msg)	   					   
00000058 00000610 580096E2	      2241 		   adds	     r0,r6,#88						   
00000A88 00000614 6C149FE5	      2242 		   ldr	     r1,S__msg						   
                  		      2243 %%CALL									   


   CROSS ASSEMBLER     V10-L41   (8901)  XASS-V                                           Thu 03-Jan-2019 13:05:27      PAGE-0052
											              ARM               0102
Addr     Location Object-Code	   RE Isn  Source Statement  [ ********                       ]				    Error
  		  1 2 3 4 5 6 7 8	   ....*....1....*....2....*....3....*....4....*....5....*....6....*....7....*....8
00000000 00000618 000000EB	    E 2244 		   bl	     @btstrcpy						   
0000001C 0000061C 1CD08DE2	      2245 		   add	     sp,#28						   
                  		      2246 L118:									   
                  		      2247 %%LINE    000229								   
                  		      2248 ;Expr(229): btsprintf(msg,"Total Box: %ld/%ld",boxScan- 1,totalBox)	   	   
                  		      2249 %%SCOPE   init,cntError							   
000078F0 00000620 3C4F8DE21E4B84E2    2250 		   adrl	     r4,sp,AS@FindBoxLostInPallete-4			   
00000000 00000628 000094E5	      2251 		   ldr	     r0,[r4,#0]						   
         0000062C 01002DE9	      2252 		   stmfd     sp!,{r0}						   
000078F0 00000630 3C4F8DE21E4B84E2    2253 		   adrl	     r4,sp,AS@FindBoxLostInPallete-8+4			   
00000000 00000638 001094E5	      2254 		   ldr	     r1,[r4,#0]						   
00000001 0000063C 011051E2	      2255 		   subs	     r1,r1,#1						   
         00000640 02002DE9	      2256 		   stmfd     sp!,{r1}						   
00000A6C 00000644 20049FE5	      2257 		   ldr	     r0,S_S56						   
         00000648 01002DE9	      2258 		   stmfd     sp!,{r0}						   
00000A88 0000064C 34149FE5	      2259 		   ldr	     r1,S__msg						   
         00000650 02002DE9	      2260 		   stmfd     sp!,{r1}						   
                  		      2261 %%CALL									   
00000000 00000654 000000EB	    E 2262 		   bl	     @btsprintf						   
                  		      2263 %%LINE    000231								   
                  		      2264 ;Expr(231): btstrcpy(set.l4,msg)	   					   
00000058 00000658 580096E2	      2265 		   adds	     r0,r6,#88						   
00000A88 0000065C 24149FE5	      2266 		   ldr	     r1,S__msg						   
                  		      2267 %%CALL									   
00000000 00000660 000000EB	    E 2268 		   bl	     @btstrcpy						   
                  		      2269 %%LINE    000232								   
                  		      2270 ;Expr(232): btmemset(buf,0,sizeof(buf)) 					   
00000080 00000664 8020A0E3	      2271 		   mov	     r2,#128						   
         00000668 0C10A0E1	      2272 		   mov	     r1,r12						   
00000AA4 0000066C 30049FE5	      2273 		   ldr	     r0,S__buf						   
                  		      2274 %%CALL									   
00000000 00000670 000000EB	    E 2275 		   bl	     @btmemset						   
                  		      2276 %%LINE    000233								   
                  		      2277 ;Expr(233): ret=DataInputBt(&set)	    - if -				   
         00000674 0600A0E1	      2278 		   mov	     r0,r6						   
                  		      2279 %%CALL									   
00000000 00000678 000000EB	    E 2280 		   bl	     @DataInputBt					   
                  		      2281 %%LINE    000235								   
                  		      2282 ;Expr(235): ret==- 1	   							   
00000010 0000067C 10D08DE2	      2283 		   add	     sp,#16						   
00000000 00000680 0010E0E3	      2284 		   mvn	     r1,#0						   
         00000684 010050E1	      2285 		   cmp	     r0,r1						   
000008AC 00000688 8700000A	      2286 		   beq.x     L177						   
                  		      2287 ; - endif -									   
                  		      2288 %%LINE    000242								   
                  		      2289 ;Expr(242): ret=CheckDataByType(loc,buf,3)	    - if -			   
                  		      2290 %%SCOPE   init,cntError							   
00000003 0000068C 0320A0E3	      2291 		   mov	     r2,#3						   
00000AA4 00000690 0C149FE5	      2292 		   ldr	     r1,S__buf						   
00000084 00000694 840081E2	      2293 		   add	     r0,r1,#132		   ; ldr r0,S__loc		   
                  		      2294 %%CALL									   
00000000 00000698 000000EB	    E 2295 		   bl	     @CheckDataByType					   
                  		      2296 %%LINE    000244								   
                  		      2297 ;Expr(244): ret 								   


   CROSS ASSEMBLER     V10-L41   (8901)  XASS-V                                           Thu 03-Jan-2019 13:05:27      PAGE-0053
											              ARM               0102
Addr     Location Object-Code	   RE Isn  Source Statement  [ ********                       ]				    Error
  		  1 2 3 4 5 6 7 8	   ....*....1....*....2....*....3....*....4....*....5....*....6....*....7....*....8
00000000 0000069C 000050E3	      2298 		   cmp	     r0,#0						   
00000714 000006A0 1B00000A	      2299 		   beq.x     L140						   
                  		      2300 %%LINE    000246								   
                  		      2301 ;Expr(246): Buzzer()	   							   
                  		      2302 %%SCOPE   init,cntError							   
                  		      2303 %%CALL									   
00000000 000006A4 000000EB	    E 2304 		   bl	     @Buzzer						   
                  		      2305 %%LINE    000247								   
                  		      2306 ;Expr(247): cntError++  							   
00000001 000006A8 017097E2	      2307 		   adds	     r7,r7,#1						   
                  		      2308 L126:									   
                  		      2309 ; - do -									   
                  		      2310 %%LINE    000251								   
                  		      2311 ;Expr(251): keyCode=StartDisplay("VNN NOK","Loi:","Quet khong dung","ma vach box
                  		           !","","","C: Thoat","ENT: Quet Lai")	    - if -				   
                  		      2312 %%SCOPE   init,cntError							   
00000A70 000006AC BC039FE5	      2313 		   ldr	     r0,S_S64						   
         000006B0 01002DE9	      2314 		   stmfd     sp!,{r0}						   
00000009 000006B4 091040E2	      2315 		   sub	     r1,r0,#9		   ; ldr r1,S_S63		   
         000006B8 02002DE9	      2316 		   stmfd     sp!,{r1}						   
0000000A 000006BC 0A2040E2	      2317 		   sub	     r2,r0,#10		   ; ldr r2,S_S62		   
         000006C0 04002DE9	      2318 		   stmfd     sp!,{r2}						   
0000000B 000006C4 0B0040E2	      2319 		   sub	     r0,r0,#11		   ; ldr r0,S_S61		   
         000006C8 01002DE9	      2320 		   stmfd     sp!,{r0}						   
0000000D 000006CC 0D3040E2	      2321 		   sub	     r3,r0,#13		   ; ldr r3,S_S60		   
0000001E 000006D0 1E2042E2	      2322 		   sub	     r2,r2,#30		   ; ldr r2,S_S59		   
00000024 000006D4 241041E2	      2323 		   sub	     r1,r1,#36		   ; ldr r1,S_S58		   
0000002A 000006D8 2A0040E2	      2324 		   sub	     r0,r0,#42		   ; ldr r0,S_S57		   
                  		      2325 %%CALL									   
00000000 000006DC 000000EB	    E 2326 		   bl	     @StartDisplay					   
00000A90 000006E0 A8539FE5	      2327 		   ldr	     r5,Btop_59520					   
00000260 000006E4 600285E5	      2328 		   str	     r0,[r5,#608]					   
                  		      2329 %%LINE    000253								   
                  		      2330 ;Expr(253): keyCode==(0019)	   						   
00000010 000006E8 10D08DE2	      2331 		   add	     sp,#16						   
00000260 000006EC 601295E5	      2332 		   ldr	     r1,[r5,#608]					   
00000019 000006F0 190051E3	      2333 		   cmp	     r1,#25						   
0000094C 000006F4 9400000A	      2334 		   beq.x     L203						   
                  		      2335 %%LINE    000255								   
                  		      2336 ;Expr(255): keyCode!=(000d)	   						   
                  		      2337 %%SCOPE   init,cntError							   
00000260 000006F8 600295E5	      2338 		   ldr	     r0,[r5,#608]					   
0000000D 000006FC 0D0050E3	      2339 		   cmp	     r0,#13						   
000006AC 00000700 E9FFFF1A	      2340 		   bne.x     L126						   
                  		      2341 %%LINE    000257								   
                  		      2342 ;Expr(257): keyCode=0    - if -						   
                  		      2343 %%SCOPE   init,cntError							   
00000260 00000704 60A285E5	      2344 		   str	     r10,[r5,#608]					   
                  		      2345 %%LINE    000259								   
                  		      2346 ;Expr(259): cntError>2  							   
00000002 00000708 020057E3	      2347 		   cmp	     r7,#2						   
00000620 0000070C C3FFFFDA	      2348 		   ble.x     L118						   
000009D8 00000710 B00000EA	      2349 		   b.x	     L202						   
                  		      2350 L140:									   


   CROSS ASSEMBLER     V10-L41   (8901)  XASS-V                                           Thu 03-Jan-2019 13:05:27      PAGE-0054
											              ARM               0102
Addr     Location Object-Code	   RE Isn  Source Statement  [ ********                       ]				    Error
  		  1 2 3 4 5 6 7 8	   ....*....1....*....2....*....3....*....4....*....5....*....6....*....7....*....8
                  		      2351 ; - endif -									   
                  		      2352 %%LINE    000266								   
                  		      2353 ;Expr(266): r=btstrstr(boxes,buf)	    - if -				   
                  		      2354 %%SCOPE   init,cntError							   
00000AA4 00000714 88139FE5	      2355 		   ldr	     r1,S__buf						   
000050EC 00000718 050A8DE2EC0080E2    2356 		   adrl	     r0,sp,AS@FindBoxLostInPallete-10248		   
                  		      2357 %%CALL									   
00000000 00000720 000000EB	    E 2358 		   bl	     @btstrstr						   
                  		      2359 %%LINE    000268								   
                  		      2360 ;Expr(268): btstrlen(r)<=0	   						   
                  		      2361 %%CALL									   
00000000 00000724 000000EB	    E 2362 		   bl	     @btstrlen						   
         00000728 0A0050E1	      2363 		   cmp	     r0,r10						   
000007A0 0000072C 1B0000CA	      2364 		   bgt.x     L158						   
                  		      2365 %%LINE    000270								   
                  		      2366 ;Expr(270): Buzzer()	   							   
                  		      2367 %%SCOPE   init,cntError							   
                  		      2368 %%CALL									   
00000000 00000730 000000EB	    E 2369 		   bl	     @Buzzer						   
                  		      2370 %%LINE    000271								   
                  		      2371 ;Expr(271): cntError++  							   
00000001 00000734 017097E2	      2372 		   adds	     r7,r7,#1						   
                  		      2373 L144:									   
                  		      2374 ; - do -									   
                  		      2375 %%LINE    000275								   
                  		      2376 ;Expr(275): keyCode=StartDisplay("VNN NOK","Loi:","Thung nay khong co!","","",""
                  		           ,"C: Thoat","ENT: Quet Lai")	    - if -					   
                  		      2377 %%SCOPE   init,cntError							   
00000A74 00000738 34039FE5	      2378 		   ldr	     r0,S_S72						   
         0000073C 01002DE9	      2379 		   stmfd     sp!,{r0}						   
00000009 00000740 091040E2	      2380 		   sub	     r1,r0,#9		   ; ldr r1,S_S71		   
         00000744 02002DE9	      2381 		   stmfd     sp!,{r1}						   
0000000A 00000748 0A2040E2	      2382 		   sub	     r2,r0,#10		   ; ldr r2,S_S70		   
         0000074C 04002DE9	      2383 		   stmfd     sp!,{r2}						   
0000000B 00000750 0B0040E2	      2384 		   sub	     r0,r0,#11		   ; ldr r0,S_S69		   
         00000754 01002DE9	      2385 		   stmfd     sp!,{r0}						   
00000001 00000758 013040E2	      2386 		   sub	     r3,r0,#1		   ; ldr r3,S_S68		   
00000016 0000075C 162042E2	      2387 		   sub	     r2,r2,#22		   ; ldr r2,S_S67		   
0000001C 00000760 1C1041E2	      2388 		   sub	     r1,r1,#28		   ; ldr r1,S_S66		   
00000022 00000764 220040E2	      2389 		   sub	     r0,r0,#34		   ; ldr r0,S_S65		   
                  		      2390 %%CALL									   
00000000 00000768 000000EB	    E 2391 		   bl	     @StartDisplay					   
00000A90 0000076C 1C539FE5	      2392 		   ldr	     r5,Btop_59520					   
00000260 00000770 600285E5	      2393 		   str	     r0,[r5,#608]					   
                  		      2394 %%LINE    000277								   
                  		      2395 ;Expr(277): keyCode==(0019)	   						   
00000010 00000774 10D08DE2	      2396 		   add	     sp,#16						   
00000260 00000778 601295E5	      2397 		   ldr	     r1,[r5,#608]					   
00000019 0000077C 190051E3	      2398 		   cmp	     r1,#25						   
0000094C 00000780 7100000A	      2399 		   beq.x     L203						   
                  		      2400 %%LINE    000279								   
                  		      2401 ;Expr(279): keyCode!=(000d)	   						   
                  		      2402 %%SCOPE   init,cntError							   
00000260 00000784 600295E5	      2403 		   ldr	     r0,[r5,#608]					   


   CROSS ASSEMBLER     V10-L41   (8901)  XASS-V                                           Thu 03-Jan-2019 13:05:27      PAGE-0055
											              ARM               0102
Addr     Location Object-Code	   RE Isn  Source Statement  [ ********                       ]				    Error
  		  1 2 3 4 5 6 7 8	   ....*....1....*....2....*....3....*....4....*....5....*....6....*....7....*....8
0000000D 00000788 0D0050E3	      2404 		   cmp	     r0,#13						   
00000738 0000078C E9FFFF1A	      2405 		   bne.x     L144						   
                  		      2406 %%LINE    000281								   
                  		      2407 ;Expr(281): keyCode=0    - if -						   
                  		      2408 %%SCOPE   init,cntError							   
00000260 00000790 60A285E5	      2409 		   str	     r10,[r5,#608]					   
                  		      2410 %%LINE    000283								   
                  		      2411 ;Expr(283): cntError>2  							   
00000002 00000794 020057E3	      2412 		   cmp	     r7,#2						   
00000620 00000798 A0FFFFDA	      2413 		   ble.x     L118						   
000009D8 0000079C 8D0000EA	      2414 		   b.x	     L202						   
                  		      2415 L158:									   
                  		      2416 ; - endif -									   
                  		      2417 %%LINE    000289								   
                  		      2418 ;Expr(289): cntError=0   - if -						   
                  		      2419 %%SCOPE   init								   
         000007A0 0A70A0E1	      2420 		   mov	     r7,r10						   
                  		      2421 %%LINE    000292								   
                  		      2422 ;Expr(292): btstrlen(boxesTemp)>0	   					   
                  		      2423 %%SCOPE   on,cntError							   
000028EC 000007A4 0A0B8DE2EC0080E2    2424 		   adrl	     r0,sp,AS@FindBoxLostInPallete-20488		   
                  		      2425 %%CALL									   
00000000 000007AC 000000EB	    E 2426 		   bl	     @btstrlen						   
         000007B0 0A0050E1	      2427 		   cmp	     r0,r10						   
00000838 000007B4 1F0000DA	      2428 		   ble.x     L175						   
                  		      2429 ; - then -									   
                  		      2430 %%LINE    000294								   
                  		      2431 ;Expr(294): r=btstrstr(boxesTemp,buf)    - if -				   
                  		      2432 %%SCOPE   init,cntError							   
00000AA4 000007B8 E4129FE5	      2433 		   ldr	     r1,S__buf						   
000028EC 000007BC 0A0B8DE2EC0080E2    2434 		   adrl	     r0,sp,AS@FindBoxLostInPallete-20488		   
                  		      2435 %%CALL									   
00000000 000007C4 000000EB	    E 2436 		   bl	     @btstrstr						   
                  		      2437 %%LINE    000296								   
                  		      2438 ;Expr(296): btstrlen(r)>0	   						   
                  		      2439 %%CALL									   
00000000 000007C8 000000EB	    E 2440 		   bl	     @btstrlen						   
         000007CC 0A0050E1	      2441 		   cmp	     r0,r10						   
00000838 000007D0 180000DA	      2442 		   ble.x     L175						   
                  		      2443 %%LINE    000298								   
                  		      2444 ;Expr(298): Buzzer()	   							   
                  		      2445 %%SCOPE   init,cntError							   
                  		      2446 %%CALL									   
00000000 000007D4 000000EB	    E 2447 		   bl	     @Buzzer						   
                  		      2448 L164:									   
                  		      2449 ; - do -									   
                  		      2450 %%LINE    000301								   
                  		      2451 ;Expr(301): keyCode=StartDisplay("VNN NOK","Loi:","Quet trung thung!","","","","
                  		           C: Thoat","ENT: Quet Lai")	    - if -					   
                  		      2452 %%SCOPE   init,cntError							   
00000A78 000007D8 98029FE5	      2453 		   ldr	     r0,S_S80						   
         000007DC 01002DE9	      2454 		   stmfd     sp!,{r0}						   
00000009 000007E0 091040E2	      2455 		   sub	     r1,r0,#9		   ; ldr r1,S_S79		   
         000007E4 02002DE9	      2456 		   stmfd     sp!,{r1}						   


   CROSS ASSEMBLER     V10-L41   (8901)  XASS-V                                           Thu 03-Jan-2019 13:05:27      PAGE-0056
											              ARM               0102
Addr     Location Object-Code	   RE Isn  Source Statement  [ ********                       ]				    Error
  		  1 2 3 4 5 6 7 8	   ....*....1....*....2....*....3....*....4....*....5....*....6....*....7....*....8
0000000A 000007E8 0A2040E2	      2457 		   sub	     r2,r0,#10		   ; ldr r2,S_S78		   
         000007EC 04002DE9	      2458 		   stmfd     sp!,{r2}						   
0000000B 000007F0 0B0040E2	      2459 		   sub	     r0,r0,#11		   ; ldr r0,S_S77		   
         000007F4 01002DE9	      2460 		   stmfd     sp!,{r0}						   
00000001 000007F8 013040E2	      2461 		   sub	     r3,r0,#1		   ; ldr r3,S_S76		   
00000014 000007FC 142042E2	      2462 		   sub	     r2,r2,#20		   ; ldr r2,S_S75		   
0000001A 00000800 1A1041E2	      2463 		   sub	     r1,r1,#26		   ; ldr r1,S_S74		   
00000020 00000804 200040E2	      2464 		   sub	     r0,r0,#32		   ; ldr r0,S_S73		   
                  		      2465 %%CALL									   
00000000 00000808 000000EB	    E 2466 		   bl	     @StartDisplay					   
00000A90 0000080C 7C529FE5	      2467 		   ldr	     r5,Btop_59520					   
00000260 00000810 600285E5	      2468 		   str	     r0,[r5,#608]					   
                  		      2469 %%LINE    000302								   
                  		      2470 ;Expr(302): keyCode==(0019)	   						   
00000010 00000814 10D08DE2	      2471 		   add	     sp,#16						   
00000260 00000818 601295E5	      2472 		   ldr	     r1,[r5,#608]					   
00000019 0000081C 190051E3	      2473 		   cmp	     r1,#25						   
0000094C 00000820 4900000A	      2474 		   beq.x     L203						   
                  		      2475 %%LINE    000304								   
                  		      2476 ;Expr(304): keyCode!=(000d)	   						   
                  		      2477 %%SCOPE   init,cntError							   
00000260 00000824 600295E5	      2478 		   ldr	     r0,[r5,#608]					   
0000000D 00000828 0D0050E3	      2479 		   cmp	     r0,#13						   
000007D8 0000082C E9FFFF1A	      2480 		   bne.x     L164						   
                  		      2481 %%LINE    000306								   
                  		      2482 ;Expr(306): keyCode=0    - goto -						   
                  		      2483 %%SCOPE   init,cntError							   
00000260 00000830 60A285E5	      2484 		   str	     r10,[r5,#608]					   
                  		      2485 %%LINE    000308								   
00000620 00000834 79FFFFEA	      2486 		   b.x	     L118						   
                  		      2487 L175:									   
                  		      2488 ; - endif -									   
                  		      2489 %%LINE    000312								   
                  		      2490 ;Expr(312): btmemset(Test,0,sizeof(Test))	   				   
                  		      2491 %%SCOPE   init,cntError							   
00002800 00000838 0A2BA0E3	      2492 		   mov	     r2,#10240						   
         0000083C 0C10A0E1	      2493 		   mov	     r1,r12						   
000000EC 00000840 EC008DE2	      2494 		   adrl	     r0,sp,AS@FindBoxLostInPallete-30728		   
                  		      2495 %%CALL									   
00000000 00000844 000000EB	    E 2496 		   bl	     @btmemset						   
                  		      2497 %%LINE    000313								   
                  		      2498 ;Expr(313): btsprintf(Test,"%s@%s",boxesTemp,buf)	   			   
00000AA4 00000848 54029FE5	      2499 		   ldr	     r0,S__buf						   
         0000084C 01002DE9	      2500 		   stmfd     sp!,{r0}						   
000028F0 00000850 C0118DE2A31D81E2    2501 		   adrl	     r1,sp,AS@FindBoxLostInPallete-20488+4		   
         00000858 02002DE9	      2502 		   stmfd     sp!,{r1}						   
00000A80 0000085C 1C229FE5	      2503 		   ldr	     r2,S_S81						   
         00000860 04002DE9	      2504 		   stmfd     sp!,{r2}						   
000000F8 00000864 F8008DE2	      2505 		   adrl	     r0,sp,AS@FindBoxLostInPallete-30728+12		   
         00000868 01002DE9	      2506 		   stmfd     sp!,{r0}						   
                  		      2507 %%CALL									   
00000000 0000086C 000000EB	    E 2508 		   bl	     @btsprintf						   
                  		      2509 %%LINE    000314								   
                  		      2510 ;Expr(314): btmemset(boxesTemp,0,sizeof(boxesTemp))	   			   


   CROSS ASSEMBLER     V10-L41   (8901)  XASS-V                                           Thu 03-Jan-2019 13:05:27      PAGE-0057
											              ARM               0102
Addr     Location Object-Code	   RE Isn  Source Statement  [ ********                       ]				    Error
  		  1 2 3 4 5 6 7 8	   ....*....1....*....2....*....3....*....4....*....5....*....6....*....7....*....8
00002800 00000870 0A2BA0E3	      2511 		   mov	     r2,#10240						   
         00000874 0C10A0E1	      2512 		   mov	     r1,r12						   
000028FC 00000878 0A0B8DE2FC0080E2    2513 		   adrl	     r0,sp,AS@FindBoxLostInPallete-20488+16		   
                  		      2514 %%CALL									   
00000000 00000880 000000EB	    E 2515 		   bl	     @btmemset						   
                  		      2516 %%LINE    000315								   
                  		      2517 ;Expr(315): btsprintf(boxesTemp,"%s",Test)	   				   
000000FC 00000884 FC008DE2	      2518 		   adrl	     r0,sp,AS@FindBoxLostInPallete-30728+16		   
         00000888 01002DE9	      2519 		   stmfd     sp!,{r0}						   
00000A7C 0000088C E8119FE5	      2520 		   ldr	     r1,S_S82						   
         00000890 02002DE9	      2521 		   stmfd     sp!,{r1}						   
00002904 00000894 04208DE2292C82E2    2522 		   adrl	     r2,sp,AS@FindBoxLostInPallete-20488+24		   
         0000089C 04002DE9	      2523 		   stmfd     sp!,{r2}						   
                  		      2524 %%CALL									   
00000000 000008A0 000000EB	    E 2525 		   bl	     @btsprintf						   
0000001C 000008A4 1CD08DE2	      2526 		   add	     sp,#28						   
000008C0 000008A8 040000EA	      2527 		   b.x	     L179						   
                  		      2528 L177:									   
                  		      2529 ; - then -									   
                  		      2530 %%LINE    000320								   
                  		      2531 ;Expr(320): boxScan=boxScan- 1  						   
                  		      2532 %%SCOPE   init,cntError							   
000078EC 000008AC 1E4B8DE2EC4084E2    2533 		   adrl	     r4,sp,AS@FindBoxLostInPallete-8			   
00000000 000008B4 000094E5	      2534 		   ldr	     r0,[r4,#0]						   
00000001 000008B8 010050E2	      2535 		   subs	     r0,r0,#1						   
00000000 000008BC 000084E5	      2536 		   str	     r0,[r4,#0]						   
                  		      2537 L179:									   
                  		      2538 ; - endif -									   
                  		      2539 %%LINE    000324								   
                  		      2540 ;Expr(324): btsprintf(msg,"Total Box: %ld/%ld",boxScan,totalBox)	   	   
                  		      2541 %%SCOPE   init,cntError							   
000078F0 000008C0 3C4F8DE21E4B84E2    2542 		   adrl	     r4,sp,AS@FindBoxLostInPallete-4			   
00000000 000008C8 001094E5	      2543 		   ldr	     r1,[r4,#0]						   
         000008CC 02002DE9	      2544 		   stmfd     sp!,{r1}						   
000078F0 000008D0 3C4F8DE21E4B84E2    2545 		   adrl	     r4,sp,AS@FindBoxLostInPallete-8+4			   
00000000 000008D8 000094E5	      2546 		   ldr	     r0,[r4,#0]						   
         000008DC 01002DE9	      2547 		   stmfd     sp!,{r0}						   
00000A8C 000008E0 A4119FE5	      2548 		   ldr	     r1,S_S83						   
         000008E4 02002DE9	      2549 		   stmfd     sp!,{r1}						   
00000A88 000008E8 98019FE5	      2550 		   ldr	     r0,S__msg						   
         000008EC 01002DE9	      2551 		   stmfd     sp!,{r0}						   
                  		      2552 %%CALL									   
00000000 000008F0 000000EB	    E 2553 		   bl	     @btsprintf						   
                  		      2554 %%LINE    000325								   
                  		      2555 ;Expr(325): btstrcpy(set.l4,msg)	   					   
00000058 000008F4 580096E2	      2556 		   adds	     r0,r6,#88						   
00000A88 000008F8 88119FE5	      2557 		   ldr	     r1,S__msg						   
                  		      2558 %%CALL									   
00000000 000008FC 000000EB	    E 2559 		   bl	     @btstrcpy						   
                  		      2560 %%LINE    000326								   
                  		      2561 ;Expr(326): keyCode=StartDisplay("VNN NOK","[Thong tin]",buf,msg,"","","C: Thoat
                  		           ","ENT: Gui")    - if -							   
00000A84 00000900 7C019FE5	      2562 		   ldr	     r0,S_S89						   
         00000904 01002DE9	      2563 		   stmfd     sp!,{r0}						   


   CROSS ASSEMBLER     V10-L41   (8901)  XASS-V                                           Thu 03-Jan-2019 13:05:27      PAGE-0058
											              ARM               0102
Addr     Location Object-Code	   RE Isn  Source Statement  [ ********                       ]				    Error
  		  1 2 3 4 5 6 7 8	   ....*....1....*....2....*....3....*....4....*....5....*....6....*....7....*....8
00000009 00000908 091040E2	      2564 		   sub	     r1,r0,#9		   ; ldr r1,S_S88		   
         0000090C 02002DE9	      2565 		   stmfd     sp!,{r1}						   
0000000A 00000910 0A2040E2	      2566 		   sub	     r2,r0,#10		   ; ldr r2,S_S87		   
         00000914 04002DE9	      2567 		   stmfd     sp!,{r2}						   
0000000B 00000918 0B0040E2	      2568 		   sub	     r0,r0,#11		   ; ldr r0,S_S86		   
         0000091C 01002DE9	      2569 		   stmfd     sp!,{r0}						   
00000A88 00000920 60319FE5	      2570 		   ldr	     r3,S__msg						   
00000092 00000924 922043E2	      2571 		   sub	     r2,r3,#146		   ; ldr r2,S__buf		   
0000000E 00000928 0E1041E2	      2572 		   sub	     r1,r1,#14		   ; ldr r1,S_S85		   
00000014 0000092C 140040E2	      2573 		   sub	     r0,r0,#20		   ; ldr r0,S_S84		   
                  		      2574 %%CALL									   
00000000 00000930 000000EB	    E 2575 		   bl	     @StartDisplay					   
00000A90 00000934 54519FE5	      2576 		   ldr	     r5,Btop_59520					   
00000260 00000938 600285E5	      2577 		   str	     r0,[r5,#608]					   
                  		      2578 %%LINE    000328								   
                  		      2579 ;Expr(328): keyCode==(0019)	   						   
00000020 0000093C 20D08DE2	      2580 		   add	     sp,#32						   
00000260 00000940 601295E5	      2581 		   ldr	     r1,[r5,#608]					   
00000019 00000944 190051E3	      2582 		   cmp	     r1,#25						   
00000954 00000948 0100001A	      2583 		   bne.x     L184						   
                  		      2584 L203:									   
                  		      2585 ;winch object								   
                  		      2586 ;Expr(329): - 2 								   
                  		      2587 %%SCOPE   init								   
00000001 0000094C 0100E0E3	      2588 		   mvn	     r0,#1						   
000009F4 00000950 270000EA	      2589 		   b.x	     L201						   
                  		      2590 L184:									   
                  		      2591 %%LINE    000331								   
                  		      2592 ;Expr(331): boxScan++   							   
                  		      2593 %%SCOPE   init,cntError							   
000078EC 00000954 1E4B8DE2EC4084E2    2594 		   adrl	     r4,sp,AS@FindBoxLostInPallete-8			   
00000000 0000095C 000094E5	      2595 		   ldr	     r0,[r4,#0]						   
00000001 00000960 010090E2	      2596 		   adds	     r0,r0,#1						   
00000000 00000964 000084E5	      2597 		   str	     r0,[r4,#0]						   
                  		      2598 %%LINE    000333								   
                  		      2599 ;Expr(333): keyCode!=(000d)	   						   
00000A90 00000968 20519FE5	      2600 		   ldr	     r5,Btop_59520					   
00000260 0000096C 601295E5	      2601 		   ldr	     r1,[r5,#608]					   
0000000D 00000970 0D0051E3	      2602 		   cmp	     r1,#13						   
00000620 00000974 29FFFF1A	      2603 		   bne.x     L118						   
                  		      2604 ; - if -									   
                  		      2605 %%LINE    000335								   
                  		      2606 ;Expr(335): boxScan>1   							   
                  		      2607 %%SCOPE   init,cntError							   
00000001 00000978 010050E3	      2608 		   cmp	     r0,#1						   
000009E4 0000097C 180000DA	      2609 		   ble.x     L197						   
                  		      2610 ; - then -									   
                  		      2611 %%LINE    000337								   
                  		      2612 ;Expr(337): btmemset(send,0,sizeof(send))	   				   
                  		      2613 %%SCOPE   init,cntError							   
00000AA0 00000980 18219FE5	      2614 		   ldr	     r2,S_30000						   
         00000984 0C10A0E1	      2615 		   mov	     r1,r12						   
00000A9C 00000988 0C019FE5	      2616 		   ldr	     r0,S__send						   
                  		      2617 %%CALL									   


   CROSS ASSEMBLER     V10-L41   (8901)  XASS-V                                           Thu 03-Jan-2019 13:05:27      PAGE-0059
											              ARM               0102
Addr     Location Object-Code	   RE Isn  Source Statement  [ ********                       ]				    Error
  		  1 2 3 4 5 6 7 8	   ....*....1....*....2....*....3....*....4....*....5....*....6....*....7....*....8
00000000 0000098C 000000EB	    E 2618 		   bl	     @btmemset						   
                  		      2619 %%LINE    000339								   
                  		      2620 ;Expr(339): MakeDataToSend("M203","S01",boxesTemp,send) 			   
00000A9C 00000990 04319FE5	      2621 		   ldr	     r3,S__send						   
000028EC 00000994 0A2B8DE2EC2082E2    2622 		   adrl	     r2,sp,AS@FindBoxLostInPallete-20488		   
00000A98 0000099C F4109FE5	      2623 		   ldr	     r1,S_S91						   
00000005 000009A0 050041E2	      2624 		   sub	     r0,r1,#5		   ; ldr r0,S_S90		   
                  		      2625 %%CALL									   
00000000 000009A4 000000EB	    E 2626 		   bl	     @MakeDataToSend					   
                  		      2627 %%LINE    000341								   
                  		      2628 ;Expr(341): ret=DataSend(send,btstrlen(send),rcv,sizeof(rcv),(0))	    - if - 
         000009A8 00042DE9	      2629 		   stmfd     sp!,{r10}						   
00000A9C 000009AC E8009FE5	      2630 		   ldr	     r0,S__send						   
                  		      2631 %%CALL									   
00000000 000009B0 000000EB	    E 2632 		   bl	     @btstrlen						   
00000004 000009B4 04008DE5	      2633 		   str	     r0,[sp,#AS@FindBoxLostInPallete-30964+4]		   
00000AA0 000009B8 E0309FE5	      2634 		   ldr	     r3,S_30000						   
00000A94 000009BC D0209FE5	      2635 		   ldr	     r2,S__rcv						   
         000009C0 0010A0E1	      2636 		   mov	     r1,r0						   
00000A9C 000009C4 D0009FE5	      2637 		   ldr	     r0,S__send						   
                  		      2638 %%CALL									   
00000000 000009C8 000000EB	    E 2639 		   bl	     @DataSend						   
                  		      2640 %%LINE    000343								   
                  		      2641 ;Expr(343): ret==1	   							   
00000004 000009CC 04D08DE2	      2642 		   add	     sp,#4						   
00000001 000009D0 010050E3	      2643 		   cmp	     r0,#1						   
000009E4 000009D4 0200001A	      2644 		   bne.x     L197						   
                  		      2645 L202:									   
                  		      2646 ;winch object								   
                  		      2647 ;Expr(344): - 1 								   
                  		      2648 %%SCOPE   init								   
00000000 000009D8 0000E0E3	      2649 		   mvn	     r0,#0						   
000009F4 000009DC 040000EA	      2650 		   b.x	     L201						   
                  		      2651 L195:									   
                  		      2652 ; - else -									   
                  		      2653 %%LINE    000349								   
                  		      2654 ;Expr(349): Buzzer()	   							   
                  		      2655 %%SCOPE   init,cntError							   
                  		      2656 %%CALL									   
00000000 000009E0 000000EB	    E 2657 		   bl	     @Buzzer						   
                  		      2658 L197:									   
                  		      2659 %%LINE    000353								   
                  		      2660 ;Expr(353): btstrlen(buf)==12   						   
                  		      2661 %%SCOPE   init,cntError							   
00000AA4 000009E4 B8009FE5	      2662 		   ldr	     r0,S__buf						   
                  		      2663 %%CALL									   
00000000 000009E8 000000EB	    E 2664 		   bl	     @btstrlen						   
0000000C 000009EC 0C0050E3	      2665 		   cmp	     r0,#12						   
00000358 000009F0 58FEFF0A	      2666 		   beq.x     L69						   
                  		      2667 L201:									   
                  		      2668 ; RET									   
                  		      2669 %%LINE    000354								   
                  		      2670 %%SCOPE init									   
                  		      2671 %%EF	     									   


   CROSS ASSEMBLER     V10-L41   (8901)  XASS-V                                           Thu 03-Jan-2019 13:05:27      PAGE-0060
											              ARM               0102
Addr     Location Object-Code	   RE Isn  Source Statement  [ ********                       ]				    Error
  		  1 2 3 4 5 6 7 8	   ....*....1....*....2....*....3....*....4....*....5....*....6....*....7....*....8
000000F4 000009F4 F4D08DE2	      2672 		   add	     sp,#244						   
00007800 000009F8 1EDB8DE2	      2673 		   add	     sp,#30720						   
                  		      2674 %%RESTORE	   R6								   
                  		      2675 %%RESTORE	   R7								   
                  		      2676 %%RESTORE	   R10								   
                  		      2677 %%RESTORE	   R12								   
                  		      2678 %%RETURN									   
         000009FC C09CBDE8	      2679 		   ldmfd     sp!,{r6,r7,r10,r11,r12,pc}				   
         00000A00 		      2680 		   bnd	     4							   
                  		      2681 %%FEND    									   
                  		      2682 ;	   cntError -> regid  8	    int						   
                  		      2683 ;	   totalBox -> offset -4    int						   
                  		      2684 ;	   boxScan -> offset -8	    int						   
                  		      2685 ;	   boxes -> offset -10248   array					   
                  		      2686 ;	   boxesTemp -> offset -20488	    array				   
                  		      2687 ;	   Test -> offset -30728    array					   
                  		      2688 ;	   set -> offset -30960	    struct					   
                  		      2689 %%EFILE   									   
                  		      2690 		   extnal    cslldiv						   
                  		      2691 ; DATA-LIST before block							   
         00000A00 		      2692 	   bnd	   4								   
         00000A00 09000000	   R  2693 S_S2:   dd	   S2								   
         00000A04 00000000	   R  2694 S_S1:   dd	   S1								   
         00000A08 21000000	   R  2695 S_S5:   dd	   S5								   
         00000A0C 16000000	   R  2696 S_S4:   dd	   S4								   
         00000A10 0E000000	   R  2697 S_S3:   dd	   S3								   
         00000A14 22000000	   R  2698 S_S6:   dd	   S6								   
         00000A18 5B000000	   R  2699 S_S14:  dd	   S14								   
         00000A1C 8F000000	   R  2700 S_S20:  dd	   S20								   
         00000A20 A2000000	   R  2701 S_S22:  dd	   S22								   
         00000A24 AF000000	   R  2702 S_S28:  dd	   S28								   
         00000A28 44750000	   R  2703 S_20__rcv:	   dd	   _rcv+20						   
         00000A2C C0000000	   R  2704 S_S30:  dd	   S30								   
         00000A30 B7000000	   R  2705 S_S29:  dd	   S29								   
         00000A34 E8EA0000	   R  2706 S__userId:	   dd	   _userId						   
         00000A38 E4EA0000	   R  2707 S__loc: dd	   _loc								   
         00000A3C E1000000	   R  2708 S_S33:  dd	   S33								   
         00000A40 CD000000	   R  2709 S_S32:  dd	   S32								   
         00000A44 C5000000	   R  2710 S_S31:  dd	   S31								   
         00000A48 E2000000	   R  2711 S_S34:  dd	   S34								   
         00000A4C 1B010000	   R  2712 S_S42:  dd	   S42								   
         00000A50 4F010000	   R  2713 S_S48:  dd	   S48								   
         00000A54 62010000	   R  2714 S_S50:  dd	   S50								   
         00000A58 8C010000	   R  2715 S_S55:  dd	   S55								   
         00000A5C 8B010000	   R  2716 S_S54:  dd	   S54								   
         00000A60 79010000	   R  2717 S_S53:  dd	   S53								   
         00000A64 76010000	   R  2718 S_S52:  dd	   S52								   
         00000A68 63010000	   R  2719 S_S51:  dd	   S51								   
         00000A6C 8D010000	   R  2720 S_S56:  dd	   S56								   
         00000A70 D5010000	   R  2721 S_S64:  dd	   S64								   
         00000A74 10020000	   R  2722 S_S72:  dd	   S72								   
         00000A78 49020000	   R  2723 S_S80:  dd	   S80								   
         00000A7C 5D020000	   R  2724 S_S82:  dd	   S82								   
         00000A80 57020000	   R  2725 S_S81:  dd	   S81								   


   CROSS ASSEMBLER     V10-L41   (8901)  XASS-V                                           Thu 03-Jan-2019 13:05:27      PAGE-0061
											              ARM               0102
Addr     Location Object-Code	   RE Isn  Source Statement  [ ********                       ]				    Error
  		  1 2 3 4 5 6 7 8	   ....*....1....*....2....*....3....*....4....*....5....*....6....*....7....*....8
         00000A84 92020000	   R  2726 S_S89:  dd	   S89								   
         00000A88 F2EA0000	   R  2727 S__msg: dd	   _msg								   
         00000A8C 60020000	   R  2728 S_S83:  dd	   S83								   
         00000A90 80E80000	   R  2729 Btop_59520:	   dd	   Btop+59520						   
         00000A94 30750000	   R  2730 S__rcv: dd	   _rcv								   
         00000A98 A0020000	   R  2731 S_S91:  dd	   S91								   
         00000A9C 00000000	   R  2732 S__send:	   dd	   _send						   
         00000AA0 30750000	      2733 S_30000:	   dd	   30000						   
         00000AA4 60EA0000	   R  2734 S__buf: dd	   _buf								   
         00000AA8 		      2735 		   end								   


   CROSS ASSEMBLER     V10-L41   (8901)  XASS-V           PROGRAM INFORMATION             Thu 03-Jan-2019 13:05:27      PAGE-0062
											              ARM               0102


				     +--------------------+
				     | Source Information |
				     +--------------------+

			      Instruction    Comment	    Macro	   Expansion	  Total		 Error

	  Source  Step          1015           1720            0                0          2735              0

	  Include Step             0              0            0                0             0              0

	  Total   Step          1015           1720            0                0          2735              0







				     +--------------------+
				     | Object Information |
				     +--------------------+

	  Section Name           Type		Top Address	    End Address 	Size

	  B_App200               Comm		00000000            0000EBF4            0000EBF4 (     60404) relocatable
	  I_App200               Comm		00000000            000002A4            000002A4 (       676) relocatable
	  C_App200               Code		00000000            00000AA8            00000AA8 (      2728) relocatable
