

   CROSS ASSEMBLER     V10-L41   (8901)  XASS-V                                           Sat 02-Mar-2019 11:01:07      PAGE-0001
											              ARM               0102
Addr     Location Object-Code	   RE Isn  Source Statement  [ ********                       ]				    Error
  		  1 2 3 4 5 6 7 8	   ....*....1....*....2....*....3....*....4....*....5....*....6....*....7....*....8
                  		      0001 %%TOOL    'xcc-v V10.22  9226' ,190302110106					   
                  		      0002 %%COMPILE language=C , source=App300,mode=0,cps=4,dps=4,newdebug		   
                  		      0003 ;	   Cross C Compiler  XCC-V  V10.22 (9226) -88011100:03FF-		   
                  		      0004 ;		   == ARM/ARM9E (V01.03c) 8b13 ==  				   
                  		      0005 ;		   === arch:V5TE [ARM code] ===					   
                  		      0006 		   extnal    @strlen						   
                  		      0007 		   extnal    @btMessageBoxEx					   
                  		      0008 		   extnal    @btstrcpy						   
                  		      0009 		   extnal    @btstrlen						   
                  		      0010 		   extnal    @btmemcpy						   
                  		      0011 		   extnal    @btmemcmp						   
                  		      0012 		   extnal    @btmemset						   
                  		      0013 		   extnal    @btsprintf						   
                  		      0014 		   extnal    @StartDisplay					   
                  		      0015 		   extnal    @Beep						   
                  		      0016 		   extnal    @Buzzer						   
                  		      0017 		   extnal    @DataInputBt					   
                  		      0018 		   extnal    @MasterFind					   
                  		      0019 		   extnal    _send						   
                  		      0020 		   extnal    _rcv						   
                  		      0021 		   extnal    _buf						   
                  		      0022 		   extnal    _keyCode						   
                  		      0023 		   extnal    _loc						   
                  		      0024 		   extnal    _userId						   
                  		      0025 		   extnal    _msg						   
                  		      0026 		   extnal    _msg2						   
                  		      0027 		   extnal    _ret						   
                  		      0028 		   extnal    @DataSend						   
                  		      0029 		   extnal    @MakeDataToSend					   
                  		      0030 		   extnal    @CheckDataByType					   
                  		      0031 		   extnal    @GetBoxNoFromString				   
                  		      0032 		   extnal    @CheckDataExistInString				   
                  		      0033 		   extnal    @CheckDuplicate					   
                  		      0034 		   extnal    @GetUserAndLocation				   
                  		      0035 		   extnal    @ReadData						   
                  		      0036 		   global    @InStock						   
                  		      0037 		   global    @CheckInventoryForOS				   
                  		      0038 		   global    @CheckInventoryForOR				   
                  		      0039 		   global    @PrintPCLOR					   
                  		      0040 		   global    @Reservation					   
                  		      0041 		   global    @ArrangeBoxToPallet				   
                  		      0042 		   global    @ArrangeToPalletOS					   
                  		      0043 		   global    @ArrangeToPalletOR					   
00000000          		      0044 I_App300	   sect	   comm							   
00000000          		      0045 Itop		   set	   $							   
                  		      0046 S1:										   
         00000000 6C		      0047 		   db	     06ch,06fh,063h,061h,074h				   
         00000001 6F		     
         00000002 63		     
         00000003 61		     
         00000004 74		     
         00000005 69		      0048 		   db	     069h,06fh,06eh,0					   
         00000006 6F		     
         00000007 6E		     


   CROSS ASSEMBLER     V10-L41   (8901)  XASS-V                                           Sat 02-Mar-2019 11:01:07      PAGE-0002
											              ARM               0102
Addr     Location Object-Code	   RE Isn  Source Statement  [ ********                       ]				    Error
  		  1 2 3 4 5 6 7 8	   ....*....1....*....2....*....3....*....4....*....5....*....6....*....7....*....8
         00000008 00		     
                  		      0049 S2:										   
         00000009 75		      0050 		   db	     075h,073h,065h,072h,0				   
         0000000A 73		     
         0000000B 65		     
         0000000C 72		     
         0000000D 00		     
                  		      0051 S3:										   
         0000000E 25		      0052 		   db	     025h,073h,0					   
         0000000F 73		     
         00000010 00		     
                  		      0053 S4:										   
         00000011 25		      0054 		   db	     025h,073h,0					   
         00000012 73		     
         00000013 00		     
                  		      0055 S5:										   
         00000014 25		      0056 		   db	     025h,073h,040h,025h,073h				   
         00000015 73		     
         00000016 40		     
         00000017 25		     
         00000018 73		     
         00000019 00		      0057 		   db	     0							   
                  		      0058 S6:										   
         0000001A 5B		      0059 		   db	     05bh,025h,064h,05dh,0				   
         0000001B 25		     
         0000001C 64		     
         0000001D 5D		     
         0000001E 00		     
                  		      0060 S7:										   
         0000001F 56		      0061 		   db	     056h,04eh,04eh,020h,04eh				   
         00000020 4E		     
         00000021 4E		     
         00000022 20		     
         00000023 4E		     
         00000024 4F		      0062 		   db	     04fh,04bh,0					   
         00000025 4B		     
         00000026 00		     
                  		      0063 S8:										   
         00000027 50		      0064 		   db	     050h,043h,04ch,020h,04eh				   
         00000028 43		     
         00000029 4C		     
         0000002A 20		     
         0000002B 4E		     
         0000002C 6F		      0065 		   db	     06fh,03ah,0					   
         0000002D 3A		     
         0000002E 00		     
                  		      0066 S9:										   
         0000002F 00		      0067 		   db	     0							   
                  		      0068 S10:										   
         00000030 00		      0069 		   db	     0							   
                  		      0070 S11:										   
         00000031 00		      0071 		   db	     0							   
                  		      0072 S12:										   
         00000032 00		      0073 		   db	     0							   


   CROSS ASSEMBLER     V10-L41   (8901)  XASS-V                                           Sat 02-Mar-2019 11:01:07      PAGE-0003
											              ARM               0102
Addr     Location Object-Code	   RE Isn  Source Statement  [ ********                       ]				    Error
  		  1 2 3 4 5 6 7 8	   ....*....1....*....2....*....3....*....4....*....5....*....6....*....7....*....8
                  		      0074 S13:										   
         00000033 20		      0075 		   db	     020h,043h,03ah,054h,068h				   
         00000034 43		     
         00000035 3A		     
         00000036 54		     
         00000037 68		     
         00000038 6F		      0076 		   db	     06fh,061h,074h,020h,02dh				   
         00000039 61		     
         0000003A 74		     
         0000003B 20		     
         0000003C 2D		     
         0000003D 20		      0077 		   db	     020h,045h,04eh,054h,03ah				   
         0000003E 45		     
         0000003F 4E		     
         00000040 54		     
         00000041 3A		     
         00000042 47		      0078 		   db	     047h,075h,069h,020h,0				   
         00000043 75		     
         00000044 69		     
         00000045 20		     
         00000046 00		     
                  		      0079 S14:										   
         00000047 4D		      0080 		   db	     04dh,033h,030h,031h,0				   
         00000048 33		     
         00000049 30		     
         0000004A 31		     
         0000004B 00		     
                  		      0081 S15:										   
         0000004C 00		      0082 		   db	     0							   
                  		      0083 S16:										   
         0000004D 53		      0084 		   db	     053h,063h,061h,06eh,06eh				   
         0000004E 63		     
         0000004F 61		     
         00000050 6E		     
         00000051 6E		     
         00000052 65		      0085 		   db	     065h,064h,020h,042h,06fh				   
         00000053 64		     
         00000054 20		     
         00000055 42		     
         00000056 6F		     
         00000057 78		      0086 		   db	     078h,03ah,020h,025h,06ch				   
         00000058 3A		     
         00000059 20		     
         0000005A 25		     
         0000005B 6C		     
         0000005C 64		      0087 		   db	     064h,02fh,025h,06ch,064h				   
         0000005D 2F		     
         0000005E 25		     
         0000005F 6C		     
         00000060 64		     
         00000061 00		      0088 		   db	     0							   
                  		      0089 S17:										   
         00000062 25		      0090 		   db	     025h,073h,025h,073h,0				   
         00000063 73		     


   CROSS ASSEMBLER     V10-L41   (8901)  XASS-V                                           Sat 02-Mar-2019 11:01:07      PAGE-0004
											              ARM               0102
Addr     Location Object-Code	   RE Isn  Source Statement  [ ********                       ]				    Error
  		  1 2 3 4 5 6 7 8	   ....*....1....*....2....*....3....*....4....*....5....*....6....*....7....*....8
         00000064 25		     
         00000065 73		     
         00000066 00		     
                  		      0091 S18:										   
         00000067 25		      0092 		   db	     025h,073h,0					   
         00000068 73		     
         00000069 00		     
                  		      0093 S19:										   
         0000006A 4D		      0094 		   db	     04dh,033h,030h,031h,0				   
         0000006B 33		     
         0000006C 30		     
         0000006D 31		     
         0000006E 00		     
                  		      0095 S20:										   
         0000006F 53		      0096 		   db	     053h,030h,031h,0					   
         00000070 30		     
         00000071 31		     
         00000072 00		     
                  		      0097 S21:										   
         00000073 6C		      0098 		   db	     06ch,06fh,063h,061h,074h				   
         00000074 6F		     
         00000075 63		     
         00000076 61		     
         00000077 74		     
         00000078 69		      0099 		   db	     069h,06fh,06eh,0					   
         00000079 6F		     
         0000007A 6E		     
         0000007B 00		     
                  		      0100 S22:										   
         0000007C 75		      0101 		   db	     075h,073h,065h,072h,0				   
         0000007D 73		     
         0000007E 65		     
         0000007F 72		     
         00000080 00		     
                  		      0102 S23:										   
         00000081 4D		      0103 		   db	     04dh,033h,030h,036h,0				   
         00000082 33		     
         00000083 30		     
         00000084 36		     
         00000085 00		     
                  		      0104 S24:										   
         00000086 00		      0105 		   db	     0							   
                  		      0106 S25:										   
         00000087 53		      0107 		   db	     053h,063h,061h,06eh,06eh				   
         00000088 63		     
         00000089 61		     
         0000008A 6E		     
         0000008B 6E		     
         0000008C 65		      0108 		   db	     065h,064h,020h,042h,06fh				   
         0000008D 64		     
         0000008E 20		     
         0000008F 42		     
         00000090 6F		     
         00000091 78		      0109 		   db	     078h,03ah,020h,025h,06ch				   


   CROSS ASSEMBLER     V10-L41   (8901)  XASS-V                                           Sat 02-Mar-2019 11:01:07      PAGE-0005
											              ARM               0102
Addr     Location Object-Code	   RE Isn  Source Statement  [ ********                       ]				    Error
  		  1 2 3 4 5 6 7 8	   ....*....1....*....2....*....3....*....4....*....5....*....6....*....7....*....8
         00000092 3A		     
         00000093 20		     
         00000094 25		     
         00000095 6C		     
         00000096 64		      0110 		   db	     064h,02fh,025h,06ch,064h				   
         00000097 2F		     
         00000098 25		     
         00000099 6C		     
         0000009A 64		     
         0000009B 00		      0111 		   db	     0							   
                  		      0112 S26:										   
         0000009C 25		      0113 		   db	     025h,073h,040h,025h,073h				   
         0000009D 73		     
         0000009E 40		     
         0000009F 25		     
         000000A0 73		     
         000000A1 00		      0114 		   db	     0							   
                  		      0115 S27:										   
         000000A2 25		      0116 		   db	     025h,073h,0					   
         000000A3 73		     
         000000A4 00		     
                  		      0117 S28:										   
         000000A5 56		      0118 		   db	     056h,04eh,04eh,020h,04eh				   
         000000A6 4E		     
         000000A7 4E		     
         000000A8 20		     
         000000A9 4E		     
         000000AA 4F		      0119 		   db	     04fh,04bh,0					   
         000000AB 4B		     
         000000AC 00		     
                  		      0120 S29:										   
         000000AD 51		      0121 		   db	     051h,075h,065h,074h,020h				   
         000000AE 75		     
         000000AF 65		     
         000000B0 74		     
         000000B1 20		     
         000000B2 74		      0122 		   db	     074h,068h,075h,06eh,067h				   
         000000B3 68		     
         000000B4 75		     
         000000B5 6E		     
         000000B6 67		     
         000000B7 20		      0123 		   db	     020h,06bh,065h,020h,074h				   
         000000B8 6B		     
         000000B9 65		     
         000000BA 20		     
         000000BB 74		     
         000000BC 69		      0124 		   db	     069h,065h,070h,0					   
         000000BD 65		     
         000000BE 70		     
         000000BF 00		     
                  		      0125 S30:										   
         000000C0 00		      0126 		   db	     0							   
                  		      0127 S31:										   
         000000C1 00		      0128 		   db	     0							   


   CROSS ASSEMBLER     V10-L41   (8901)  XASS-V                                           Sat 02-Mar-2019 11:01:07      PAGE-0006
											              ARM               0102
Addr     Location Object-Code	   RE Isn  Source Statement  [ ********                       ]				    Error
  		  1 2 3 4 5 6 7 8	   ....*....1....*....2....*....3....*....4....*....5....*....6....*....7....*....8
                  		      0129 S32:										   
         000000C2 00		      0130 		   db	     0							   
                  		      0131 S33:										   
         000000C3 00		      0132 		   db	     0							   
                  		      0133 S34:										   
         000000C4 20		      0134 		   db	     020h,043h,03ah,054h,068h				   
         000000C5 43		     
         000000C6 3A		     
         000000C7 54		     
         000000C8 68		     
         000000C9 6F		      0135 		   db	     06fh,061h,074h,020h,02dh				   
         000000CA 61		     
         000000CB 74		     
         000000CC 20		     
         000000CD 2D		     
         000000CE 20		      0136 		   db	     020h,045h,04eh,054h,03ah				   
         000000CF 45		     
         000000D0 4E		     
         000000D1 54		     
         000000D2 3A		     
         000000D3 47		      0137 		   db	     047h,075h,069h,020h,0				   
         000000D4 75		     
         000000D5 69		     
         000000D6 20		     
         000000D7 00		     
                  		      0138 S35:										   
         000000D8 25		      0139 		   db	     025h,073h,040h,025h,073h				   
         000000D9 73		     
         000000DA 40		     
         000000DB 25		     
         000000DC 73		     
         000000DD 00		      0140 		   db	     0							   
                  		      0141 S36:										   
         000000DE 4D		      0142 		   db	     04dh,033h,030h,036h,0				   
         000000DF 33		     
         000000E0 30		     
         000000E1 36		     
         000000E2 00		     
                  		      0143 S37:										   
         000000E3 53		      0144 		   db	     053h,030h,031h,0					   
         000000E4 30		     
         000000E5 31		     
         000000E6 00		     
                  		      0145 S38:										   
         000000E7 4D		      0146 		   db	     04dh,033h,030h,036h,0				   
         000000E8 33		     
         000000E9 30		     
         000000EA 36		     
         000000EB 00		     
                  		      0147 S39:										   
         000000EC 53		      0148 		   db	     053h,030h,032h,0					   
         000000ED 30		     
         000000EE 32		     
         000000EF 00		     


   CROSS ASSEMBLER     V10-L41   (8901)  XASS-V                                           Sat 02-Mar-2019 11:01:07      PAGE-0007
											              ARM               0102
Addr     Location Object-Code	   RE Isn  Source Statement  [ ********                       ]				    Error
  		  1 2 3 4 5 6 7 8	   ....*....1....*....2....*....3....*....4....*....5....*....6....*....7....*....8
                  		      0149 S40:										   
         000000F0 54		      0150 		   db	     054h,06fh,020h,020h,05bh				   
         000000F1 6F		     
         000000F2 20		     
         000000F3 20		     
         000000F4 5B		     
         000000F5 25		      0151 		   db	     025h,06ch,064h,02fh,025h				   
         000000F6 6C		     
         000000F7 64		     
         000000F8 2F		     
         000000F9 25		     
         000000FA 6C		      0152 		   db	     06ch,064h,05dh,0					   
         000000FB 64		     
         000000FC 5D		     
         000000FD 00		     
                  		      0153 S41:										   
         000000FE 25		      0154 		   db	     025h,073h,040h,025h,073h				   
         000000FF 73		     
         00000100 40		     
         00000101 25		     
         00000102 73		     
         00000103 00		      0155 		   db	     0							   
                  		      0156 S42:										   
         00000104 25		      0157 		   db	     025h,073h,0					   
         00000105 73		     
         00000106 00		     
                  		      0158 S43:										   
         00000107 20		      0159 		   db	     020h,020h,05bh,025h,06ch				   
         00000108 20		     
         00000109 5B		     
         0000010A 25		     
         0000010B 6C		     
         0000010C 64		      0160 		   db	     064h,02fh,025h,06ch,064h				   
         0000010D 2F		     
         0000010E 25		     
         0000010F 6C		     
         00000110 64		     
         00000111 5D		      0161 		   db	     05dh,0						   
         00000112 00		     
                  		      0162 S44:										   
         00000113 56		      0163 		   db	     056h,04eh,04eh,020h,04eh				   
         00000114 4E		     
         00000115 4E		     
         00000116 20		     
         00000117 4E		     
         00000118 4F		      0164 		   db	     04fh,04bh,0					   
         00000119 4B		     
         0000011A 00		     
                  		      0165 S45:										   
         0000011B 51		      0166 		   db	     051h,075h,065h,074h,020h				   
         0000011C 75		     
         0000011D 65		     
         0000011E 74		     
         0000011F 20		     


   CROSS ASSEMBLER     V10-L41   (8901)  XASS-V                                           Sat 02-Mar-2019 11:01:07      PAGE-0008
											              ARM               0102
Addr     Location Object-Code	   RE Isn  Source Statement  [ ********                       ]				    Error
  		  1 2 3 4 5 6 7 8	   ....*....1....*....2....*....3....*....4....*....5....*....6....*....7....*....8
         00000120 53		      0167 		   db	     053h,068h,069h,070h,070h				   
         00000121 68		     
         00000122 69		     
         00000123 70		     
         00000124 70		     
         00000125 69		      0168 		   db	     069h,06eh,067h,020h,054h				   
         00000126 6E		     
         00000127 67		     
         00000128 20		     
         00000129 54		     
         0000012A 6F		      0169 		   db	     06fh,0						   
         0000012B 00		     
                  		      0170 S46:										   
         0000012C 6B		      0171 		   db	     06bh,065h,020h,074h,069h				   
         0000012D 65		     
         0000012E 20		     
         0000012F 74		     
         00000130 69		     
         00000131 65		      0172 		   db	     065h,070h,03ah,0					   
         00000132 70		     
         00000133 3A		     
         00000134 00		     
                  		      0173 S47:										   
         00000135 00		      0174 		   db	     0							   
                  		      0175 S48:										   
         00000136 00		      0176 		   db	     0							   
                  		      0177 S49:										   
         00000137 00		      0178 		   db	     0							   
                  		      0179 S50:										   
         00000138 20		      0180 		   db	     020h,043h,03ah,054h,068h				   
         00000139 43		     
         0000013A 3A		     
         0000013B 54		     
         0000013C 68		     
         0000013D 6F		      0181 		   db	     06fh,061h,074h,020h,02dh				   
         0000013E 61		     
         0000013F 74		     
         00000140 20		     
         00000141 2D		     
         00000142 20		      0182 		   db	     020h,045h,04eh,054h,03ah				   
         00000143 45		     
         00000144 4E		     
         00000145 54		     
         00000146 3A		     
         00000147 47		      0183 		   db	     047h,075h,069h,020h,0				   
         00000148 75		     
         00000149 69		     
         0000014A 20		     
         0000014B 00		     
                  		      0184 S51:										   
         0000014C 25		      0185 		   db	     025h,073h,040h,025h,073h				   
         0000014D 73		     
         0000014E 40		     
         0000014F 25		     


   CROSS ASSEMBLER     V10-L41   (8901)  XASS-V                                           Sat 02-Mar-2019 11:01:07      PAGE-0009
											              ARM               0102
Addr     Location Object-Code	   RE Isn  Source Statement  [ ********                       ]				    Error
  		  1 2 3 4 5 6 7 8	   ....*....1....*....2....*....3....*....4....*....5....*....6....*....7....*....8
         00000150 73		     
         00000151 00		      0186 		   db	     0							   
                  		      0187 S52:										   
         00000152 4D		      0188 		   db	     04dh,033h,030h,036h,0				   
         00000153 33		     
         00000154 30		     
         00000155 36		     
         00000156 00		     
                  		      0189 S53:										   
         00000157 53		      0190 		   db	     053h,030h,033h,0					   
         00000158 30		     
         00000159 33		     
         0000015A 00		     
                  		      0191 S54:										   
         0000015B 6C		      0192 		   db	     06ch,06fh,063h,061h,074h				   
         0000015C 6F		     
         0000015D 63		     
         0000015E 61		     
         0000015F 74		     
         00000160 69		      0193 		   db	     069h,06fh,06eh,0					   
         00000161 6F		     
         00000162 6E		     
         00000163 00		     
                  		      0194 S55:										   
         00000164 75		      0195 		   db	     075h,073h,065h,072h,0				   
         00000165 73		     
         00000166 65		     
         00000167 72		     
         00000168 00		     
                  		      0196 S56:										   
         00000169 4D		      0197 		   db	     04dh,033h,030h,036h,0				   
         0000016A 33		     
         0000016B 30		     
         0000016C 36		     
         0000016D 00		     
                  		      0198 S57:										   
         0000016E 52		      0199 		   db	     052h,030h,031h,0					   
         0000016F 30		     
         00000170 31		     
         00000171 00		     
                  		      0200 S58:										   
         00000172 4E		      0201 		   db	     04eh,047h,0					   
         00000173 47		     
         00000174 00		     
                  		      0202 S59:										   
         00000175 25		      0203 		   db	     025h,073h,0					   
         00000176 73		     
         00000177 00		     
                  		      0204 S60:										   
         00000178 25		      0205 		   db	     025h,073h,025h,073h,0				   
         00000179 73		     
         0000017A 25		     
         0000017B 73		     
         0000017C 00		     


   CROSS ASSEMBLER     V10-L41   (8901)  XASS-V                                           Sat 02-Mar-2019 11:01:07      PAGE-0010
											              ARM               0102
Addr     Location Object-Code	   RE Isn  Source Statement  [ ********                       ]				    Error
  		  1 2 3 4 5 6 7 8	   ....*....1....*....2....*....3....*....4....*....5....*....6....*....7....*....8
                  		      0206 S61:										   
         0000017D 4D		      0207 		   db	     04dh,033h,030h,036h,0				   
         0000017E 33		     
         0000017F 30		     
         00000180 36		     
         00000181 00		     
                  		      0208 S62:										   
         00000182 52		      0209 		   db	     052h,030h,032h,0					   
         00000183 30		     
         00000184 32		     
         00000185 00		     
                  		      0210 S63:										   
         00000186 54		      0211 		   db	     054h,06fh,020h,020h,05bh				   
         00000187 6F		     
         00000188 20		     
         00000189 20		     
         0000018A 5B		     
         0000018B 25		      0212 		   db	     025h,06ch,064h,02fh,025h				   
         0000018C 6C		     
         0000018D 64		     
         0000018E 2F		     
         0000018F 25		     
         00000190 6C		      0213 		   db	     06ch,064h,05dh,0					   
         00000191 64		     
         00000192 5D		     
         00000193 00		     
                  		      0214 S64:										   
         00000194 25		      0215 		   db	     025h,073h,040h,025h,073h				   
         00000195 73		     
         00000196 40		     
         00000197 25		     
         00000198 73		     
         00000199 00		      0216 		   db	     0							   
                  		      0217 S65:										   
         0000019A 25		      0218 		   db	     025h,073h,0					   
         0000019B 73		     
         0000019C 00		     
                  		      0219 S66:										   
         0000019D 20		      0220 		   db	     020h,020h,05bh,025h,06ch				   
         0000019E 20		     
         0000019F 5B		     
         000001A0 25		     
         000001A1 6C		     
         000001A2 64		      0221 		   db	     064h,02fh,025h,06ch,064h				   
         000001A3 2F		     
         000001A4 25		     
         000001A5 6C		     
         000001A6 64		     
         000001A7 5D		      0222 		   db	     05dh,0						   
         000001A8 00		     
                  		      0223 S67:										   
         000001A9 56		      0224 		   db	     056h,04eh,04eh,020h,04eh				   
         000001AA 4E		     
         000001AB 4E		     


   CROSS ASSEMBLER     V10-L41   (8901)  XASS-V                                           Sat 02-Mar-2019 11:01:07      PAGE-0011
											              ARM               0102
Addr     Location Object-Code	   RE Isn  Source Statement  [ ********                       ]				    Error
  		  1 2 3 4 5 6 7 8	   ....*....1....*....2....*....3....*....4....*....5....*....6....*....7....*....8
         000001AC 20		     
         000001AD 4E		     
         000001AE 4F		      0225 		   db	     04fh,04bh,0					   
         000001AF 4B		     
         000001B0 00		     
                  		      0226 S68:										   
         000001B1 51		      0227 		   db	     051h,075h,065h,074h,020h				   
         000001B2 75		     
         000001B3 65		     
         000001B4 74		     
         000001B5 20		     
         000001B6 53		      0228 		   db	     053h,068h,069h,070h,070h				   
         000001B7 68		     
         000001B8 69		     
         000001B9 70		     
         000001BA 70		     
         000001BB 69		      0229 		   db	     069h,06eh,067h,020h,054h				   
         000001BC 6E		     
         000001BD 67		     
         000001BE 20		     
         000001BF 54		     
         000001C0 6F		      0230 		   db	     06fh,0						   
         000001C1 00		     
                  		      0231 S69:										   
         000001C2 6B		      0232 		   db	     06bh,065h,020h,074h,069h				   
         000001C3 65		     
         000001C4 20		     
         000001C5 74		     
         000001C6 69		     
         000001C7 65		      0233 		   db	     065h,070h,03ah,0					   
         000001C8 70		     
         000001C9 3A		     
         000001CA 00		     
                  		      0234 S70:										   
         000001CB 00		      0235 		   db	     0							   
                  		      0236 S71:										   
         000001CC 00		      0237 		   db	     0							   
                  		      0238 S72:										   
         000001CD 00		      0239 		   db	     0							   
                  		      0240 S73:										   
         000001CE 20		      0241 		   db	     020h,043h,03ah,054h,068h				   
         000001CF 43		     
         000001D0 3A		     
         000001D1 54		     
         000001D2 68		     
         000001D3 6F		      0242 		   db	     06fh,061h,074h,020h,02dh				   
         000001D4 61		     
         000001D5 74		     
         000001D6 20		     
         000001D7 2D		     
         000001D8 20		      0243 		   db	     020h,045h,04eh,054h,03ah				   
         000001D9 45		     
         000001DA 4E		     
         000001DB 54		     


   CROSS ASSEMBLER     V10-L41   (8901)  XASS-V                                           Sat 02-Mar-2019 11:01:07      PAGE-0012
											              ARM               0102
Addr     Location Object-Code	   RE Isn  Source Statement  [ ********                       ]				    Error
  		  1 2 3 4 5 6 7 8	   ....*....1....*....2....*....3....*....4....*....5....*....6....*....7....*....8
         000001DC 3A		     
         000001DD 47		      0244 		   db	     047h,075h,069h,020h,0				   
         000001DE 75		     
         000001DF 69		     
         000001E0 20		     
         000001E1 00		     
                  		      0245 S74:										   
         000001E2 4D		      0246 		   db	     04dh,033h,030h,036h,0				   
         000001E3 33		     
         000001E4 30		     
         000001E5 36		     
         000001E6 00		     
                  		      0247 S75:										   
         000001E7 52		      0248 		   db	     052h,030h,033h,0					   
         000001E8 30		     
         000001E9 33		     
         000001EA 00		     
                  		      0249 S76:										   
         000001EB 48		      0250 		   db	     048h,06fh,061h,06eh,020h				   
         000001EC 6F		     
         000001ED 61		     
         000001EE 6E		     
         000001EF 20		     
         000001F0 54		      0251 		   db	     054h,068h,061h,06eh,068h				   
         000001F1 68		     
         000001F2 61		     
         000001F3 6E		     
         000001F4 68		     
         000001F5 21		      0252 		   db	     021h,021h,021h,0					   
         000001F6 21		     
         000001F7 21		     
         000001F8 00		     
                  		      0253 S77:										   
         000001F9 00		      0254 		   db	     0							   
                  		      0255 S78:										   
         000001FA 4D		      0256 		   db	     04dh,033h,030h,030h,0				   
         000001FB 33		     
         000001FC 30		     
         000001FD 30		     
         000001FE 00		     
                  		      0257 S79:										   
         000001FF 00		      0258 		   db	     0							   
                  		      0259 S80:										   
         00000200 6C		      0260 		   db	     06ch,06fh,063h,061h,074h				   
         00000201 6F		     
         00000202 63		     
         00000203 61		     
         00000204 74		     
         00000205 69		      0261 		   db	     069h,06fh,06eh,0					   
         00000206 6F		     
         00000207 6E		     
         00000208 00		     
                  		      0262 S81:										   
         00000209 75		      0263 		   db	     075h,073h,065h,072h,0				   


   CROSS ASSEMBLER     V10-L41   (8901)  XASS-V                                           Sat 02-Mar-2019 11:01:07      PAGE-0013
											              ARM               0102
Addr     Location Object-Code	   RE Isn  Source Statement  [ ********                       ]				    Error
  		  1 2 3 4 5 6 7 8	   ....*....1....*....2....*....3....*....4....*....5....*....6....*....7....*....8
         0000020A 73		     
         0000020B 65		     
         0000020C 72		     
         0000020D 00		     
                  		      0264 S82:										   
         0000020E 54		      0265 		   db	     054h,068h,075h,020h,05bh				   
         0000020F 68		     
         00000210 75		     
         00000211 20		     
         00000212 5B		     
         00000213 25		      0266 		   db	     025h,064h,05dh,0					   
         00000214 64		     
         00000215 5D		     
         00000216 00		     
                  		      0267 S83:										   
         00000217 56		      0268 		   db	     056h,04eh,04eh,020h,04eh				   
         00000218 4E		     
         00000219 4E		     
         0000021A 20		     
         0000021B 4E		     
         0000021C 4F		      0269 		   db	     04fh,04bh,0					   
         0000021D 4B		     
         0000021E 00		     
                  		      0270 S84:										   
         0000021F 51		      0271 		   db	     051h,075h,065h,074h,020h				   
         00000220 75		     
         00000221 65		     
         00000222 74		     
         00000223 20		     
         00000224 50		      0272 		   db	     050h,061h,06ch,06ch,065h				   
         00000225 61		     
         00000226 6C		     
         00000227 6C		     
         00000228 65		     
         00000229 74		      0273 		   db	     074h,065h,020h,043h,058h				   
         0000022A 65		     
         0000022B 20		     
         0000022C 43		     
         0000022D 58		     
         0000022E 00		      0274 		   db	     0							   
                  		      0275 S85:										   
         0000022F 20		      0276 		   db	     020h,020h,05bh,020h,020h				   
         00000230 20		     
         00000231 5B		     
         00000232 20		     
         00000233 20		     
         00000234 20		      0277 		   db	     020h,020h,052h,03ah,047h				   
         00000235 20		     
         00000236 52		     
         00000237 3A		     
         00000238 47		     
         00000239 75		      0278 		   db	     075h,069h,020h,020h,020h				   
         0000023A 69		     
         0000023B 20		     


   CROSS ASSEMBLER     V10-L41   (8901)  XASS-V                                           Sat 02-Mar-2019 11:01:07      PAGE-0014
											              ARM               0102
Addr     Location Object-Code	   RE Isn  Source Statement  [ ********                       ]				    Error
  		  1 2 3 4 5 6 7 8	   ....*....1....*....2....*....3....*....4....*....5....*....6....*....7....*....8
         0000023C 20		     
         0000023D 20		     
         0000023E 20		      0279 		   db	     020h,05dh,0					   
         0000023F 5D		     
         00000240 00		     
                  		      0280 S86:										   
         00000241 54		      0281 		   db	     054h,04fh,053h,031h,0				   
         00000242 4F		     
         00000243 53		     
         00000244 31		     
         00000245 00		     
                  		      0282 S87:										   
         00000246 25		      0283 		   db	     025h,073h,025h,073h,040h				   
         00000247 73		     
         00000248 25		     
         00000249 73		     
         0000024A 40		     
         0000024B 00		      0284 		   db	     0							   
                  		      0285 S88:										   
         0000024C 56		      0286 		   db	     056h,04eh,04eh,020h,04eh				   
         0000024D 4E		     
         0000024E 4E		     
         0000024F 20		     
         00000250 4E		     
         00000251 4F		      0287 		   db	     04fh,04bh,0					   
         00000252 4B		     
         00000253 00		     
                  		      0288 S89:										   
         00000254 5B		      0289 		   db	     05bh,052h,065h,073h,065h				   
         00000255 52		     
         00000256 65		     
         00000257 73		     
         00000258 65		     
         00000259 72		      0290 		   db	     072h,076h,061h,074h,069h				   
         0000025A 76		     
         0000025B 61		     
         0000025C 74		     
         0000025D 69		     
         0000025E 6F		      0291 		   db	     06fh,06eh,05dh,0					   
         0000025F 6E		     
         00000260 5D		     
         00000261 00		     
                  		      0292 S90:										   
         00000262 51		      0293 		   db	     051h,075h,065h,074h,020h				   
         00000263 75		     
         00000264 65		     
         00000265 74		     
         00000266 20		     
         00000267 50		      0294 		   db	     050h,061h,06ch,06ch,065h				   
         00000268 61		     
         00000269 6C		     
         0000026A 6C		     
         0000026B 65		     
         0000026C 74		      0295 		   db	     074h,065h,020h,074h,069h				   


   CROSS ASSEMBLER     V10-L41   (8901)  XASS-V                                           Sat 02-Mar-2019 11:01:07      PAGE-0015
											              ARM               0102
Addr     Location Object-Code	   RE Isn  Source Statement  [ ********                       ]				    Error
  		  1 2 3 4 5 6 7 8	   ....*....1....*....2....*....3....*....4....*....5....*....6....*....7....*....8
         0000026D 65		     
         0000026E 20		     
         0000026F 74		     
         00000270 69		     
         00000271 65		      0296 		   db	     065h,070h,020h,0					   
         00000272 70		     
         00000273 20		     
         00000274 00		     
                  		      0297 S91:										   
         00000275 74		      0298 		   db	     074h,068h,065h,06fh,0				   
         00000276 68		     
         00000277 65		     
         00000278 6F		     
         00000279 00		     
                  		      0299 S92:										   
         0000027A 00		      0300 		   db	     0							   
                  		      0301 S93:										   
         0000027B 20		      0302 		   db	     020h,0						   
         0000027C 00		     
                  		      0303 S94:										   
         0000027D 00		      0304 		   db	     0							   
                  		      0305 S95:										   
         0000027E 45		      0306 		   db	     045h,04eh,054h,03ah,020h				   
         0000027F 4E		     
         00000280 54		     
         00000281 3A		     
         00000282 20		     
         00000283 48		      0307 		   db	     048h,06fh,061h,06eh,020h				   
         00000284 6F		     
         00000285 61		     
         00000286 6E		     
         00000287 20		     
         00000288 54		      0308 		   db	     054h,068h,061h,06eh,068h				   
         00000289 68		     
         0000028A 61		     
         0000028B 6E		     
         0000028C 68		     
         0000028D 00		      0309 		   db	     0							   
                  		      0310 S96:										   
         0000028E 4D		      0311 		   db	     04dh,033h,030h,034h,0				   
         0000028F 33		     
         00000290 30		     
         00000291 34		     
         00000292 00		     
                  		      0312 S97:										   
         00000293 00		      0313 		   db	     0							   
                  		      0314 S98:										   
         00000294 6C		      0315 		   db	     06ch,06fh,063h,061h,074h				   
         00000295 6F		     
         00000296 63		     
         00000297 61		     
         00000298 74		     
         00000299 69		      0316 		   db	     069h,06fh,06eh,0					   
         0000029A 6F		     


   CROSS ASSEMBLER     V10-L41   (8901)  XASS-V                                           Sat 02-Mar-2019 11:01:07      PAGE-0016
											              ARM               0102
Addr     Location Object-Code	   RE Isn  Source Statement  [ ********                       ]				    Error
  		  1 2 3 4 5 6 7 8	   ....*....1....*....2....*....3....*....4....*....5....*....6....*....7....*....8
         0000029B 6E		     
         0000029C 00		     
                  		      0317 S99:										   
         0000029D 75		      0318 		   db	     075h,073h,065h,072h,0				   
         0000029E 73		     
         0000029F 65		     
         000002A0 72		     
         000002A1 00		     
                  		      0319 S100:									   
         000002A2 4F		      0320 		   db	     04fh,053h,031h,0					   
         000002A3 53		     
         000002A4 31		     
         000002A5 00		     
                  		      0321 S101:									   
         000002A6 4F		      0322 		   db	     04fh,053h,031h,0					   
         000002A7 53		     
         000002A8 31		     
         000002A9 00		     
                  		      0323 S102:									   
         000002AA 4F		      0324 		   db	     04fh,052h,031h,0					   
         000002AB 52		     
         000002AC 31		     
         000002AD 00		     
                  		      0325 S103:									   
         000002AE 4F		      0326 		   db	     04fh,052h,031h,0					   
         000002AF 52		     
         000002B0 31		     
         000002B1 00		     
                  		      0327 S104:									   
         000002B2 54		      0328 		   db	     054h,068h,069h,073h,020h				   
         000002B3 68		     
         000002B4 69		     
         000002B5 73		     
         000002B6 20		     
         000002B7 66		      0329 		   db	     066h,075h,06eh,063h,074h				   
         000002B8 75		     
         000002B9 6E		     
         000002BA 63		     
         000002BB 74		     
         000002BC 69		      0330 		   db	     069h,06fh,06eh,020h,064h				   
         000002BD 6F		     
         000002BE 6E		     
         000002BF 20		     
         000002C0 64		     
         000002C1 6F		      0331 		   db	     06fh,065h,073h,06eh,027h				   
         000002C2 65		     
         000002C3 73		     
         000002C4 6E		     
         000002C5 27		     
         000002C6 74		      0332 		   db	     074h,020h,065h,078h,069h				   
         000002C7 20		     
         000002C8 65		     
         000002C9 78		     
         000002CA 69		     


   CROSS ASSEMBLER     V10-L41   (8901)  XASS-V                                           Sat 02-Mar-2019 11:01:07      PAGE-0017
											              ARM               0102
Addr     Location Object-Code	   RE Isn  Source Statement  [ ********                       ]				    Error
  		  1 2 3 4 5 6 7 8	   ....*....1....*....2....*....3....*....4....*....5....*....6....*....7....*....8
         000002CB 73		      0333 		   db	     073h,074h,073h,021h,021h				   
         000002CC 74		     
         000002CD 73		     
         000002CE 21		     
         000002CF 21		     
         000002D0 21		      0334 		   db	     021h,0						   
         000002D1 00		     
                  		      0335 S105:									   
         000002D2 43		      0336 		   db	     043h,06fh,06dh,06dh,061h				   
         000002D3 6F		     
         000002D4 6D		     
         000002D5 6D		     
         000002D6 61		     
         000002D7 6E		      0337 		   db	     06eh,064h,020h,044h,069h				   
         000002D8 64		     
         000002D9 20		     
         000002DA 44		     
         000002DB 69		     
         000002DC 73		      0338 		   db	     073h,074h,02eh,0					   
         000002DD 74		     
         000002DE 2E		     
         000002DF 00		     
                  		      0339 S106:									   
         000002E0 56		      0340 		   db	     056h,04eh,04eh,020h,04eh				   
         000002E1 4E		     
         000002E2 4E		     
         000002E3 20		     
         000002E4 4E		     
         000002E5 4F		      0341 		   db	     04fh,04bh,0					   
         000002E6 4B		     
         000002E7 00		     
                  		      0342 S107:									   
         000002E8 50		      0343 		   db	     050h,061h,06ch,06ch,065h				   
         000002E9 61		     
         000002EA 6C		     
         000002EB 6C		     
         000002EC 65		     
         000002ED 74		      0344 		   db	     074h,065h,020h,043h,061h				   
         000002EE 65		     
         000002EF 20		     
         000002F0 43		     
         000002F1 61		     
         000002F2 6E		      0345 		   db	     06eh,020h,043h,068h,075h				   
         000002F3 20		     
         000002F4 43		     
         000002F5 68		     
         000002F6 75		     
         000002F7 79		      0346 		   db	     079h,065h,06eh,0					   
         000002F8 65		     
         000002F9 6E		     
         000002FA 00		     
                  		      0347 S108:									   
         000002FB 00		      0348 		   db	     0							   
                  		      0349 S109:									   


   CROSS ASSEMBLER     V10-L41   (8901)  XASS-V                                           Sat 02-Mar-2019 11:01:07      PAGE-0018
											              ARM               0102
Addr     Location Object-Code	   RE Isn  Source Statement  [ ********                       ]				    Error
  		  1 2 3 4 5 6 7 8	   ....*....1....*....2....*....3....*....4....*....5....*....6....*....7....*....8
         000002FC 25		      0350 		   db	     025h,073h,0					   
         000002FD 73		     
         000002FE 00		     
                  		      0351 S110:									   
         000002FF 4D		      0352 		   db	     04dh,033h,030h,032h,0				   
         00000300 33		     
         00000301 30		     
         00000302 32		     
         00000303 00		     
                  		      0353 S111:									   
         00000304 53		      0354 		   db	     053h,030h,031h,0					   
         00000305 30		     
         00000306 31		     
         00000307 00		     
                  		      0355 S112:									   
         00000308 51		      0356 		   db	     051h,075h,065h,074h,020h				   
         00000309 75		     
         0000030A 65		     
         0000030B 74		     
         0000030C 20		     
         0000030D 42		      0357 		   db	     042h,06fh,078h,020h,073h				   
         0000030E 6F		     
         0000030F 78		     
         00000310 20		     
         00000311 73		     
         00000312 61		      0358 		   db	     061h,070h,020h,078h,065h				   
         00000313 70		     
         00000314 20		     
         00000315 78		     
         00000316 65		     
         00000317 70		      0359 		   db	     070h,0						   
         00000318 00		     
                  		      0360 S113:									   
         00000319 00		      0361 		   db	     0							   
                  		      0362 S114:									   
         0000031A 00		      0363 		   db	     0							   
                  		      0364 S115:									   
         0000031B 54		      0365 		   db	     054h,06fh,06eh,067h,020h				   
         0000031C 6F		     
         0000031D 6E		     
         0000031E 67		     
         0000031F 20		     
         00000320 73		      0366 		   db	     073h,06fh,020h,042h,06fh				   
         00000321 6F		     
         00000322 20		     
         00000323 42		     
         00000324 6F		     
         00000325 78		      0367 		   db	     078h,03ah,020h,025h,06ch				   
         00000326 3A		     
         00000327 20		     
         00000328 25		     
         00000329 6C		     
         0000032A 64		      0368 		   db	     064h,0						   
         0000032B 00		     


   CROSS ASSEMBLER     V10-L41   (8901)  XASS-V                                           Sat 02-Mar-2019 11:01:07      PAGE-0019
											              ARM               0102
Addr     Location Object-Code	   RE Isn  Source Statement  [ ********                       ]				    Error
  		  1 2 3 4 5 6 7 8	   ....*....1....*....2....*....3....*....4....*....5....*....6....*....7....*....8
                  		      0369 S116:									   
         0000032C 25		      0370 		   db	     025h,073h,040h,025h,073h				   
         0000032D 73		     
         0000032E 40		     
         0000032F 25		     
         00000330 73		     
         00000331 00		      0371 		   db	     0							   
                  		      0372 S117:									   
         00000332 54		      0373 		   db	     054h,06fh,06eh,067h,020h				   
         00000333 6F		     
         00000334 6E		     
         00000335 67		     
         00000336 20		     
         00000337 73		      0374 		   db	     073h,06fh,020h,042h,06fh				   
         00000338 6F		     
         00000339 20		     
         0000033A 42		     
         0000033B 6F		     
         0000033C 78		      0375 		   db	     078h,03ah,020h,025h,06ch				   
         0000033D 3A		     
         0000033E 20		     
         0000033F 25		     
         00000340 6C		     
         00000341 64		      0376 		   db	     064h,0						   
         00000342 00		     
                  		      0377 S118:									   
         00000343 56		      0378 		   db	     056h,04eh,04eh,020h,04eh				   
         00000344 4E		     
         00000345 4E		     
         00000346 20		     
         00000347 4E		     
         00000348 4F		      0379 		   db	     04fh,04bh,0					   
         00000349 4B		     
         0000034A 00		     
                  		      0380 S119:									   
         0000034B 5B		      0381 		   db	     05bh,054h,068h,06fh,06eh				   
         0000034C 54		     
         0000034D 68		     
         0000034E 6F		     
         0000034F 6E		     
         00000350 67		      0382 		   db	     067h,020h,074h,069h,06eh				   
         00000351 20		     
         00000352 74		     
         00000353 69		     
         00000354 6E		     
         00000355 5D		      0383 		   db	     05dh,0						   
         00000356 00		     
                  		      0384 S120:									   
         00000357 00		      0385 		   db	     0							   
                  		      0386 S121:									   
         00000358 00		      0387 		   db	     0							   
                  		      0388 S122:									   
         00000359 43		      0389 		   db	     043h,03ah,020h,054h,068h				   
         0000035A 3A		     


   CROSS ASSEMBLER     V10-L41   (8901)  XASS-V                                           Sat 02-Mar-2019 11:01:07      PAGE-0020
											              ARM               0102
Addr     Location Object-Code	   RE Isn  Source Statement  [ ********                       ]				    Error
  		  1 2 3 4 5 6 7 8	   ....*....1....*....2....*....3....*....4....*....5....*....6....*....7....*....8
         0000035B 20		     
         0000035C 54		     
         0000035D 68		     
         0000035E 6F		      0390 		   db	     06fh,061h,074h,0					   
         0000035F 61		     
         00000360 74		     
         00000361 00		     
                  		      0391 S123:									   
         00000362 45		      0392 		   db	     045h,04eh,054h,03ah,020h				   
         00000363 4E		     
         00000364 54		     
         00000365 3A		     
         00000366 20		     
         00000367 47		      0393 		   db	     047h,075h,069h,0					   
         00000368 75		     
         00000369 69		     
         0000036A 00		     
                  		      0394 S124:									   
         0000036B 25		      0395 		   db	     025h,073h,025h,073h,0				   
         0000036C 73		     
         0000036D 25		     
         0000036E 73		     
         0000036F 00		     
                  		      0396 S125:									   
         00000370 4D		      0397 		   db	     04dh,033h,030h,032h,0				   
         00000371 33		     
         00000372 30		     
         00000373 32		     
         00000374 00		     
                  		      0398 S126:									   
         00000375 53		      0399 		   db	     053h,030h,032h,0					   
         00000376 30		     
         00000377 32		     
         00000378 00		     
                  		      0400 S127:									   
         00000379 51		      0401 		   db	     051h,075h,065h,074h,020h				   
         0000037A 75		     
         0000037B 65		     
         0000037C 74		     
         0000037D 20		     
         0000037E 42		      0402 		   db	     042h,06fh,078h,020h,073h				   
         0000037F 6F		     
         00000380 78		     
         00000381 20		     
         00000382 73		     
         00000383 61		      0403 		   db	     061h,070h,020h,078h,065h				   
         00000384 70		     
         00000385 20		     
         00000386 78		     
         00000387 65		     
         00000388 70		      0404 		   db	     070h,0						   
         00000389 00		     
                  		      0405 S128:									   
         0000038A 00		      0406 		   db	     0							   


   CROSS ASSEMBLER     V10-L41   (8901)  XASS-V                                           Sat 02-Mar-2019 11:01:07      PAGE-0021
											              ARM               0102
Addr     Location Object-Code	   RE Isn  Source Statement  [ ********                       ]				    Error
  		  1 2 3 4 5 6 7 8	   ....*....1....*....2....*....3....*....4....*....5....*....6....*....7....*....8
                  		      0407 S129:									   
         0000038B 00		      0408 		   db	     0							   
                  		      0409 S130:									   
         0000038C 20		      0410 		   db	     020h,020h,020h,020h,020h				   
         0000038D 20		     
         0000038E 20		     
         0000038F 20		     
         00000390 20		     
         00000391 5B		      0411 		   db	     05bh,04ch,05dh,020h,054h				   
         00000392 4C		     
         00000393 5D		     
         00000394 20		     
         00000395 54		     
         00000396 68		      0412 		   db	     068h,06fh,061h,074h,0				   
         00000397 6F		     
         00000398 61		     
         00000399 74		     
         0000039A 00		     
                  		      0413 S131:									   
         0000039B 25		      0414 		   db	     025h,073h,0					   
         0000039C 73		     
         0000039D 00		     
                  		      0415 S132:									   
         0000039E 4D		      0416 		   db	     04dh,033h,030h,032h,0				   
         0000039F 33		     
         000003A0 30		     
         000003A1 32		     
         000003A2 00		     
                  		      0417 S133:									   
         000003A3 53		      0418 		   db	     053h,030h,033h,0					   
         000003A4 30		     
         000003A5 33		     
         000003A6 00		     
         000003A7 		      0419 		   ds	     1			       ; bnd 4			   
                  		      0420 %%BFILE   'C:\Users\11709931\Desktop\KEYENC~1\keyence\App300.c' ,190302105251,75
                  		           8										   
00000000          		      0421 C_App300	   sect	   code							   
         00000000 		      0422 		   code32							   
                  		      0423 %%REGPARA R0									   
                  		      0424 %%BFILE   'C:\Users\11709931\Desktop\KEYENC~1\keyence\App300.h' ,190302105120,40
                  		      0425 %%BFILE   'P:\pdrv\barlib\Keyence\nokbt1500.h' ,161112115905,309		   
                  		      0426 %%BFILE   'C:\Users\11709931\Desktop\KEYENC~1\keyence\inc\btlib.h' ,181122094114
                  		           ,1243									   
                  		      0427 %%BFILE   'C:\keyence\CPP\INCLUDE\string.h' ,000112113136,50			   
                  		      0428 %%BFILE   'C:\keyence\CPP\INCLUDE\memory.h' ,000112113136,27			   
                  		      0429 %%TYP     'void'		 ,   0, 0, 0,	11111111b, 0,0,0		   
                  		      0430 %%TYP     'char'		 ,   1, 2, 1,	00111111b, 4,0,2		   
                  		      0431 %%TYP     'unsigned char'	 ,   2, 2, 1,	01111111b, 4,0,2		   
                  		      0432 %%TYP     'short'		 ,   3, 3, 2,	00111111b, 4,0,2		   
                  		      0433 %%TYP     'unsigned short'	 ,   4, 3, 2,	01111111b, 4,0,2		   
                  		      0434 %%TYP     'int'		 ,   5, 3, 4,	00111111b, 4,0,2		   
                  		      0435 %%TYP     'unsigned int'	 ,   6, 3, 4,	01111111b, 4,0,2		   
                  		      0436 %%TYP     'long'		 ,   7, 3, 4,	00111111b, 4,0,2		   
                  		      0437 %%TYP     'unsigned long'	 ,   8, 3, 4,	01111111b, 4,0,2		   


   CROSS ASSEMBLER     V10-L41   (8901)  XASS-V                                           Sat 02-Mar-2019 11:01:07      PAGE-0022
											              ARM               0102
Addr     Location Object-Code	   RE Isn  Source Statement  [ ********                       ]				    Error
  		  1 2 3 4 5 6 7 8	   ....*....1....*....2....*....3....*....4....*....5....*....6....*....7....*....8
                  		      0438 %%TYP     'float'		 ,   9, 4, 4,	00000000b, 4,0,2		   
                  		      0439 %%TYP     'double'		 ,  10, 4, 8,	00000001b, 8,0,3		   
                  		      0440 %%TYP     'enum'		 ,  11, 8, 4,	00111111b, 4,0,2		   
                  		      0441 %%TYP     'struct'		 ,  12, 9, 0,	11111111b, 0,0,4		   
                  		      0442 %%TYP     'union'		 ,  13,10, 0,	11111111b, 0,0,4		   
                  		      0443 %%TYP     'pointer'		 ,  14,11, 4,	01111111b, 4,0,2		   
                  		      0444 %%EFILE   									   
                  		      0445 %%EFILE   									   
                  		      0446 %%BFILE   'C:\keyence\CPP\INCLUDE\stdlib.h' ,000112113136,58			   
                  		      0447 %%EFILE   									   
                  		      0448 %%EFILE   									   
                  		      0449 %%BFILE   'C:\Users\11709931\Desktop\KEYENC~1\keyence\inc\btext.h' ,150123134216
                  		           ,548										   
                  		      0450 %%EFILE   									   
                  		      0451 %%EFILE   									   
                  		      0452 %%BFILE   'C:\Users\11709931\Desktop\KEYENC~1\keyence\Common.h' ,190302090540,60
                  		      0453 %%EFILE   									   
                  		      0454 %%EFILE   									   
                  		      0455 %%SYM     _iobuf,9,type=12,id=1,size=16					   
                  		      0456 %%DDS     									   
                  		      0457 %%SYM     _cnt,7,type=5,val=0,size=4						   
                  		      0458 %%SYM     _ptr,7,type=2,val=4,size=4						   
                  		      0459 %%DTY     									   
                  		      0460 %%DPT     									   
                  		      0461 %%ENDD    									   
                  		      0462 %%SYM     _base,7,type=2,val=8,size=4					   
                  		      0463 %%DTY     									   
                  		      0464 %%DPT     									   
                  		      0465 %%ENDD    									   
                  		      0466 %%SYM     _flag,7,type=3,val=12,size=2					   
                  		      0467 %%SYM     _file,7,type=2,val=14,size=1					   
                  		      0468 %%ENDD    									   
                  		      0469 %%SYM     _dateinfo,9,type=12,id=2,size=4					   
                  		      0470 %%DDS     									   
                  		      0471 %%SYM     year,7,type=3,val=0,size=2						   
                  		      0472 %%SYM     month,7,type=2,val=2,size=1					   
                  		      0473 %%SYM     day,7,type=2,val=3,size=1						   
                  		      0474 %%ENDD    									   
                  		      0475 %%SYM     _timeinfo,9,type=12,id=3,size=4					   
                  		      0476 %%DDS     									   
                  		      0477 %%SYM     hour,7,type=2,val=0,size=1						   
                  		      0478 %%SYM     min,7,type=2,val=1,size=1						   
                  		      0479 %%SYM     sec,7,type=2,val=2,size=1						   
                  		      0480 %%SYM     reserve,7,type=2,val=3,size=1					   
                  		      0481 %%ENDD    									   
                  		      0482 %%SYM     _tposition,9,type=12,id=4,size=4					   
                  		      0483 %%DDS     									   
                  		      0484 %%SYM     x,7,type=3,val=0,size=2						   
                  		      0485 %%SYM     y,7,type=3,val=2,size=2						   
                  		      0486 %%ENDD    									   
                  		      0487 %%SYM     _gposition,9,type=12,id=5,size=4					   
                  		      0488 %%DDS     									   
                  		      0489 %%SYM     x,7,type=3,val=0,size=2						   
                  		      0490 %%SYM     y,7,type=3,val=2,size=2						   


   CROSS ASSEMBLER     V10-L41   (8901)  XASS-V                                           Sat 02-Mar-2019 11:01:07      PAGE-0023
											              ARM               0102
Addr     Location Object-Code	   RE Isn  Source Statement  [ ********                       ]				    Error
  		  1 2 3 4 5 6 7 8	   ....*....1....*....2....*....3....*....4....*....5....*....6....*....7....*....8
                  		      0491 %%ENDD    									   
                  		      0492 %%SYM     _dspattr,9,type=12,id=6,size=12					   
                  		      0493 %%DDS     									   
                  		      0494 %%SYM     tposition,7,sym=4,val=0,size=4					   
                  		      0495 %%SYM     attribute,7,type=3,val=4,size=2					   
                  		      0496 %%SYM     mag,7,type=3,val=6,size=2						   
                  		      0497 %%SYM     fold,7,type=3,val=8,size=2						   
                  		      0498 %%ENDD    									   
                  		      0499 %%SYM     _dspattrg,9,type=12,id=7,size=12					   
                  		      0500 %%DDS     									   
                  		      0501 %%SYM     gposition,7,sym=5,val=0,size=4					   
                  		      0502 %%SYM     attribute,7,type=3,val=4,size=2					   
                  		      0503 %%SYM     mag,7,type=3,val=6,size=2						   
                  		      0504 %%SYM     fold,7,type=3,val=8,size=2						   
                  		      0505 %%ENDD    									   
                  		      0506 %%SYM     _menuinfo,9,type=12,id=8,size=80					   
                  		      0507 %%DDS     									   
                  		      0508 %%SYM     rsv0,7,type=3,val=0,size=2						   
                  		      0509 %%SYM     tenkeydirect,7,type=3,val=2,size=2					   
                  		      0510 %%SYM     totalitem,7,type=3,val=4,size=2					   
                  		      0511 %%SYM     inititem,7,type=3,val=6,size=2					   
                  		      0512 %%SYM     menuitem,7,type=2,val=8,size=64					   
                  		      0513 %%DTY     									   
                  		      0514 %%DPT     									   
                  		      0515 %%DAR     4,16								   
                  		      0516 %%ENDD    									   
                  		      0517 %%SYM     rsv1,7,type=3,val=72,size=2					   
                  		      0518 %%SYM     rsv2,7,type=3,val=74,size=2					   
                  		      0519 %%SYM     rsv3,7,type=3,val=76,size=2					   
                  		      0520 %%ENDD    									   
                  		      0521 %%SYM     _keyfunc,9,type=12,id=9,size=12					   
                  		      0522 %%DDS     									   
                  		      0523 %%SYM     F1,7,type=2,val=0,size=1						   
                  		      0524 %%SYM     F2,7,type=2,val=1,size=1						   
                  		      0525 %%SYM     F3,7,type=2,val=2,size=1						   
                  		      0526 %%SYM     L,7,type=2,val=3,size=1						   
                  		      0527 %%SYM     R,7,type=2,val=4,size=1						   
                  		      0528 %%SYM     Trg,7,type=2,val=5,size=1						   
                  		      0529 %%SYM     minus,7,type=2,val=6,size=3					   
                  		      0530 %%DTY     									   
                  		      0531 %%DAR     1,3								   
                  		      0532 %%ENDD    									   
                  		      0533 %%ENDD    									   
                  		      0534 %%SYM     _inputintegerattr,9,type=12,id=10,size=12				   
                  		      0535 %%DDS     									   
                  		      0536 %%SYM     inputtype,7,type=3,val=0,size=2					   
                  		      0537 %%SYM     inputarea,7,type=3,val=2,size=2					   
                  		      0538 %%SYM     minvalue,7,type=7,val=4,size=4					   
                  		      0539 %%SYM     maxvalue,7,type=7,val=8,size=4					   
                  		      0540 %%ENDD    									   
                  		      0541 %%SYM     _inputdecimalattr,9,type=12,id=11,size=16				   
                  		      0542 %%DDS     									   
                  		      0543 %%SYM     inputtype,7,type=3,val=0,size=2					   
                  		      0544 %%SYM     inputarea,7,type=3,val=2,size=2					   


   CROSS ASSEMBLER     V10-L41   (8901)  XASS-V                                           Sat 02-Mar-2019 11:01:07      PAGE-0024
											              ARM               0102
Addr     Location Object-Code	   RE Isn  Source Statement  [ ********                       ]				    Error
  		  1 2 3 4 5 6 7 8	   ....*....1....*....2....*....3....*....4....*....5....*....6....*....7....*....8
                  		      0545 %%SYM     minvalue,7,type=7,val=4,size=4					   
                  		      0546 %%SYM     maxvalue,7,type=7,val=8,size=4					   
                  		      0547 %%SYM     digit,7,type=3,val=12,size=2					   
                  		      0548 %%ENDD    									   
                  		      0549 %%SYM     _inputstrattr,9,type=12,id=12,size=8				   
                  		      0550 %%DDS     									   
                  		      0551 %%SYM     inputtype,7,type=3,val=0,size=2					   
                  		      0552 %%SYM     inputarea,7,type=3,val=2,size=2					   
                  		      0553 %%SYM     mindigit,7,type=3,val=4,size=2					   
                  		      0554 %%SYM     maxdigit,7,type=3,val=6,size=2					   
                  		      0555 %%ENDD    									   
                  		      0556 %%SYM     _bcrconf,9,type=12,id=13,size=16					   
                  		      0557 %%DDS     									   
                  		      0558 %%SYM     mode,7,type=3,val=0,size=2						   
                  		      0559 %%SYM     trial,7,type=3,val=2,size=2					   
                  		      0560 %%SYM     overlap,7,type=3,val=4,size=2					   
                  		      0561 %%SYM     comparecnt,7,type=3,val=6,size=2					   
                  		      0562 %%SYM     rsv1,7,type=3,val=8,size=2						   
                  		      0563 %%SYM     rsv2,7,type=3,val=10,size=2					   
                  		      0564 %%SYM     rsv3,7,type=3,val=12,size=2					   
                  		      0565 %%SYM     rsv4,7,type=3,val=14,size=2					   
                  		      0566 %%ENDD    									   
                  		      0567 %%SYM     _jancodeset,9,type=12,id=14,size=4					   
                  		      0568 %%DDS     									   
                  		      0569 %%SYM     flgset,7,type=4,val=0,size=2					   
                  		      0570 %%SYM     AdGap_min,7,type=2,val=2,size=1					   
                  		      0571 %%SYM     AdGap_max,7,type=2,val=3,size=1					   
                  		      0572 %%ENDD    									   
                  		      0573 %%SYM     _c39codeset,9,type=12,id=15,size=8					   
                  		      0574 %%DDS     									   
                  		      0575 %%SYM     min,7,type=4,val=0,size=2						   
                  		      0576 %%SYM     max,7,type=4,val=2,size=2						   
                  		      0577 %%SYM     flgset,7,type=4,val=4,size=2					   
                  		      0578 %%SYM     rsv1,7,type=3,val=6,size=2						   
                  		      0579 %%ENDD    									   
                  		      0580 %%SYM     _e128codeset,9,type=12,id=16,size=8				   
                  		      0581 %%DDS     									   
                  		      0582 %%SYM     min,7,type=4,val=0,size=2						   
                  		      0583 %%SYM     max,7,type=4,val=2,size=2						   
                  		      0584 %%SYM     flgset,7,type=4,val=4,size=2					   
                  		      0585 %%SYM     separator,7,type=2,val=6,size=1					   
                  		      0586 %%SYM     rsv,7,type=2,val=7,size=1						   
                  		      0587 %%ENDD    									   
                  		      0588 %%SYM     _c128codeset,9,type=12,id=17,size=8				   
                  		      0589 %%DDS     									   
                  		      0590 %%SYM     min,7,type=4,val=0,size=2						   
                  		      0591 %%SYM     max,7,type=4,val=2,size=2						   
                  		      0592 %%SYM     flgset,7,type=4,val=4,size=2					   
                  		      0593 %%SYM     rsv1,7,type=3,val=6,size=2						   
                  		      0594 %%ENDD    									   
                  		      0595 %%SYM     _itfcodeset,9,type=12,id=18,size=8					   
                  		      0596 %%DDS     									   
                  		      0597 %%SYM     min,7,type=4,val=0,size=2						   
                  		      0598 %%SYM     max,7,type=4,val=2,size=2						   


   CROSS ASSEMBLER     V10-L41   (8901)  XASS-V                                           Sat 02-Mar-2019 11:01:07      PAGE-0025
											              ARM               0102
Addr     Location Object-Code	   RE Isn  Source Statement  [ ********                       ]				    Error
  		  1 2 3 4 5 6 7 8	   ....*....1....*....2....*....3....*....4....*....5....*....6....*....7....*....8
                  		      0599 %%SYM     flgset,7,type=4,val=4,size=2					   
                  		      0600 %%SYM     rsv1,7,type=3,val=6,size=2						   
                  		      0601 %%ENDD    									   
                  		      0602 %%SYM     _nw7codeset,9,type=12,id=19,size=8					   
                  		      0603 %%DDS     									   
                  		      0604 %%SYM     min,7,type=4,val=0,size=2						   
                  		      0605 %%SYM     max,7,type=4,val=2,size=2						   
                  		      0606 %%SYM     flgset,7,type=4,val=4,size=2					   
                  		      0607 %%SYM     rsv1,7,type=3,val=6,size=2						   
                  		      0608 %%ENDD    									   
                  		      0609 %%SYM     _c93codeset,9,type=12,id=20,size=8					   
                  		      0610 %%DDS     									   
                  		      0611 %%SYM     min,7,type=4,val=0,size=2						   
                  		      0612 %%SYM     max,7,type=4,val=2,size=2						   
                  		      0613 %%SYM     flgset,7,type=4,val=4,size=2					   
                  		      0614 %%SYM     rsv1,7,type=3,val=6,size=2						   
                  		      0615 %%ENDD    									   
                  		      0616 %%SYM     _tofcodeset,9,type=12,id=21,size=4					   
                  		      0617 %%DDS     									   
                  		      0618 %%SYM     min,7,type=4,val=0,size=2						   
                  		      0619 %%SYM     max,7,type=4,val=2,size=2						   
                  		      0620 %%ENDD    									   
                  		      0621 %%SYM     _coopcodeset,9,type=12,id=22,size=4				   
                  		      0622 %%DDS     									   
                  		      0623 %%SYM     min,7,type=4,val=0,size=2						   
                  		      0624 %%SYM     max,7,type=4,val=2,size=2						   
                  		      0625 %%ENDD    									   
                  		      0626 %%SYM     _qrcodeset,9,type=12,id=23,size=8					   
                  		      0627 %%DDS     									   
                  		      0628 %%SYM     min,7,type=4,val=0,size=2						   
                  		      0629 %%SYM     max,7,type=4,val=2,size=2						   
                  		      0630 %%SYM     flgset,7,type=4,val=4,size=2					   
                  		      0631 %%ENDD    									   
                  		      0632 %%SYM     _pdfcodeset,9,type=12,id=24,size=8					   
                  		      0633 %%DDS     									   
                  		      0634 %%SYM     min,7,type=4,val=0,size=2						   
                  		      0635 %%SYM     max,7,type=4,val=2,size=2						   
                  		      0636 %%SYM     flgset,7,type=4,val=4,size=2					   
                  		      0637 %%ENDD    									   
                  		      0638 %%SYM     _dmcodeset,9,type=12,id=25,size=8					   
                  		      0639 %%DDS     									   
                  		      0640 %%SYM     min,7,type=4,val=0,size=2						   
                  		      0641 %%SYM     max,7,type=4,val=2,size=2						   
                  		      0642 %%SYM     flgset,7,type=4,val=4,size=2					   
                  		      0643 %%ENDD    									   
                  		      0644 %%SYM     _mccodeset,9,type=12,id=26,size=8					   
                  		      0645 %%DDS     									   
                  		      0646 %%SYM     min,7,type=4,val=0,size=2						   
                  		      0647 %%SYM     max,7,type=4,val=2,size=2						   
                  		      0648 %%SYM     flgset,7,type=4,val=4,size=2					   
                  		      0649 %%ENDD    									   
                  		      0650 %%SYM     _rsscodeset,9,type=12,id=27,size=8					   
                  		      0651 %%DDS     									   
                  		      0652 %%SYM     min,7,type=4,val=0,size=2						   


   CROSS ASSEMBLER     V10-L41   (8901)  XASS-V                                           Sat 02-Mar-2019 11:01:07      PAGE-0026
											              ARM               0102
Addr     Location Object-Code	   RE Isn  Source Statement  [ ********                       ]				    Error
  		  1 2 3 4 5 6 7 8	   ....*....1....*....2....*....3....*....4....*....5....*....6....*....7....*....8
                  		      0653 %%SYM     max,7,type=4,val=2,size=2						   
                  		      0654 %%SYM     flgset,7,type=4,val=4,size=2					   
                  		      0655 %%ENDD    									   
                  		      0656 %%SYM     _compositeset,9,type=12,id=28,size=4				   
                  		      0657 %%DDS     									   
                  		      0658 %%SYM     flgset,7,type=4,val=0,size=2					   
                  		      0659 %%SYM     separator,7,type=2,val=2,size=1					   
                  		      0660 %%SYM     rsv,7,type=2,val=3,size=1						   
                  		      0661 %%ENDD    									   
                  		      0662 %%SYM     _bcrcodeset,9,type=12,id=29,size=60				   
                  		      0663 %%DDS     									   
                  		      0664 %%SYM     JAN,7,sym=14,val=0,size=4						   
                  		      0665 %%SYM     CODE39,7,sym=15,val=4,size=8					   
                  		      0666 %%SYM     EAN128,7,sym=16,val=12,size=8					   
                  		      0667 %%SYM     CODE128,7,sym=17,val=20,size=8					   
                  		      0668 %%SYM     ITF,7,sym=18,val=28,size=8						   
                  		      0669 %%SYM     NW7,7,sym=19,val=36,size=8						   
                  		      0670 %%SYM     CODE93,7,sym=20,val=44,size=8					   
                  		      0671 %%SYM     TOF,7,sym=21,val=52,size=4						   
                  		      0672 %%SYM     COOP,7,sym=22,val=56,size=4					   
                  		      0673 %%ENDD    									   
                  		      0674 %%SYM     _bcrinput,9,type=12,id=30,size=132					   
                  		      0675 %%DDS     									   
                  		      0676 %%SYM     keta,7,type=3,val=0,size=2						   
                  		      0677 %%SYM     codetype,7,type=3,val=2,size=2					   
                  		      0678 %%SYM     bcrdata,7,type=2,val=4,size=128					   
                  		      0679 %%DTY     									   
                  		      0680 %%DAR     1,128								   
                  		      0681 %%ENDD    									   
                  		      0682 %%ENDD    									   
                  		      0683 %%SYM     _bcr_result_report,9,type=12,id=31,size=12				   
                  		      0684 %%DDS     									   
                  		      0685 %%SYM     keta,7,type=3,val=0,size=2						   
                  		      0686 %%SYM     codetype,7,type=3,val=2,size=2					   
                  		      0687 %%SYM     composite,7,type=3,val=4,size=2					   
                  		      0688 %%SYM     quality,7,type=3,val=6,size=2					   
                  		      0689 %%SYM     extraType,7,type=2,val=8,size=1					   
                  		      0690 %%SYM     codelink,7,type=2,val=9,size=1					   
                  		      0691 %%ENDD    									   
                  		      0692 %%SYM     _bcr_result_qr_report,9,type=12,id=32,size=8			   
                  		      0693 %%DDS     									   
                  		      0694 %%SYM     pos,7,type=3,val=0,size=2						   
                  		      0695 %%SYM     parity,7,type=3,val=2,size=2					   
                  		      0696 %%SYM     count,7,type=3,val=4,size=2					   
                  		      0697 %%ENDD    									   
                  		      0698 %%SYM     _bcr_fulldetection_column,9,type=12,id=33,size=4			   
                  		      0699 %%DDS     									   
                  		      0700 %%SYM     min,7,type=4,val=0,size=2						   
                  		      0701 %%SYM     max,7,type=4,val=2,size=2						   
                  		      0702 %%ENDD    									   
                  		      0703 %%SYM     _bcr_fulldetection_codeset,9,type=12,id=34,size=20			   
                  		      0704 %%DDS     									   
                  		      0705 %%SYM     type,7,type=3,val=0,size=2						   
                  		      0706 %%SYM     codecount,7,type=3,val=2,size=2					   


   CROSS ASSEMBLER     V10-L41   (8901)  XASS-V                                           Sat 02-Mar-2019 11:01:07      PAGE-0027
											              ARM               0102
Addr     Location Object-Code	   RE Isn  Source Statement  [ ********                       ]				    Error
  		  1 2 3 4 5 6 7 8	   ....*....1....*....2....*....3....*....4....*....5....*....6....*....7....*....8
                  		      0707 %%SYM     columneset,7,sym=33,val=4,size=16					   
                  		      0708 %%DTY     									   
                  		      0709 %%DAR     4,4								   
                  		      0710 %%ENDD    									   
                  		      0711 %%ENDD    									   
                  		      0712 %%SYM     _bcr_fulldetection_set,9,type=12,id=35,size=84			   
                  		      0713 %%DDS     									   
                  		      0714 %%SYM     typecount,7,type=3,val=0,size=2					   
                  		      0715 %%SYM     rsv1,7,type=3,val=2,size=2						   
                  		      0716 %%SYM     codeset,7,sym=34,val=4,size=80					   
                  		      0717 %%DTY     									   
                  		      0718 %%DAR     20,4								   
                  		      0719 %%ENDD    									   
                  		      0720 %%ENDD    									   
                  		      0721 %%SYM     _bcr_buzzer_action,9,type=12,id=36,size=12				   
                  		      0722 %%DDS     									   
                  		      0723 %%SYM     sw,7,type=3,val=0,size=2						   
                  		      0724 %%SYM     ontime,7,type=3,val=2,size=2					   
                  		      0725 %%SYM     offtime,7,type=3,val=4,size=2					   
                  		      0726 %%SYM     cnt,7,type=3,val=6,size=2						   
                  		      0727 %%SYM     pitch,7,type=3,val=8,size=2					   
                  		      0728 %%SYM     rsv1,7,type=3,val=10,size=2					   
                  		      0729 %%ENDD    									   
                  		      0730 %%SYM     _bcr_led_action,9,type=12,id=37,size=12				   
                  		      0731 %%DDS     									   
                  		      0732 %%SYM     sw,7,type=3,val=0,size=2						   
                  		      0733 %%SYM     ontime,7,type=3,val=2,size=2					   
                  		      0734 %%SYM     offtime,7,type=3,val=4,size=2					   
                  		      0735 %%SYM     cnt,7,type=3,val=6,size=2						   
                  		      0736 %%SYM     color,7,type=3,val=8,size=2					   
                  		      0737 %%SYM     rsv1,7,type=3,val=10,size=2					   
                  		      0738 %%ENDD    									   
                  		      0739 %%SYM     _bcr_vibrator_action,9,type=12,id=38,size=12			   
                  		      0740 %%DDS     									   
                  		      0741 %%SYM     sw,7,type=3,val=0,size=2						   
                  		      0742 %%SYM     ontime,7,type=3,val=2,size=2					   
                  		      0743 %%SYM     offtime,7,type=3,val=4,size=2					   
                  		      0744 %%SYM     cnt,7,type=3,val=6,size=2						   
                  		      0745 %%SYM     rsv1,7,type=3,val=8,size=2						   
                  		      0746 %%SYM     rsv2,7,type=3,val=10,size=2					   
                  		      0747 %%ENDD    									   
                  		      0748 %%SYM     _file_info,9,type=12,id=39,size=272				   
                  		      0749 %%DDS     									   
                  		      0750 %%SYM     drive,7,type=2,val=0,size=2					   
                  		      0751 %%DTY     									   
                  		      0752 %%DAR     1,2								   
                  		      0753 %%ENDD    									   
                  		      0754 %%SYM     filename,7,type=2,val=2,size=254					   
                  		      0755 %%DTY     									   
                  		      0756 %%DAR     1,254								   
                  		      0757 %%ENDD    									   
                  		      0758 %%SYM     isDirectory,7,type=2,val=256,size=1				   
                  		      0759 %%SYM     filesize,7,type=7,val=260,size=4					   
                  		      0760 %%SYM     year,7,type=3,val=264,size=2					   


   CROSS ASSEMBLER     V10-L41   (8901)  XASS-V                                           Sat 02-Mar-2019 11:01:07      PAGE-0028
											              ARM               0102
Addr     Location Object-Code	   RE Isn  Source Statement  [ ********                       ]				    Error
  		  1 2 3 4 5 6 7 8	   ....*....1....*....2....*....3....*....4....*....5....*....6....*....7....*....8
                  		      0761 %%SYM     month,7,type=2,val=266,size=1					   
                  		      0762 %%SYM     day,7,type=2,val=267,size=1					   
                  		      0763 %%SYM     hour,7,type=2,val=268,size=1					   
                  		      0764 %%SYM     min,7,type=2,val=269,size=1					   
                  		      0765 %%SYM     rsv2,7,type=2,val=270,size=1					   
                  		      0766 %%SYM     rsv3,7,type=2,val=271,size=1					   
                  		      0767 %%ENDD    									   
                  		      0768 %%SYM     _drive_info,9,type=12,id=40,size=16				   
                  		      0769 %%DDS     									   
                  		      0770 %%SYM     totalsize,7,type=7,val=0,size=4					   
                  		      0771 %%SYM     freesize,7,type=7,val=4,size=4					   
                  		      0772 %%SYM     invalidsize,7,type=7,val=8,size=4					   
                  		      0773 %%SYM     filecnt,7,type=3,val=12,size=2					   
                  		      0774 %%ENDD    									   
                  		      0775 %%SYM     _master_index,9,type=12,id=41,size=28				   
                  		      0776 %%DDS     									   
                  		      0777 %%SYM     datatype,7,type=3,val=0,size=2					   
                  		      0778 %%SYM     separator,7,type=2,val=2,size=1					   
                  		      0779 %%SYM     fieldcnt,7,type=1,val=3,size=1					   
                  		      0780 %%SYM     fieldlen,7,type=3,val=4,size=20					   
                  		      0781 %%DTY     									   
                  		      0782 %%DAR     2,10								   
                  		      0783 %%ENDD    									   
                  		      0784 %%SYM     rsv1,7,type=2,val=24,size=1					   
                  		      0785 %%SYM     rsv2,7,type=2,val=25,size=1					   
                  		      0786 %%ENDD    									   
                  		      0787 %%SYM     _master_search,9,type=12,id=42,size=48				   
                  		      0788 %%DDS     									   
                  		      0789 %%SYM     ope,7,type=2,val=0,size=1						   
                  		      0790 %%SYM     searchdata,7,type=2,val=4,size=40					   
                  		      0791 %%DTY     									   
                  		      0792 %%DPT     									   
                  		      0793 %%DAR     4,10								   
                  		      0794 %%ENDD    									   
                  		      0795 %%SYM     incdeldata,7,type=2,val=44,size=1					   
                  		      0796 %%SYM     rsv1,7,type=2,val=45,size=1					   
                  		      0797 %%ENDD    									   
                  		      0798 %%SYM     _alarm_pattern,9,type=12,id=43,size=76				   
                  		      0799 %%DDS     									   
                  		      0800 %%SYM     ontime,7,type=3,val=0,size=2					   
                  		      0801 %%SYM     offtime,7,type=3,val=2,size=2					   
                  		      0802 %%SYM     swBuzzer,7,type=3,val=4,size=2					   
                  		      0803 %%SYM     swVibration,7,type=3,val=6,size=2					   
                  		      0804 %%SYM     swLed,7,type=3,val=8,size=2					   
                  		      0805 %%SYM     count,7,type=3,val=10,size=2					   
                  		      0806 %%SYM     message,7,type=2,val=12,size=64					   
                  		      0807 %%DTY     									   
                  		      0808 %%DAR     1,64								   
                  		      0809 %%ENDD    									   
                  		      0810 %%ENDD    									   
                  		      0811 %%SYM     _lost_alarm,9,type=12,id=44,size=92				   
                  		      0812 %%DDS     									   
                  		      0813 %%SYM     sw,7,type=3,val=0,size=2						   
                  		      0814 %%SYM     watchtime,7,type=3,val=2,size=2					   


   CROSS ASSEMBLER     V10-L41   (8901)  XASS-V                                           Sat 02-Mar-2019 11:01:07      PAGE-0029
											              ARM               0102
Addr     Location Object-Code	   RE Isn  Source Statement  [ ********                       ]				    Error
  		  1 2 3 4 5 6 7 8	   ....*....1....*....2....*....3....*....4....*....5....*....6....*....7....*....8
                  		      0815 %%SYM     timestart,7,sym=3,val=4,size=4					   
                  		      0816 %%SYM     timestop,7,sym=3,val=8,size=4					   
                  		      0817 %%SYM     interval,7,type=3,val=12,size=2					   
                  		      0818 %%SYM     crsv1,7,type=2,val=14,size=2					   
                  		      0819 %%DTY     									   
                  		      0820 %%DAR     1,2								   
                  		      0821 %%ENDD    									   
                  		      0822 %%SYM     pattern,7,sym=43,val=16,size=76					   
                  		      0823 %%ENDD    									   
                  		      0824 %%SYM     _alarm,9,type=12,id=45,size=84					   
                  		      0825 %%DDS     									   
                  		      0826 %%SYM     sw,7,type=3,val=0,size=2						   
                  		      0827 %%SYM     crsv1,7,type=2,val=2,size=2					   
                  		      0828 %%DTY     									   
                  		      0829 %%DAR     1,2								   
                  		      0830 %%ENDD    									   
                  		      0831 %%SYM     time,7,sym=3,val=4,size=4						   
                  		      0832 %%SYM     pattern,7,sym=43,val=8,size=76					   
                  		      0833 %%ENDD    									   
                  		      0834 %%SYM     _schedule,9,type=12,id=46,size=268					   
                  		      0835 %%DDS     									   
                  		      0836 %%SYM     sw,7,type=3,val=0,size=2						   
                  		      0837 %%SYM     crsv1,7,type=2,val=2,size=2					   
                  		      0838 %%DTY     									   
                  		      0839 %%DAR     1,2								   
                  		      0840 %%ENDD    									   
                  		      0841 %%SYM     time,7,sym=3,val=4,size=4						   
                  		      0842 %%SYM     filename,7,type=2,val=8,size=260					   
                  		      0843 %%DTY     									   
                  		      0844 %%DAR     1,260								   
                  		      0845 %%ENDD    									   
                  		      0846 %%ENDD    									   
                  		      0847 %%SYM     _SEARCH_INDEX,9,type=12,id=47,size=48				   
                  		      0848 %%DDS     									   
                  		      0849 %%SYM     recordFormat,7,type=3,val=0,size=2					   
                  		      0850 %%SYM     recordLength,7,type=3,val=2,size=2					   
                  		      0851 %%SYM     separator,7,type=2,val=4,size=1					   
                  		      0852 %%SYM     dmy,7,type=2,val=5,size=1						   
                  		      0853 %%SYM     sortType,7,type=3,val=6,size=2					   
                  		      0854 %%SYM     indexMode,7,type=3,val=8,size=2					   
                  		      0855 %%SYM     indexNum,7,type=3,val=10,size=2					   
                  		      0856 %%SYM     indexPosition,7,type=3,val=12,size=18				   
                  		      0857 %%DTY     									   
                  		      0858 %%DAR     2,9								   
                  		      0859 %%ENDD    									   
                  		      0860 %%SYM     indexLength,7,type=3,val=30,size=18				   
                  		      0861 %%DTY     									   
                  		      0862 %%DAR     2,9								   
                  		      0863 %%ENDD    									   
                  		      0864 %%ENDD    									   
                  		      0865 %%SYM     WLanParam,8,type=11,id=48						   
                  		      0866 %%DEN     									   
                  		      0867 %%SYM     PRM_TERMINALIP,5,type=5,val='1'					   
                  		      0868 %%SYM     PRM_SUBNETMASK,5,type=5,val='2'					   


   CROSS ASSEMBLER     V10-L41   (8901)  XASS-V                                           Sat 02-Mar-2019 11:01:07      PAGE-0030
											              ARM               0102
Addr     Location Object-Code	   RE Isn  Source Statement  [ ********                       ]				    Error
  		  1 2 3 4 5 6 7 8	   ....*....1....*....2....*....3....*....4....*....5....*....6....*....7....*....8
                  		      0869 %%SYM     PRM_GATEWAYIP,5,type=5,val='3'					   
                  		      0870 %%SYM     PRM_HOSTIP,5,type=5,val='4'					   
                  		      0871 %%SYM     PRM_DHCPENABLE,5,type=5,val='5'					   
                  		      0872 %%SYM     PRM_TERMINALNAME,5,type=5,val='6'					   
                  		      0873 %%SYM     PRM_PRI_DNS_ADDR,5,type=5,val='7'					   
                  		      0874 %%SYM     PRM_SEC_DNS_ADDR,5,type=5,val='8'					   
                  		      0875 %%SYM     PRM_FTP_PASV,5,type=5,val='9'					   
                  		      0876 %%SYM     PRM_FTP_PORTMODE,5,type=5,val='10'					   
                  		      0877 %%SYM     PRM_USE_FTPS,5,type=5,val='11'					   
                  		      0878 %%SYM     PRM_SOCKET_NOTIFY,5,type=5,val='12'				   
                  		      0879 %%SYM     PRM_FTP_TRANSMODE,5,type=5,val='13'				   
                  		      0880 %%SYM     PRM_FTP_EPHEMERAL_PORT,5,type=5,val='14'				   
                  		      0881 %%SYM     PRM_FTP_SIZECHECK,5,type=5,val='15'				   
                  		      0882 %%SYM     PRM_FTP_TEMPDRIVE,5,type=5,val='16'				   
                  		      0883 %%SYM     PRM_COMM_TRANSMODE,5,type=5,val='17'				   
                  		      0884 %%SYM     PRM_PREAMBLETYPE,5,type=5,val='101'				   
                  		      0885 %%SYM     PRM_RFRATE,5,type=5,val='102'					   
                  		      0886 %%SYM     PRM_WEPAUTHENTICATIONTYPE,5,type=5,val='103'			   
                  		      0887 %%SYM     PRM_WPAAUTHENTICATIONMODE,5,type=5,val='104'			   
                  		      0888 %%SYM     PRM_BEACONLOSTCOUNT,5,type=5,val='105'				   
                  		      0889 %%SYM     PRM_PWMODE,5,type=5,val='106'					   
                  		      0890 %%SYM     PRM_POWERSAVETIME,5,type=5,val='107'				   
                  		      0891 %%SYM     PRM_INFRASSID,5,type=5,val='108'					   
                  		      0892 %%SYM     PRM_INFRAWEPINDEX,5,type=5,val='109'				   
                  		      0893 %%SYM     PRM_INFRAWEP_1,5,type=5,val='110'					   
                  		      0894 %%SYM     PRM_INFRAWEP_2,5,type=5,val='111'					   
                  		      0895 %%SYM     PRM_INFRAWEP_3,5,type=5,val='112'					   
                  		      0896 %%SYM     PRM_INFRAWEP_4,5,type=5,val='113'					   
                  		      0897 %%SYM     PRM_ADHOCCHANNEL,5,type=5,val='114'				   
                  		      0898 %%SYM     PRM_ADHOCSSID,5,type=5,val='115'					   
                  		      0899 %%SYM     PRM_ADHOCWEPINDEX,5,type=5,val='116'				   
                  		      0900 %%SYM     PRM_ADHOCWEP_1,5,type=5,val='117'					   
                  		      0901 %%SYM     PRM_ADHOCWEP_2,5,type=5,val='118'					   
                  		      0902 %%SYM     PRM_ADHOCWEP_3,5,type=5,val='119'					   
                  		      0903 %%SYM     PRM_ADHOCWEP_4,5,type=5,val='120'					   
                  		      0904 %%SYM     PRM_WPACIPHERMODE,5,type=5,val='121'				   
                  		      0905 %%SYM     PRM_PRESHAREDKEY,5,type=5,val='122'				   
                  		      0906 %%SYM     PRM_USERNAME,5,type=5,val='123'					   
                  		      0907 %%SYM     PRM_PASSWORD,5,type=5,val='124'					   
                  		      0908 %%SYM     PRM_ROOTCAFILENAME,5,type=5,val='125'				   
                  		      0909 %%SYM     PRM_CERTFILENAME,5,type=5,val='126'				   
                  		      0910 %%SYM     PRM_PRIVATEKEYFILENAME,5,type=5,val='127'				   
                  		      0911 %%SYM     PRM_MAC_ADDR,5,type=5,val='128'					   
                  		      0912 %%SYM     PRM_NETWORKMODE,5,type=5,val='129'					   
                  		      0913 %%SYM     PRM_WLAN_READY,5,type=5,val='130'					   
                  		      0914 %%SYM     PRM_RSSI_THRESH,5,type=5,val='131'					   
                  		      0915 %%SYM     PRM_INFRACHANNEL,5,type=5,val='132'				   
                  		      0916 %%SYM     PRM_RADIUS_LOGOFF,5,type=5,val='133'				   
                  		      0917 %%SYM     PRM_WLAN_INFRA_802d11_MODE,5,type=5,val='134'			   
                  		      0918 %%SYM     PRM_INFRACHANNEL_5G,5,type=5,val='135'				   
                  		      0919 %%SYM     PRM_PINCODE,5,type=5,val='201'					   
                  		      0920 %%SYM     PRM_LOCALDEVICENAME,5,type=5,val='202'				   
                  		      0921 %%SYM     PRM_BD_ADDR,5,type=5,val='203'					   
                  		      0922 %%SYM     PRM_CON_BD_ADDR,5,type=5,val='204'					   


   CROSS ASSEMBLER     V10-L41   (8901)  XASS-V                                           Sat 02-Mar-2019 11:01:07      PAGE-0031
											              ARM               0102
Addr     Location Object-Code	   RE Isn  Source Statement  [ ********                       ]				    Error
  		  1 2 3 4 5 6 7 8	   ....*....1....*....2....*....3....*....4....*....5....*....6....*....7....*....8
                  		      0923 %%SYM     PRM_SECURITYMODE,5,type=5,val='205'				   
                  		      0924 %%SYM     PRM_BD_DTRMODE,5,type=5,val='206'					   
                  		      0925 %%SYM     PRM_BLUE_SPPMODE,5,type=5,val='207'				   
                  		      0926 %%SYM     PRM_LAST_TARGET_BD_ADDR,5,type=5,val='208'				   
                  		      0927 %%SYM     PRM_TELNUMBER,5,type=5,val='301'					   
                  		      0928 %%SYM     PRM_PPP_USERNAME,5,type=5,val='302'				   
                  		      0929 %%SYM     PRM_PPP_PASSWORD,5,type=5,val='303'				   
                  		      0930 %%SYM     PRM_USE_PAP,5,type=5,val='304'					   
                  		      0931 %%SYM     PRM_USE_CHAP,5,type=5,val='305'					   
                  		      0932 %%SYM     PRM_PPP_TIMEOUT,5,type=5,val='306'					   
                  		      0933 %%SYM     PRM_PPP_HANGUP,5,type=5,val='307'					   
                  		      0934 %%SYM     PRM_MODEM_ATCOMMAND,5,type=5,val='401'				   
                  		      0935 %%SYM     PRM_MODEM_TELNUMBER,5,type=5,val='402'				   
                  		      0936 %%SYM     PRM_MODEM_DIALTYPE,5,type=5,val='403'				   
                  		      0937 %%SYM     PRM_MODEM_DIALTIMEOUT,5,type=5,val='404'				   
                  		      0938 %%SYM     PRM_MODEM_REDIALCOUNT,5,type=5,val='405'				   
                  		      0939 %%SYM     PRM_MODEM_REDIALINTERVAL,5,type=5,val='406'			   
                  		      0940 %%SYM     PRM_MODEM_CRADLERATE,5,type=5,val='407'				   
                  		      0941 %%ENDD    									   
                  		      0942 %%SYM     _st_rf_configset,9,type=12,id=49,size=8				   
                  		      0943 %%DDS     									   
                  		      0944 %%SYM     NetworkMode,7,type=2,val=0,size=1					   
                  		      0945 %%SYM     AdhocCh,7,type=2,val=1,size=1					   
                  		      0946 %%SYM     Preamble,7,type=2,val=2,size=1					   
                  		      0947 %%SYM     WepAuthtype,7,type=2,val=3,size=1					   
                  		      0948 %%SYM     rate,7,type=2,val=4,size=1						   
                  		      0949 %%SYM     PwMode,7,type=2,val=5,size=1					   
                  		      0950 %%SYM     PowerSavetime,7,type=2,val=6,size=1				   
                  		      0951 %%SYM     BeaconLostcount,7,type=2,val=7,size=1				   
                  		      0952 %%ENDD    									   
                  		      0953 %%SYM     _st_rf_connectioninfo,9,type=12,id=50,size=12			   
                  		      0954 %%DDS     									   
                  		      0955 %%SYM     AuthStatus,7,type=2,val=0,size=1					   
                  		      0956 %%SYM     Ch,7,type=2,val=1,size=1						   
                  		      0957 %%SYM     MacAddress,7,type=2,val=2,size=6					   
                  		      0958 %%DTY     									   
                  		      0959 %%DAR     1,6								   
                  		      0960 %%ENDD    									   
                  		      0961 %%SYM     Rssi,7,type=2,val=8,size=1						   
                  		      0962 %%ENDD    									   
                  		      0963 %%SYM     _st_wep_info,9,type=12,id=51,size=20				   
                  		      0964 %%DDS     									   
                  		      0965 %%SYM     size,7,type=7,val=0,size=4						   
                  		      0966 %%SYM     wep,7,type=2,val=4,size=14						   
                  		      0967 %%DTY     									   
                  		      0968 %%DAR     1,14								   
                  		      0969 %%ENDD    									   
                  		      0970 %%ENDD    									   
                  		      0971 %%SYM     _st_rf_securityinfoset,9,type=12,id=52,size=96			   
                  		      0972 %%DDS     									   
                  		      0973 %%SYM     ssid,7,type=2,val=0,size=33					   
                  		      0974 %%DTY     									   
                  		      0975 %%DAR     1,33								   
                  		      0976 %%ENDD    									   


   CROSS ASSEMBLER     V10-L41   (8901)  XASS-V                                           Sat 02-Mar-2019 11:01:07      PAGE-0032
											              ARM               0102
Addr     Location Object-Code	   RE Isn  Source Statement  [ ********                       ]				    Error
  		  1 2 3 4 5 6 7 8	   ....*....1....*....2....*....3....*....4....*....5....*....6....*....7....*....8
                  		      0977 %%SYM     ssid_size,7,type=2,val=33,size=1					   
                  		      0978 %%SYM     wep_selected,7,type=2,val=34,size=1				   
                  		      0979 %%SYM     wep_size,7,type=2,val=35,size=4					   
                  		      0980 %%DTY     									   
                  		      0981 %%DAR     1,4								   
                  		      0982 %%ENDD    									   
                  		      0983 %%SYM     wep,7,type=2,val=39,size=56					   
                  		      0984 %%DTY     									   
                  		      0985 %%DAR     1,4,14								   
                  		      0986 %%ENDD    									   
                  		      0987 %%ENDD    									   
                  		      0988 %%SYM     _st_rf_securityauthset,9,type=12,id=53,size=908			   
                  		      0989 %%DDS     									   
                  		      0990 %%SYM     psk_len,7,type=3,val=0,size=2					   
                  		      0991 %%SYM     psk,7,type=2,val=2,size=64						   
                  		      0992 %%DTY     									   
                  		      0993 %%DAR     1,64								   
                  		      0994 %%ENDD    									   
                  		      0995 %%SYM     usr_id_len,7,type=3,val=66,size=2					   
                  		      0996 %%SYM     usr_id,7,type=2,val=68,size=33					   
                  		      0997 %%DTY     									   
                  		      0998 %%DAR     1,33								   
                  		      0999 %%ENDD    									   
                  		      1000 %%SYM     usr_pass_len,7,type=3,val=102,size=2				   
                  		      1001 %%SYM     usr_pass,7,type=2,val=104,size=33					   
                  		      1002 %%DTY     									   
                  		      1003 %%DAR     1,33								   
                  		      1004 %%ENDD    									   
                  		      1005 %%SYM     rootca_filename,7,type=2,val=137,size=256				   
                  		      1006 %%DTY     									   
                  		      1007 %%DAR     1,256								   
                  		      1008 %%ENDD    									   
                  		      1009 %%SYM     cert_filename,7,type=2,val=393,size=256				   
                  		      1010 %%DTY     									   
                  		      1011 %%DAR     1,256								   
                  		      1012 %%ENDD    									   
                  		      1013 %%SYM     prvkey_filename,7,type=2,val=649,size=256				   
                  		      1014 %%DTY     									   
                  		      1015 %%DAR     1,256								   
                  		      1016 %%ENDD    									   
                  		      1017 %%ENDD    									   
                  		      1018 %%SYM     btsockaddr,9,type=12,id=54,size=16					   
                  		      1019 %%DDS     									   
                  		      1020 %%SYM     sa_family,7,type=4,val=0,size=2					   
                  		      1021 %%SYM     sa_data,7,type=2,val=2,size=14					   
                  		      1022 %%DTY     									   
                  		      1023 %%DAR     1,14								   
                  		      1024 %%ENDD    									   
                  		      1025 %%ENDD    									   
                  		      1026 %%SYM     btin_addr,9,type=12,id=55,size=4					   
                  		      1027 %%DDS     									   
                  		      1028 %%SYM     ,10,type=13,id=56,size=4						   
                  		      1029 %%DDS     									   
                  		      1030 %%SYM     ,9,type=12,id=57,size=4						   


   CROSS ASSEMBLER     V10-L41   (8901)  XASS-V                                           Sat 02-Mar-2019 11:01:07      PAGE-0033
											              ARM               0102
Addr     Location Object-Code	   RE Isn  Source Statement  [ ********                       ]				    Error
  		  1 2 3 4 5 6 7 8	   ....*....1....*....2....*....3....*....4....*....5....*....6....*....7....*....8
                  		      1031 %%DDS     									   
                  		      1032 %%SYM     s_b1,7,type=2,val=0,size=1						   
                  		      1033 %%SYM     s_b2,7,type=2,val=1,size=1						   
                  		      1034 %%SYM     s_b3,7,type=2,val=2,size=1						   
                  		      1035 %%SYM     s_b4,7,type=2,val=3,size=1						   
                  		      1036 %%ENDD    									   
                  		      1037 %%SYM     S_un_b,7,sym=57,val=0,size=4					   
                  		      1038 %%SYM     ,9,type=12,id=58,size=4						   
                  		      1039 %%DDS     									   
                  		      1040 %%SYM     s_w1,7,type=4,val=0,size=2						   
                  		      1041 %%SYM     s_w2,7,type=4,val=2,size=2						   
                  		      1042 %%ENDD    									   
                  		      1043 %%SYM     S_un_w,7,sym=58,val=0,size=4					   
                  		      1044 %%SYM     S_addr,7,type=8,val=0,size=4					   
                  		      1045 %%ENDD    									   
                  		      1046 %%SYM     S_un,7,sym=56,val=0,size=4						   
                  		      1047 %%ENDD    									   
                  		      1048 %%SYM     btsockaddr_in,9,type=12,id=59,size=16				   
                  		      1049 %%DDS     									   
                  		      1050 %%SYM     sin_family,7,type=3,val=0,size=2					   
                  		      1051 %%SYM     sin_port,7,type=4,val=2,size=2					   
                  		      1052 %%SYM     sin_addr,7,sym=55,val=4,size=4					   
                  		      1053 %%SYM     sin_zero,7,type=2,val=8,size=8					   
                  		      1054 %%DTY     									   
                  		      1055 %%DAR     1,8								   
                  		      1056 %%ENDD    									   
                  		      1057 %%ENDD    									   
                  		      1058 %%SYM     btfd_set,9,type=12,id=60,size=260					   
                  		      1059 %%DDS     									   
                  		      1060 %%SYM     fd_count,7,type=6,val=0,size=4					   
                  		      1061 %%SYM     fd_array,7,type=5,val=4,size=256					   
                  		      1062 %%DTY     									   
                  		      1063 %%DAR     4,64								   
                  		      1064 %%ENDD    									   
                  		      1065 %%ENDD    									   
                  		      1066 %%SYM     bttimeval,9,type=12,id=61,size=8					   
                  		      1067 %%DDS     									   
                  		      1068 %%SYM     tv_sec,7,type=7,val=0,size=4					   
                  		      1069 %%SYM     tv_usec,7,type=7,val=4,size=4					   
                  		      1070 %%ENDD    									   
                  		      1071 %%SYM     bthostent,9,type=12,id=62,size=24					   
                  		      1072 %%DDS     									   
                  		      1073 %%SYM     h_name,7,type=2,val=0,size=4					   
                  		      1074 %%DTY     									   
                  		      1075 %%DPT     									   
                  		      1076 %%ENDD    									   
                  		      1077 %%SYM     h_aliases,7,type=2,val=4,size=4					   
                  		      1078 %%DTY     									   
                  		      1079 %%DPT     									   
                  		      1080 %%DAR     4,1								   
                  		      1081 %%ENDD    									   
                  		      1082 %%SYM     h_addrtype,7,type=4,val=8,size=2					   
                  		      1083 %%SYM     h_length,7,type=4,val=10,size=2					   
                  		      1084 %%SYM     h_addr_list,7,type=2,val=12,size=12				   


   CROSS ASSEMBLER     V10-L41   (8901)  XASS-V                                           Sat 02-Mar-2019 11:01:07      PAGE-0034
											              ARM               0102
Addr     Location Object-Code	   RE Isn  Source Statement  [ ********                       ]				    Error
  		  1 2 3 4 5 6 7 8	   ....*....1....*....2....*....3....*....4....*....5....*....6....*....7....*....8
                  		      1085 %%DTY     									   
                  		      1086 %%DPT     									   
                  		      1087 %%DAR     4,3								   
                  		      1088 %%ENDD    									   
                  		      1089 %%ENDD    									   
                  		      1090 %%SYM     _st_ftpconfig,9,type=12,id=63,size=404				   
                  		      1091 %%DDS     									   
                  		      1092 %%SYM     timeout,7,type=7,val=0,size=4					   
                  		      1093 %%SYM     cancelkey,7,type=7,val=4,size=4					   
                  		      1094 %%SYM     target_ip,7,type=8,val=8,size=4					   
                  		      1095 %%SYM     ftp_portnum,7,type=4,val=12,size=2					   
                  		      1096 %%SYM     rsv1,7,type=4,val=14,size=2					   
                  		      1097 %%SYM     usrname,7,type=2,val=16,size=65					   
                  		      1098 %%DTY     									   
                  		      1099 %%DAR     1,65								   
                  		      1100 %%ENDD    									   
                  		      1101 %%SYM     password,7,type=2,val=81,size=65					   
                  		      1102 %%DTY     									   
                  		      1103 %%DAR     1,65								   
                  		      1104 %%ENDD    									   
                  		      1105 %%SYM     logfilename,7,type=2,val=146,size=256				   
                  		      1106 %%DTY     									   
                  		      1107 %%DAR     1,256								   
                  		      1108 %%ENDD    									   
                  		      1109 %%ENDD    									   
                  		      1110 %%SYM     _st_ftpsconfig,9,type=12,id=64,size=268				   
                  		      1111 %%DDS     									   
                  		      1112 %%SYM     ftps_protocol,7,type=5,val=0,size=4				   
                  		      1113 %%SYM     ftps_data_encrypt,7,type=5,val=4,size=4				   
                  		      1114 %%SYM     ftps_verify,7,type=5,val=8,size=4					   
                  		      1115 %%SYM     ftps_certfile,7,type=2,val=12,size=256				   
                  		      1116 %%DTY     									   
                  		      1117 %%DAR     1,256								   
                  		      1118 %%ENDD    									   
                  		      1119 %%ENDD    									   
                  		      1120 %%SYM     _rfstatus,9,type=12,id=65,size=12					   
                  		      1121 %%DDS     									   
                  		      1122 %%SYM     ip_adr,7,type=2,val=0,size=4					   
                  		      1123 %%DTY     									   
                  		      1124 %%DAR     1,4								   
                  		      1125 %%ENDD    									   
                  		      1126 %%SYM     subnet,7,type=2,val=4,size=4					   
                  		      1127 %%DTY     									   
                  		      1128 %%DAR     1,4								   
                  		      1129 %%ENDD    									   
                  		      1130 %%SYM     defgate,7,type=2,val=8,size=4					   
                  		      1131 %%DTY     									   
                  		      1132 %%DAR     1,4								   
                  		      1133 %%ENDD    									   
                  		      1134 %%ENDD    									   
                  		      1135 %%SYM     _host_status,9,type=12,id=66,size=4				   
                  		      1136 %%DDS     									   
                  		      1137 %%SYM     ip_adr,7,type=2,val=0,size=4					   
                  		      1138 %%DTY     									   


   CROSS ASSEMBLER     V10-L41   (8901)  XASS-V                                           Sat 02-Mar-2019 11:01:07      PAGE-0035
											              ARM               0102
Addr     Location Object-Code	   RE Isn  Source Statement  [ ********                       ]				    Error
  		  1 2 3 4 5 6 7 8	   ....*....1....*....2....*....3....*....4....*....5....*....6....*....7....*....8
                  		      1139 %%DAR     1,4								   
                  		      1140 %%ENDD    									   
                  		      1141 %%ENDD    									   
                  		      1142 %%SYM     _rfdatif,9,type=12,id=67,size=12					   
                  		      1143 %%DDS     									   
                  		      1144 %%SYM     ip,7,type=2,val=0,size=4						   
                  		      1145 %%DTY     									   
                  		      1146 %%DAR     1,4								   
                  		      1147 %%ENDD    									   
                  		      1148 %%SYM     cnt,7,type=8,val=4,size=4						   
                  		      1149 %%SYM     buf,7,type=2,val=8,size=4						   
                  		      1150 %%DTY     									   
                  		      1151 %%DPT     									   
                  		      1152 %%ENDD    									   
                  		      1153 %%ENDD    									   
                  		      1154 %%SYM     _fileup_status,9,type=12,id=68,size=8				   
                  		      1155 %%DDS     									   
                  		      1156 %%SYM     len,7,type=8,val=0,size=4						   
                  		      1157 %%SYM     ip_adr,7,type=2,val=4,size=4					   
                  		      1158 %%DTY     									   
                  		      1159 %%DAR     1,4								   
                  		      1160 %%ENDD    									   
                  		      1161 %%ENDD    									   
                  		      1162 %%SYM     _ess_status,9,type=12,id=69,size=36				   
                  		      1163 %%DDS     									   
                  		      1164 %%SYM     ess_len,7,type=8,val=0,size=4					   
                  		      1165 %%SYM     ess_dat,7,type=2,val=4,size=32					   
                  		      1166 %%DTY     									   
                  		      1167 %%DAR     1,32								   
                  		      1168 %%ENDD    									   
                  		      1169 %%ENDD    									   
                  		      1170 %%SYM     _retry_status,9,type=12,id=70,size=4				   
                  		      1171 %%DDS     									   
                  		      1172 %%SYM     retry_count_max,7,type=2,val=0,size=1				   
                  		      1173 %%SYM     retry_timer_init,7,type=2,val=1,size=1				   
                  		      1174 %%ENDD    									   
                  		      1175 %%SYM     ,9,type=12,id=71,size=324						   
                  		      1176 %%DDS     									   
                  		      1177 %%SYM     major_version,7,type=2,val=0,size=1				   
                  		      1178 %%SYM     minor_version,7,type=2,val=1,size=1				   
                  		      1179 %%SYM     comment,7,type=2,val=2,size=62					   
                  		      1180 %%DTY     									   
                  		      1181 %%DAR     1,62								   
                  		      1182 %%ENDD    									   
                  		      1183 %%SYM     filepath,7,type=2,val=64,size=260					   
                  		      1184 %%DTY     									   
                  		      1185 %%DAR     1,260								   
                  		      1186 %%ENDD    									   
                  		      1187 %%ENDD    									   
                  		      1188 %%SYM     _st_zgnconfig,9,type=12,id=72,size=152				   
                  		      1189 %%DDS     									   
                  		      1190 %%SYM     MaxTextSize,7,type=4,val=0,size=2					   
                  		      1191 %%SYM     Timeout,7,type=4,val=2,size=2					   
                  		      1192 %%SYM     DestIP,7,type=2,val=4,size=80					   


   CROSS ASSEMBLER     V10-L41   (8901)  XASS-V                                           Sat 02-Mar-2019 11:01:07      PAGE-0036
											              ARM               0102
Addr     Location Object-Code	   RE Isn  Source Statement  [ ********                       ]				    Error
  		  1 2 3 4 5 6 7 8	   ....*....1....*....2....*....3....*....4....*....5....*....6....*....7....*....8
                  		      1193 %%DTY     									   
                  		      1194 %%DAR     1,80								   
                  		      1195 %%ENDD    									   
                  		      1196 %%SYM     DestPortNo,7,type=4,val=84,size=2					   
                  		      1197 %%SYM     LocalPortNo,7,type=4,val=86,size=2					   
                  		      1198 %%SYM     TcpConnectRetry,7,type=4,val=88,size=2				   
                  		      1199 %%SYM     TtcRoundupInit,7,type=4,val=90,size=2				   
                  		      1200 %%SYM     DefineMN,7,type=2,val=92,size=1					   
                  		      1201 %%SYM     ZeroByteFile,7,type=2,val=93,size=1				   
                  		      1202 %%SYM     TransDateCheck,7,type=2,val=94,size=1				   
                  		      1203 %%SYM     TtcBranch,7,type=2,val=95,size=1					   
                  		      1204 %%SYM     Hostcord,7,type=2,val=96,size=7					   
                  		      1205 %%DTY     									   
                  		      1206 %%DAR     1,7								   
                  		      1207 %%ENDD    									   
                  		      1208 %%SYM     Termcord,7,type=2,val=103,size=7					   
                  		      1209 %%DTY     									   
                  		      1210 %%DAR     1,7								   
                  		      1211 %%ENDD    									   
                  		      1212 %%SYM     Password,7,type=2,val=110,size=6					   
                  		      1213 %%DTY     									   
                  		      1214 %%DAR     1,6								   
                  		      1215 %%ENDD    									   
                  		      1216 %%SYM     Ext,7,type=2,val=116,size=34					   
                  		      1217 %%DTY     									   
                  		      1218 %%DAR     1,34								   
                  		      1219 %%ENDD    									   
                  		      1220 %%ENDD    									   
                  		      1221 %%SYM     _st_zgnfconfig,9,type=12,id=73,size=316				   
                  		      1222 %%DDS     									   
                  		      1223 %%SYM     FileName,7,type=2,val=0,size=256					   
                  		      1224 %%DTY     									   
                  		      1225 %%DAR     1,256								   
                  		      1226 %%ENDD    									   
                  		      1227 %%SYM     Mode,7,type=2,val=256,size=1					   
                  		      1228 %%SYM     Branch,7,type=2,val=257,size=1					   
                  		      1229 %%SYM     Pack,7,type=2,val=258,size=1					   
                  		      1230 %%SYM     Derimita,7,type=2,val=259,size=1					   
                  		      1231 %%SYM     Blocking,7,type=2,val=260,size=1					   
                  		      1232 %%SYM     ChangeCodePtn,7,type=2,val=261,size=1				   
                  		      1233 %%SYM     Cycle,7,type=2,val=262,size=1					   
                  		      1234 %%SYM     VLRec,7,type=2,val=263,size=1					   
                  		      1235 %%SYM     RecSize,7,type=4,val=264,size=2					   
                  		      1236 %%SYM     ZFileName,7,type=2,val=266,size=12					   
                  		      1237 %%DTY     									   
                  		      1238 %%DAR     1,12								   
                  		      1239 %%ENDD    									   
                  		      1240 %%SYM     FileAccessKey,7,type=2,val=278,size=6				   
                  		      1241 %%DTY     									   
                  		      1242 %%DAR     1,6								   
                  		      1243 %%ENDD    									   
                  		      1244 %%SYM     FileSub,7,type=2,val=284,size=17					   
                  		      1245 %%DTY     									   
                  		      1246 %%DAR     1,17								   


   CROSS ASSEMBLER     V10-L41   (8901)  XASS-V                                           Sat 02-Mar-2019 11:01:07      PAGE-0037
											              ARM               0102
Addr     Location Object-Code	   RE Isn  Source Statement  [ ********                       ]				    Error
  		  1 2 3 4 5 6 7 8	   ....*....1....*....2....*....3....*....4....*....5....*....6....*....7....*....8
                  		      1247 %%ENDD    									   
                  		      1248 %%SYM     FileExt,7,type=2,val=301,size=14					   
                  		      1249 %%DTY     									   
                  		      1250 %%DAR     1,14								   
                  		      1251 %%ENDD    									   
                  		      1252 %%ENDD    									   
                  		      1253 %%SYM     _apli_updateinfo,9,type=12,id=74,size=328				   
                  		      1254 %%DDS     									   
                  		      1255 %%SYM     apptype,7,type=2,val=0,size=1					   
                  		      1256 %%SYM     filename,7,type=2,val=1,size=256					   
                  		      1257 %%DTY     									   
                  		      1258 %%DAR     1,256								   
                  		      1259 %%ENDD    									   
                  		      1260 %%SYM     title,7,type=2,val=257,size=65					   
                  		      1261 %%DTY     									   
                  		      1262 %%DAR     1,65								   
                  		      1263 %%ENDD    									   
                  		      1264 %%SYM     version,7,type=2,val=322,size=2					   
                  		      1265 %%DTY     									   
                  		      1266 %%DAR     1,2								   
                  		      1267 %%ENDD    									   
                  		      1268 %%SYM     priority,7,type=2,val=324,size=1					   
                  		      1269 %%ENDD    									   
                  		      1270 %%SYM     _st_comenv,9,type=12,id=75,size=12					   
                  		      1271 %%DDS     									   
                  		      1272 %%SYM     baudRate,7,type=8,val=0,size=4					   
                  		      1273 %%SYM     stopBits,7,type=3,val=4,size=2					   
                  		      1274 %%SYM     parity,7,type=3,val=6,size=2					   
                  		      1275 %%SYM     dataLen,7,type=3,val=8,size=2					   
                  		      1276 %%ENDD    									   
                  		      1277 %%SYM     ,9,type=12,id=76,size=44						   
                  		      1278 %%DDS     									   
                  		      1279 %%SYM     ch,7,type=2,val=0,size=1						   
                  		      1280 %%SYM     signallevel,7,type=2,val=1,size=1					   
                  		      1281 %%SYM     macaddr,7,type=2,val=2,size=6					   
                  		      1282 %%DTY     									   
                  		      1283 %%DAR     1,6								   
                  		      1284 %%ENDD    									   
                  		      1285 %%SYM     ssidlen,7,type=2,val=8,size=1					   
                  		      1286 %%SYM     ssid,7,type=2,val=9,size=32					   
                  		      1287 %%DTY     									   
                  		      1288 %%DAR     1,32								   
                  		      1289 %%ENDD    									   
                  		      1290 %%SYM     rsv1,7,type=2,val=41,size=3					   
                  		      1291 %%DTY     									   
                  		      1292 %%DAR     1,3								   
                  		      1293 %%ENDD    									   
                  		      1294 %%ENDD    									   
                  		      1295 %%SYM     ,9,type=12,id=77,size=528						   
                  		      1296 %%DDS     									   
                  		      1297 %%SYM     apinfo,7,sym=76,val=0,size=528					   
                  		      1298 %%DTY     									   
                  		      1299 %%DAR     44,12								   
                  		      1300 %%ENDD    									   


   CROSS ASSEMBLER     V10-L41   (8901)  XASS-V                                           Sat 02-Mar-2019 11:01:07      PAGE-0038
											              ARM               0102
Addr     Location Object-Code	   RE Isn  Source Statement  [ ********                       ]				    Error
  		  1 2 3 4 5 6 7 8	   ....*....1....*....2....*....3....*....4....*....5....*....6....*....7....*....8
                  		      1301 %%ENDD    									   
                  		      1302 %%SYM     ,9,type=12,id=78,size=44						   
                  		      1303 %%DDS     									   
                  		      1304 %%SYM     devicename,7,type=2,val=0,size=32					   
                  		      1305 %%DTY     									   
                  		      1306 %%DAR     1,32								   
                  		      1307 %%ENDD    									   
                  		      1308 %%SYM     bd_address,7,type=2,val=32,size=12					   
                  		      1309 %%DTY     									   
                  		      1310 %%DAR     1,12								   
                  		      1311 %%ENDD    									   
                  		      1312 %%ENDD    									   
                  		      1313 %%SYM     ,9,type=12,id=79,size=396						   
                  		      1314 %%DDS     									   
                  		      1315 %%SYM     bluetoothinfo,7,sym=78,val=0,size=396				   
                  		      1316 %%DTY     									   
                  		      1317 %%DAR     44,9								   
                  		      1318 %%ENDD    									   
                  		      1319 %%ENDD    									   
                  		      1320 %%SYM     ,8,type=11,id=80							   
                  		      1321 %%DEN     									   
                  		      1322 %%SYM     BT_GUI_WT_CANVAS,5,type=5,val='0'					   
                  		      1323 %%SYM     BT_GUI_WT_EDIT_FIELD,5,type=5,val='1'				   
                  		      1324 %%SYM     BT_GUI_WT_ML_EDIT,5,type=5,val='2'					   
                  		      1325 %%SYM     BT_GUI_WT_TEXTBOX,5,type=5,val='3'					   
                  		      1326 %%SYM     BT_GUI_WT_GROUPBOX,5,type=5,val='4'				   
                  		      1327 %%SYM     BT_GUI_WT_LISTBOX,5,type=5,val='5'					   
                  		      1328 %%SYM     BT_GUI_WT_COMBOBOX,5,type=5,val='6'				   
                  		      1329 %%SYM     BT_GUI_WT_CHECKBOX,5,type=5,val='7'				   
                  		      1330 %%SYM     BT_GUI_WT_RADIOBUTTON,5,type=5,val='8'				   
                  		      1331 %%SYM     BT_GUI_WT_BUTTON,5,type=5,val='9'					   
                  		      1332 %%SYM     BT_GUI_WT_WINDOW,5,type=5,val='10'					   
                  		      1333 %%ENDD    									   
                  		      1334 %%SYM     ,8,type=11,id=81							   
                  		      1335 %%DEN     									   
                  		      1336 %%SYM     BT_GUI_PT_VISIBLE,5,type=5,val='0'					   
                  		      1337 %%SYM     BT_GUI_PT_ENABLE,5,type=5,val='1'					   
                  		      1338 %%SYM     BT_GUI_PT_FRAME,5,type=5,val='2'					   
                  		      1339 %%SYM     BT_GUI_PT_BGCOLOR,5,type=5,val='3'					   
                  		      1340 %%SYM     BT_GUI_PT_TEXTCOLOR,5,type=5,val='4'				   
                  		      1341 %%SYM     BT_GUI_PT_SEL_BGCOLOR,5,type=5,val='5'				   
                  		      1342 %%SYM     BT_GUI_PT_SEL_TEXTCOLOR,5,type=5,val='6'				   
                  		      1343 %%SYM     BT_GUI_PT_EXCLUSIVE,5,type=5,val='7'				   
                  		      1344 %%SYM     BT_GUI_PT_TEXTDATA,5,type=5,val='8'				   
                  		      1345 %%SYM     BT_GUI_PT_IMAGE_FILE,5,type=5,val='9'				   
                  		      1346 %%SYM     BT_GUI_PT_FONTSIZE,5,type=5,val='10'				   
                  		      1347 %%SYM     BT_GUI_PT_TEXTALIGN,5,type=5,val='11'				   
                  		      1348 %%SYM     BT_GUI_PT_HSCROLLBAR,5,type=5,val='12'				   
                  		      1349 %%SYM     BT_GUI_PT_VSCROLLBAR,5,type=5,val='13'				   
                  		      1350 %%SYM     BT_GUI_PT_STRLEN,5,type=5,val='14'					   
                  		      1351 %%SYM     BT_GUI_PT_CHECKED,5,type=5,val='15'				   
                  		      1352 %%SYM     BT_GUI_PT_INPUTMAX,5,type=5,val='16'				   
                  		      1353 %%SYM     BT_GUI_PT_TRG_MODE,5,type=5,val='17'				   
                  		      1354 %%SYM     BT_GUI_PT_F3KEY_MODE,5,type=5,val='18'				   


   CROSS ASSEMBLER     V10-L41   (8901)  XASS-V                                           Sat 02-Mar-2019 11:01:07      PAGE-0039
											              ARM               0102
Addr     Location Object-Code	   RE Isn  Source Statement  [ ********                       ]				    Error
  		  1 2 3 4 5 6 7 8	   ....*....1....*....2....*....3....*....4....*....5....*....6....*....7....*....8
                  		      1355 %%SYM     BT_GUI_PT_FOCUSIN_EDIT,5,type=5,val='19'				   
                  		      1356 %%SYM     BT_GUI_PT_AUTOREAD_ENABLE,5,type=5,val='20'			   
                  		      1357 %%SYM     BT_GUI_PT_KEYINPUT_ENABLE,5,type=5,val='21'			   
                  		      1358 %%SYM     BT_GUI_PT_FOCUSINDICATOR,5,type=5,val='22'				   
                  		      1359 %%ENDD    									   
                  		      1360 %%SYM     _bt_gui_fontinfo,9,type=12,id=82,size=12				   
                  		      1361 %%DDS     									   
                  		      1362 %%SYM     sFontSize,7,type=3,val=0,size=2					   
                  		      1363 %%SYM     sReserve1,7,type=3,val=2,size=2					   
                  		      1364 %%SYM     ulTextColor,7,type=8,val=4,size=4					   
                  		      1365 %%SYM     ulBkgColor,7,type=8,val=8,size=4					   
                  		      1366 %%ENDD    									   
                  		      1367 %%SYM     _bt_gui_drawex,9,type=12,id=83,size=32				   
                  		      1368 %%DDS     									   
                  		      1369 %%SYM     fontinfo,7,sym=82,val=0,size=12					   
                  		      1370 %%SYM     gapx,7,type=3,val=12,size=2					   
                  		      1371 %%SYM     gapy,7,type=3,val=14,size=2					   
                  		      1372 %%SYM     type,7,type=3,val=16,size=2					   
                  		      1373 %%SYM     sReserve1,7,type=3,val=18,size=2					   
                  		      1374 %%SYM     attrg,7,sym=7,val=20,size=12					   
                  		      1375 %%ENDD    									   
                  		      1376 %%SYM     ,9,type=12,id=84,size=76						   
                  		      1377 %%DDS     									   
                  		      1378 %%SYM     anykey,7,type=5,val=0,size=4					   
                  		      1379 %%SYM     key0,7,type=5,val=4,size=4						   
                  		      1380 %%SYM     key1,7,type=5,val=8,size=4						   
                  		      1381 %%SYM     key2,7,type=5,val=12,size=4					   
                  		      1382 %%SYM     key3,7,type=5,val=16,size=4					   
                  		      1383 %%SYM     key4,7,type=5,val=20,size=4					   
                  		      1384 %%SYM     key5,7,type=5,val=24,size=4					   
                  		      1385 %%SYM     key6,7,type=5,val=28,size=4					   
                  		      1386 %%SYM     key7,7,type=5,val=32,size=4					   
                  		      1387 %%SYM     key8,7,type=5,val=36,size=4					   
                  		      1388 %%SYM     key9,7,type=5,val=40,size=4					   
                  		      1389 %%SYM     keyEnt,7,type=5,val=44,size=4					   
                  		      1390 %%SYM     keyEsc,7,type=5,val=48,size=4					   
                  		      1391 %%SYM     keyFnUp,7,type=5,val=52,size=4					   
                  		      1392 %%SYM     keyClr,7,type=5,val=56,size=4					   
                  		      1393 %%SYM     keyL,7,type=5,val=60,size=4					   
                  		      1394 %%SYM     keyR,7,type=5,val=64,size=4					   
                  		      1395 %%SYM     keyUp,7,type=5,val=68,size=4					   
                  		      1396 %%SYM     keyDown,7,type=5,val=72,size=4					   
                  		      1397 %%ENDD    									   
                  		      1398 %%SYM     ,9,type=12,id=85,size=244						   
                  		      1399 %%DDS     									   
                  		      1400 %%SYM     data,7,type=2,val=0,size=242					   
                  		      1401 %%DTY     									   
                  		      1402 %%DAR     1,11,22								   
                  		      1403 %%ENDD    									   
                  		      1404 %%ENDD    									   
                  		      1405 %%SYM     ,9,type=12,id=86,size=24						   
                  		      1406 %%DDS     									   
                  		      1407 %%SYM     name,7,type=2,val=0,size=21					   
                  		      1408 %%DTY     									   


   CROSS ASSEMBLER     V10-L41   (8901)  XASS-V                                           Sat 02-Mar-2019 11:01:07      PAGE-0040
											              ARM               0102
Addr     Location Object-Code	   RE Isn  Source Statement  [ ********                       ]				    Error
  		  1 2 3 4 5 6 7 8	   ....*....1....*....2....*....3....*....4....*....5....*....6....*....7....*....8
                  		      1409 %%DAR     1,21								   
                  		      1410 %%ENDD    									   
                  		      1411 %%ENDD    									   
                  		      1412 %%SYM     ,9,type=12,id=87,size=384						   
                  		      1413 %%DDS     									   
                  		      1414 %%SYM     item,7,sym=86,val=0,size=384					   
                  		      1415 %%DTY     									   
                  		      1416 %%DAR     24,16								   
                  		      1417 %%ENDD    									   
                  		      1418 %%ENDD    									   
                  		      1419 %%SYM     ,9,type=12,id=88,size=12						   
                  		      1420 %%DDS     									   
                  		      1421 %%SYM     year,7,type=3,val=0,size=2						   
                  		      1422 %%SYM     month,7,type=3,val=2,size=2					   
                  		      1423 %%SYM     day,7,type=3,val=4,size=2						   
                  		      1424 %%SYM     hour,7,type=3,val=6,size=2						   
                  		      1425 %%SYM     min,7,type=3,val=8,size=2						   
                  		      1426 %%SYM     sec,7,type=3,val=10,size=2						   
                  		      1427 %%ENDD    									   
                  		      1428 %%SYM     ,9,type=12,id=89,size=232						   
                  		      1429 %%DDS     									   
                  		      1430 %%SYM     mode,7,type=5,val=0,size=4						   
                  		      1431 %%SYM     title,7,type=2,val=4,size=21					   
                  		      1432 %%DTY     									   
                  		      1433 %%DAR     1,21								   
                  		      1434 %%ENDD    									   
                  		      1435 %%SYM     l1,7,type=2,val=25,size=21						   
                  		      1436 %%DTY     									   
                  		      1437 %%DAR     1,21								   
                  		      1438 %%ENDD    									   
                  		      1439 %%SYM     l2,7,type=2,val=46,size=21						   
                  		      1440 %%DTY     									   
                  		      1441 %%DAR     1,21								   
                  		      1442 %%ENDD    									   
                  		      1443 %%SYM     l3,7,type=2,val=67,size=21						   
                  		      1444 %%DTY     									   
                  		      1445 %%DAR     1,21								   
                  		      1446 %%ENDD    									   
                  		      1447 %%SYM     l4,7,type=2,val=88,size=21						   
                  		      1448 %%DTY     									   
                  		      1449 %%DAR     1,21								   
                  		      1450 %%ENDD    									   
                  		      1451 %%SYM     l5,7,type=2,val=109,size=21					   
                  		      1452 %%DTY     									   
                  		      1453 %%DAR     1,21								   
                  		      1454 %%ENDD    									   
                  		      1455 %%SYM     l6,7,type=2,val=130,size=21					   
                  		      1456 %%DTY     									   
                  		      1457 %%DAR     1,21								   
                  		      1458 %%ENDD    									   
                  		      1459 %%SYM     l7,7,type=2,val=151,size=21					   
                  		      1460 %%DTY     									   
                  		      1461 %%DAR     1,21								   
                  		      1462 %%ENDD    									   


   CROSS ASSEMBLER     V10-L41   (8901)  XASS-V                                           Sat 02-Mar-2019 11:01:07      PAGE-0041
											              ARM               0102
Addr     Location Object-Code	   RE Isn  Source Statement  [ ********                       ]				    Error
  		  1 2 3 4 5 6 7 8	   ....*....1....*....2....*....3....*....4....*....5....*....6....*....7....*....8
                  		      1463 %%SYM     buffer,7,type=2,val=172,size=4					   
                  		      1464 %%DTY     									   
                  		      1465 %%DPT     									   
                  		      1466 %%ENDD    									   
                  		      1467 %%SYM     bufsize,7,type=6,val=176,size=4					   
                  		      1468 %%SYM     emptyOK,7,type=5,val=180,size=4					   
                  		      1469 %%SYM     upkey,7,type=5,val=184,size=4					   
                  		      1470 %%SYM     downkey,7,type=5,val=188,size=4					   
                  		      1471 %%SYM     bar_read,7,type=5,val=192,size=4					   
                  		      1472 %%SYM     keychange,7,type=5,val=196,size=4					   
                  		      1473 %%SYM     defdata,7,type=2,val=200,size=21					   
                  		      1474 %%DTY     									   
                  		      1475 %%DAR     1,21								   
                  		      1476 %%ENDD    									   
                  		      1477 %%SYM     alpha,7,type=2,val=221,size=1					   
                  		      1478 %%SYM     c1,7,type=2,val=222,size=1						   
                  		      1479 %%SYM     c2,7,type=2,val=223,size=1						   
                  		      1480 %%SYM     c3,7,type=2,val=224,size=1						   
                  		      1481 %%SYM     c4,7,type=2,val=225,size=1						   
                  		      1482 %%SYM     c5,7,type=2,val=226,size=1						   
                  		      1483 %%SYM     c6,7,type=2,val=227,size=1						   
                  		      1484 %%SYM     c7,7,type=2,val=228,size=1						   
                  		      1485 %%ENDD    									   
                  		      1486 %%SYM     ,9,type=12,id=90,size=48						   
                  		      1487 %%DDS     									   
                  		      1488 %%SYM     Name,7,type=2,val=0,size=30					   
                  		      1489 %%DTY     									   
                  		      1490 %%DAR     1,30								   
                  		      1491 %%ENDD    									   
                  		      1492 %%SYM     AdminSign,7,type=2,val=30,size=1					   
                  		      1493 %%SYM     Location,7,type=2,val=31,size=3					   
                  		      1494 %%DTY     									   
                  		      1495 %%DAR     1,3								   
                  		      1496 %%ENDD    									   
                  		      1497 %%SYM     UserId,7,type=2,val=34,size=10					   
                  		      1498 %%DTY     									   
                  		      1499 %%DAR     1,10								   
                  		      1500 %%ENDD    									   
                  		      1501 %%SYM     None,7,type=2,val=44,size=1					   
                  		      1502 %%ENDD    									   
                  		      1503 %%SYM     ,9,type=12,id=91,size=100						   
                  		      1504 %%DDS     									   
                  		      1505 %%SYM     msg1,7,type=2,val=0,size=20					   
                  		      1506 %%DTY     									   
                  		      1507 %%DAR     1,20								   
                  		      1508 %%ENDD    									   
                  		      1509 %%SYM     msg2,7,type=2,val=20,size=20					   
                  		      1510 %%DTY     									   
                  		      1511 %%DAR     1,20								   
                  		      1512 %%ENDD    									   
                  		      1513 %%SYM     msg3,7,type=2,val=40,size=20					   
                  		      1514 %%DTY     									   
                  		      1515 %%DAR     1,20								   
                  		      1516 %%ENDD    									   


   CROSS ASSEMBLER     V10-L41   (8901)  XASS-V                                           Sat 02-Mar-2019 11:01:07      PAGE-0042
											              ARM               0102
Addr     Location Object-Code	   RE Isn  Source Statement  [ ********                       ]				    Error
  		  1 2 3 4 5 6 7 8	   ....*....1....*....2....*....3....*....4....*....5....*....6....*....7....*....8
                  		      1517 %%SYM     msg4,7,type=2,val=60,size=20					   
                  		      1518 %%DTY     									   
                  		      1519 %%DAR     1,20								   
                  		      1520 %%ENDD    									   
                  		      1521 %%SYM     msg5,7,type=2,val=80,size=20					   
                  		      1522 %%DTY     									   
                  		      1523 %%DAR     1,20								   
                  		      1524 %%ENDD    									   
                  		      1525 %%ENDD    									   
                  		      1526 %%LINE    000006								   
                  		      1527 %%FUNC    InStock,3,cls=2,type=5,ftype=1					   
                  		      1528 %%RVALUE  kind=direct,register=R0,atype=2					   
                  		      1529 @InStock: ;entry								   
         00000000 C05C2DE9	      1530 		   stmfd     sp!,{r6,r7,r10,r11,r12,lr}				   
         00000004 0DB0A0E1	      1531 		   mov	     r11,sp						   
                  		      1532 %%SAVE  R6,kind=direct,base=R11,offset=0,atype=6				   
                  		      1533 %%SAVE  R7,kind=direct,base=R11,offset=4,atype=6				   
                  		      1534 %%SAVE  R10,kind=direct,base=R11,offset=8,atype=6				   
                  		      1535 %%SAVE  R12,kind=direct,base=R11,offset=16,atype=6				   
00000034 00000008 34D04DE2	      1536 		   sub	     sp,#52						   
00007000 0000000C 07DA4DE2	      1537 		   sub	     sp,#28672						   
00007034          		      1538 AS@InStock	   set	   28724	   ; stack frame total size		   
                  		      1539 %%BF	     									   
                  		      1540 %%SYM     ret,0,type=5,cls=1,reg=R10,val=0,size=4				   
                  		      1541 %%SYM     cnt,0,type=5,cls=6,val=-4,size=4					   
                  		      1542 %%SYM     pclList,0,type=2,cls=6,val=-28720,size=4096			   
                  		      1543 %%DTY     									   
                  		      1544 %%DAR     1,4096								   
                  		      1545 %%ENDD    									   
                  		      1546 %%SYM     tmp,0,type=2,cls=6,val=-4128,size=4096				   
                  		      1547 %%DTY     									   
                  		      1548 %%DAR     1,4096								   
                  		      1549 %%ENDD    									   
                  		      1550 %%SYM     totalBox,0,type=5,cls=6,val=-8,size=4				   
                  		      1551 %%SYM     boxScan,0,type=5,cls=6,val=-12,size=4				   
                  		      1552 %%SYM     boxes,0,type=2,cls=6,val=-14368,size=10240				   
                  		      1553 %%DTY     									   
                  		      1554 %%DAR     1,10240								   
                  		      1555 %%ENDD    									   
                  		      1556 %%SYM     boxesTemp,0,type=2,cls=6,val=-24608,size=10240			   
                  		      1557 %%DTY     									   
                  		      1558 %%DAR     1,10240								   
                  		      1559 %%ENDD    									   
                  		      1560 %%SYM     boxNo,0,type=2,cls=6,val=-24624,size=14				   
                  		      1561 %%DTY     									   
                  		      1562 %%DAR     1,14								   
                  		      1563 %%ENDD    									   
                  		      1564 %%SYM     pclNo,0,type=2,cls=6,val=-32,size=18				   
                  		      1565 %%DTY     									   
                  		      1566 %%DAR     1,18								   
                  		      1567 %%ENDD    									   
                  		      1568 %%SCOPE   init								   
00000000 00000010 00C0A0E3	      1569 		   mov	     r12,#0						   
00000004 00000014 04708DE2	      1570 		   adrl	     r7,sp,AS@InStock-28720				   


   CROSS ASSEMBLER     V10-L41   (8901)  XASS-V                                           Sat 02-Mar-2019 11:01:07      PAGE-0043
											              ARM               0102
Addr     Location Object-Code	   RE Isn  Source Statement  [ ********                       ]				    Error
  		  1 2 3 4 5 6 7 8	   ....*....1....*....2....*....3....*....4....*....5....*....6....*....7....*....8
00000000 00000018 0060A0E3	      1571 		   mov	     r6,#0						   
                  		      1572 %%LINE    000007								   
                  		      1573 ;Expr(8): 4096								   
                  		      1574 %%SCOPE   init								   
00007030 0000001C 074A8DE2304084E2    1575 		   adrl	     r4,sp,AS@InStock-4					   
00000000 00000024 00C084E5	      1576 		   str	     r12,[r4,#0]					   
                  		      1577 %%LINE    000009								   
                  		      1578 ;Expr(12): 16+ 2								   
00007028 00000028 074A8DE2284084E2    1579 		   adrl	     r4,sp,AS@InStock-12				   
00000000 00000030 00C084E5	      1580 		   str	     r12,[r4,#0]					   
                  		      1581 %%LINE    000014								   
                  		      1582 ;Expr(14): btmemset(loc,0,sizeof(loc))  					   
00000004 00000034 0420A0E3	      1583 		   mov	     r2,#4						   
         00000038 0610A0E1	      1584 		   mov	     r1,r6						   
00000CD8 0000003C 940C9FE5	      1585 		   ldr	     r0,S1__loc						   
                  		      1586 %%CALL									   
00000000 00000040 000000EB	    E 1587 		   bl	     @btmemset						   
                  		      1588 %%LINE    000015								   
                  		      1589 ;Expr(15): btmemset(userId,0,sizeof(userId))	   				   
0000000A 00000044 0A20A0E3	      1590 		   mov	     r2,#10						   
         00000048 0610A0E1	      1591 		   mov	     r1,r6						   
00000CD4 0000004C 800C9FE5	      1592 		   ldr	     r0,S1__userId					   
                  		      1593 %%CALL									   
00000000 00000050 000000EB	    E 1594 		   bl	     @btmemset						   
                  		      1595 %%LINE    000016								   
                  		      1596 ;Expr(16): btmemset(msg2,0,sizeof(msg2))	   				   
00000080 00000054 8020A0E3	      1597 		   mov	     r2,#128						   
         00000058 0610A0E1	      1598 		   mov	     r1,r6						   
00000CD0 0000005C 6C0C9FE5	      1599 		   ldr	     r0,S__msg2						   
                  		      1600 %%CALL									   
00000000 00000060 000000EB	    E 1601 		   bl	     @btmemset						   
                  		      1602 %%LINE    000018								   
                  		      1603 ;Expr(18): MasterFind("location",loc)   					   
00000CD8 00000064 6C1C9FE5	      1604 		   ldr	     r1,S1__loc						   
00000CCC 00000068 5C0C9FE5	      1605 		   ldr	     r0,S_S1						   
                  		      1606 %%CALL									   
00000000 0000006C 000000EB	    E 1607 		   bl	     @MasterFind					   
                  		      1608 %%LINE    000019								   
                  		      1609 ;Expr(19): MasterFind("user",userId)	   					   
00000CD4 00000070 5C1C9FE5	      1610 		   ldr	     r1,S1__userId					   
00000CC8 00000074 4C0C9FE5	      1611 		   ldr	     r0,S_S2						   
                  		      1612 %%CALL									   
00000000 00000078 000000EB	    E 1613 		   bl	     @MasterFind					   
                  		      1614 %%LINE    000021								   
                  		      1615 ;Expr(21): btmemset(pclList,0,sizeof(pclList))  				   
00001000 0000007C 012AA0E3	      1616 		   mov	     r2,#4096						   
         00000080 0610A0E1	      1617 		   mov	     r1,r6						   
         00000084 0700A0E1	      1618 		   mov	     r0,r7						   
                  		      1619 %%CALL									   
00000000 00000088 000000EB	    E 1620 		   bl	     @btmemset						   
                  		      1621 %%LINE    000022								   
                  		      1622 ;Expr(22): btmemset(msg,0,sizeof(msg))  					   
00000080 0000008C 8020A0E3	      1623 		   mov	     r2,#128						   
         00000090 0610A0E1	      1624 		   mov	     r1,r6						   


   CROSS ASSEMBLER     V10-L41   (8901)  XASS-V                                           Sat 02-Mar-2019 11:01:07      PAGE-0044
											              ARM               0102
Addr     Location Object-Code	   RE Isn  Source Statement  [ ********                       ]				    Error
  		  1 2 3 4 5 6 7 8	   ....*....1....*....2....*....3....*....4....*....5....*....6....*....7....*....8
00000CDC 00000094 400C9FE5	      1625 		   ldr	     r0,S1__msg						   
                  		      1626 %%CALL									   
00000000 00000098 000000EB	    E 1627 		   bl	     @btmemset						   
                  		      1628 L4:										   
                  		      1629 ; - do -									   
                  		      1630 %%LINE    000026								   
                  		      1631 ;Expr(26): btmemset(pclNo,0,sizeof(pclNo))	   				   
                  		      1632 %%SCOPE   init								   
00000012 0000009C 1220A0E3	      1633 		   mov	     r2,#18						   
         000000A0 0610A0E1	      1634 		   mov	     r1,r6						   
00007014 000000A4 070A8DE2140080E2    1635 		   adrl	     r0,sp,AS@InStock-32				   
                  		      1636 %%CALL									   
00000000 000000AC 000000EB	    E 1637 		   bl	     @btmemset						   
                  		      1638 %%LINE    000027								   
                  		      1639 ;Expr(27): ret=ReadData(pclNo,pclList,msg,0,1)   - if -			   
00000001 000000B0 0100A0E3	      1640 		   mov	     r0,#1						   
         000000B4 01002DE9	      1641 		   stmfd     sp!,{r0}						   
00000000 000000B8 0030A0E3	      1642 		   mov	     r3,#0						   
00000CDC 000000BC 182C9FE5	      1643 		   ldr	     r2,S1__msg						   
         000000C0 0710A0E1	      1644 		   mov	     r1,r7						   
00007018 000000C4 070A8DE2180080E2    1645 		   adrl	     r0,sp,AS@InStock-32+4				   
                  		      1646 %%CALL									   
00000000 000000CC 000000EB	    E 1647 		   bl	     @ReadData						   
         000000D0 00A0A0E1	      1648 		   mov	     r10,r0						   
                  		      1649 %%LINE    000029								   
                  		      1650 ;Expr(29): ret<0	   							   
                  		      1651 %%SCOPE   on,ret								   
00000004 000000D4 04D08DE2	      1652 		   add	     sp,#4						   
         000000D8 0C005AE1	      1653 		   cmp	     r10,r12						   
                  		      1654 ; - then - - return -							   
                  		      1655 %%LINE    000030								   
                  		      1656 ;Expr(30): ret  								   
                  		      1657 %%SCOPE   init,ret								   
000004EC 000000DC 020100BA	      1658 		   blt.x     L77						   
                  		      1659 ; - endif - - if -								   
                  		      1660 %%LINE    000032								   
                  		      1661 ;Expr(32): ret==2&&btstrlen(pclList)>0  					   
                  		      1662 %%SCOPE   init,ret								   
00000002 000000E0 02005AE3	      1663 		   cmp	     r10,#2						   
000000F8 000000E4 0300001A	      1664 		   bne.x     L13						   
                  		      1665 %%SCOPE   init,ret								   
         000000E8 0700A0E1	      1666 		   mov	     r0,r7						   
                  		      1667 %%CALL									   
00000000 000000EC 000000EB	    E 1668 		   bl	     @btstrlen						   
         000000F0 0C0050E1	      1669 		   cmp	     r0,r12						   
00000268 000000F4 5B0000CA	      1670 		   bgt.x     L33						   
                  		      1671 L13:										   
                  		      1672 ; - else - - if -								   
                  		      1673 %%LINE    000034								   
                  		      1674 ;Expr(34): ret==2&&btstrlen(pclNo)==0   					   
                  		      1675 %%SCOPE   init,ret								   
00000002 000000F8 02005AE3	      1676 		   cmp	     r10,#2						   
00000114 000000FC 0400001A	      1677 		   bne.x     L19						   
                  		      1678 %%SCOPE   init								   


   CROSS ASSEMBLER     V10-L41   (8901)  XASS-V                                           Sat 02-Mar-2019 11:01:07      PAGE-0045
											              ARM               0102
Addr     Location Object-Code	   RE Isn  Source Statement  [ ********                       ]				    Error
  		  1 2 3 4 5 6 7 8	   ....*....1....*....2....*....3....*....4....*....5....*....6....*....7....*....8
00007014 00000100 070A8DE2140080E2    1679 		   adrl	     r0,sp,AS@InStock-32				   
                  		      1680 %%CALL									   
00000000 00000108 000000EB	    E 1681 		   bl	     @btstrlen						   
00000000 0000010C 000050E3	      1682 		   cmp	     r0,#0						   
0000009C 00000110 E1FFFF0A	      1683 		   beq.x     L4							   
                  		      1684 L19:										   
                  		      1685 ; - endif - - if -								   
                  		      1686 %%LINE    000037								   
                  		      1687 ;Expr(37): btstrlen(pclList)==0 						   
                  		      1688 %%SCOPE   init								   
         00000114 0700A0E1	      1689 		   mov	     r0,r7						   
                  		      1690 %%CALL									   
00000000 00000118 000000EB	    E 1691 		   bl	     @btstrlen						   
00000000 0000011C 000050E3	      1692 		   cmp	     r0,#0						   
00000148 00000120 0800001A	      1693 		   bne.x     L22						   
                  		      1694 ; - then -									   
                  		      1695 %%LINE    000039								   
                  		      1696 ;Expr(39): btsprintf(pclList,"%s",pclNo)	   				   
                  		      1697 %%SCOPE   init								   
00007014 00000124 071A8DE2141081E2    1698 		   adrl	     r1,sp,AS@InStock-32				   
         0000012C 02002DE9	      1699 		   stmfd     sp!,{r1}						   
00000CE0 00000130 A80B9FE5	      1700 		   ldr	     r0,S_S3						   
         00000134 01002DE9	      1701 		   stmfd     sp!,{r0}						   
         00000138 80002DE9	      1702 		   stmfd     sp!,{r7}						   
                  		      1703 %%CALL									   
00000000 0000013C 000000EB	    E 1704 		   bl	     @btsprintf						   
0000000C 00000140 0CD08DE2	      1705 		   add	     sp,#12						   
000001C4 00000144 1E0000EA	      1706 		   b.x	     L26						   
                  		      1707 L22:										   
                  		      1708 ; - else - - if -								   
                  		      1709 %%LINE    000041								   
                  		      1710 ;Expr(41): btstrlen(pclList)>0  						   
                  		      1711 %%SCOPE   init								   
         00000148 0700A0E1	      1712 		   mov	     r0,r7						   
                  		      1713 %%CALL									   
00000000 0000014C 000000EB	    E 1714 		   bl	     @btstrlen						   
         00000150 0C0050E1	      1715 		   cmp	     r0,r12						   
000001C4 00000154 1A0000DA	      1716 		   ble.x     L26						   
                  		      1717 ; - then -									   
                  		      1718 %%LINE    000043								   
                  		      1719 ;Expr(43): btmemset(tmp,0,sizeof(tmp))  					   
                  		      1720 %%SCOPE   init								   
00001000 00000158 012AA0E3	      1721 		   mov	     r2,#4096						   
         0000015C 0610A0E1	      1722 		   mov	     r1,r6						   
00006014 00000160 060A8DE2140080E2    1723 		   adrl	     r0,sp,AS@InStock-4128				   
                  		      1724 %%CALL									   
00000000 00000168 000000EB	    E 1725 		   bl	     @btmemset						   
                  		      1726 %%LINE    000044								   
                  		      1727 ;Expr(44): btsprintf(tmp,"%s",pclList)  					   
         0000016C 80002DE9	      1728 		   stmfd     sp!,{r7}						   
00000CE8 00000170 700B9FE5	      1729 		   ldr	     r0,S_S4						   
         00000174 01002DE9	      1730 		   stmfd     sp!,{r0}						   
0000601C 00000178 061A8DE21C1081E2    1731 		   adrl	     r1,sp,AS@InStock-4128+8				   
         00000180 02002DE9	      1732 		   stmfd     sp!,{r1}						   


   CROSS ASSEMBLER     V10-L41   (8901)  XASS-V                                           Sat 02-Mar-2019 11:01:07      PAGE-0046
											              ARM               0102
Addr     Location Object-Code	   RE Isn  Source Statement  [ ********                       ]				    Error
  		  1 2 3 4 5 6 7 8	   ....*....1....*....2....*....3....*....4....*....5....*....6....*....7....*....8
                  		      1733 %%CALL									   
00000000 00000184 000000EB	    E 1734 		   bl	     @btsprintf						   
                  		      1735 %%LINE    000046								   
                  		      1736 ;Expr(46): btmemset(pclList,0,sizeof(pclList))  				   
00001000 00000188 012AA0E3	      1737 		   mov	     r2,#4096						   
         0000018C 0610A0E1	      1738 		   mov	     r1,r6						   
         00000190 0700A0E1	      1739 		   mov	     r0,r7						   
                  		      1740 %%CALL									   
00000000 00000194 000000EB	    E 1741 		   bl	     @btmemset						   
                  		      1742 %%LINE    000047								   
                  		      1743 ;Expr(47): btsprintf(pclList,"%s@%s",tmp,pclNo) 				   
00007020 00000198 070A8DE2200080E2    1744 		   adrl	     r0,sp,AS@InStock-32+12				   
         000001A0 01002DE9	      1745 		   stmfd     sp!,{r0}						   
00006024 000001A4 061A8DE2241081E2    1746 		   adrl	     r1,sp,AS@InStock-4128+16				   
         000001AC 02002DE9	      1747 		   stmfd     sp!,{r1}						   
00000CE4 000001B0 2C2B9FE5	      1748 		   ldr	     r2,S_S5						   
         000001B4 04002DE9	      1749 		   stmfd     sp!,{r2}						   
         000001B8 80002DE9	      1750 		   stmfd     sp!,{r7}						   
                  		      1751 %%CALL									   
00000000 000001BC 000000EB	    E 1752 		   bl	     @btsprintf						   
0000001C 000001C0 1CD08DE2	      1753 		   add	     sp,#28						   
                  		      1754 L26:										   
                  		      1755 ; - endif -									   
                  		      1756 %%LINE    000050								   
                  		      1757 ;Expr(50): cnt++	   							   
                  		      1758 %%SCOPE   init								   
00007030 000001C4 074A8DE2304084E2    1759 		   adrl	     r4,sp,AS@InStock-4					   
00000000 000001CC 000094E5	      1760 		   ldr	     r0,[r4,#0]						   
00000001 000001D0 010090E2	      1761 		   adds	     r0,r0,#1						   
00000000 000001D4 000084E5	      1762 		   str	     r0,[r4,#0]						   
                  		      1763 %%LINE    000052								   
                  		      1764 ;Expr(52): btmemset(msg,0,sizeof(msg))  					   
00000080 000001D8 8020A0E3	      1765 		   mov	     r2,#128						   
         000001DC 0610A0E1	      1766 		   mov	     r1,r6						   
00000CDC 000001E0 F40A9FE5	      1767 		   ldr	     r0,S1__msg						   
                  		      1768 %%CALL									   
00000000 000001E4 000000EB	    E 1769 		   bl	     @btmemset						   
                  		      1770 %%LINE    000053								   
                  		      1771 ;Expr(53): btsprintf(msg,"[%d]",cnt)	   					   
00007030 000001E8 074A8DE2304084E2    1772 		   adrl	     r4,sp,AS@InStock-4					   
00000000 000001F0 000094E5	      1773 		   ldr	     r0,[r4,#0]						   
         000001F4 01002DE9	      1774 		   stmfd     sp!,{r0}						   
00000CF0 000001F8 F01A9FE5	      1775 		   ldr	     r1,S_S6						   
         000001FC 02002DE9	      1776 		   stmfd     sp!,{r1}						   
00000CDC 00000200 D40A9FE5	      1777 		   ldr	     r0,S1__msg						   
         00000204 01002DE9	      1778 		   stmfd     sp!,{r0}						   
                  		      1779 %%CALL									   
00000000 00000208 000000EB	    E 1780 		   bl	     @btsprintf						   
                  		      1781 %%LINE    000055								   
                  		      1782 ;Expr(55): keyCode=StartDisplay("VNN NOK","PCL No:",pclNo,"","","",""," C:Thoat 
                  		           - ENT:Gui ")	    - if -							   
00000CEC 0000020C D80A9FE5	      1783 		   ldr	     r0,S_S13						   
         00000210 01002DE9	      1784 		   stmfd     sp!,{r0}						   
00000001 00000214 011040E2	      1785 		   sub	     r1,r0,#1		   ; ldr r1,S_S12		   


   CROSS ASSEMBLER     V10-L41   (8901)  XASS-V                                           Sat 02-Mar-2019 11:01:07      PAGE-0047
											              ARM               0102
Addr     Location Object-Code	   RE Isn  Source Statement  [ ********                       ]				    Error
  		  1 2 3 4 5 6 7 8	   ....*....1....*....2....*....3....*....4....*....5....*....6....*....7....*....8
         00000218 02002DE9	      1786 		   stmfd     sp!,{r1}						   
00000002 0000021C 022040E2	      1787 		   sub	     r2,r0,#2		   ; ldr r2,S_S11		   
         00000220 04002DE9	      1788 		   stmfd     sp!,{r2}						   
00000003 00000224 030040E2	      1789 		   sub	     r0,r0,#3		   ; ldr r0,S_S10		   
         00000228 01002DE9	      1790 		   stmfd     sp!,{r0}						   
00000001 0000022C 013040E2	      1791 		   sub	     r3,r0,#1		   ; ldr r3,S_S9		   
00007030 00000230 072A8DE2302082E2    1792 		   adrl	     r2,sp,AS@InStock-32+28				   
0000000B 00000238 0B1041E2	      1793 		   sub	     r1,r1,#11		   ; ldr r1,S_S8		   
00000011 0000023C 110040E2	      1794 		   sub	     r0,r0,#17		   ; ldr r0,S_S7		   
                  		      1795 %%CALL									   
00000000 00000240 000000EB	    E 1796 		   bl	     @StartDisplay					   
00000D38 00000244 EC4A9FE5	      1797 		   ldr	     r4,S1__keyCode					   
00000000 00000248 000084E5	      1798 		   str	     r0,[r4,#0]						   
                  		      1799 %%LINE    000057								   
                  		      1800 ;Expr(57): keyCode==(0019)	   						   
0000001C 0000024C 1CD08DE2	      1801 		   add	     sp,#28						   
00000000 00000250 001094E5	      1802 		   ldr	     r1,[r4,#0]						   
00000019 00000254 190051E3	      1803 		   cmp	     r1,#25						   
000003CC 00000258 5B00000A	      1804 		   beq.x     L79						   
                  		      1805 ; - endif - - if -								   
                  		      1806 %%LINE    000060								   
                  		      1807 ;Expr(60): keyCode==(000d)	   						   
                  		      1808 %%SCOPE   init								   
00000000 0000025C 000094E5	      1809 		   ldr	     r0,[r4,#0]						   
0000000D 00000260 0D0050E3	      1810 		   cmp	     r0,#13						   
0000009C 00000264 8CFFFF1A	      1811 		   bne.x     L4							   
                  		      1812 L33:										   
                  		      1813 %%LINE    000063								   
                  		      1814 ;Expr(63): btmemset(send,0,sizeof(send))	   				   
                  		      1815 %%SCOPE   init								   
00005000 00000268 052AA0E3	      1816 		   mov	     r2,#20480						   
         0000026C 0610A0E1	      1817 		   mov	     r1,r6						   
00000D08 00000270 900A9FE5	      1818 		   ldr	     r0,S2__send					   
                  		      1819 %%CALL									   
00000000 00000274 000000EB	    E 1820 		   bl	     @btmemset						   
                  		      1821 %%LINE    000065								   
                  		      1822 ;Expr(65): MakeDataToSend("M301","",pclList,send)	   			   
00000D08 00000278 883A9FE5	      1823 		   ldr	     r3,S2__send					   
         0000027C 0720A0E1	      1824 		   mov	     r2,r7						   
00000CF4 00000280 6C1A9FE5	      1825 		   ldr	     r1,S_S15						   
00000005 00000284 050041E2	      1826 		   sub	     r0,r1,#5		   ; ldr r0,S_S14		   
                  		      1827 %%CALL									   
00000000 00000288 000000EB	    E 1828 		   bl	     @MakeDataToSend					   
                  		      1829 %%LINE    000067								   
                  		      1830 ;Expr(67): ret=DataSend(send,btstrlen(send),rcv,sizeof(rcv),(0))	    - if - 
         0000028C 00102DE9	      1831 		   stmfd     sp!,{r12}						   
00000D08 00000290 700A9FE5	      1832 		   ldr	     r0,S2__send					   
                  		      1833 %%CALL									   
00000000 00000294 000000EB	    E 1834 		   bl	     @btstrlen						   
         00000298 00A0A0E1	      1835 		   mov	     r10,r0						   
00005000 0000029C 053AA0E3	      1836 		   mov	     r3,#20480						   
00000DF0 000002A0 482B9FE5	      1837 		   ldr	     r2,S1__rcv						   
         000002A4 0A10A0E1	      1838 		   mov	     r1,r10						   
00000D08 000002A8 580A9FE5	      1839 		   ldr	     r0,S2__send					   


   CROSS ASSEMBLER     V10-L41   (8901)  XASS-V                                           Sat 02-Mar-2019 11:01:07      PAGE-0048
											              ARM               0102
Addr     Location Object-Code	   RE Isn  Source Statement  [ ********                       ]				    Error
  		  1 2 3 4 5 6 7 8	   ....*....1....*....2....*....3....*....4....*....5....*....6....*....7....*....8
                  		      1840 %%CALL									   
00000000 000002AC 000000EB	    E 1841 		   bl	     @DataSend						   
                  		      1842 %%LINE    000069								   
                  		      1843 ;Expr(69): ret==1	   							   
00000004 000002B0 04D08DE2	      1844 		   add	     sp,#4						   
00000001 000002B4 010050E3	      1845 		   cmp	     r0,#1						   
000004CC 000002B8 8300000A	      1846 		   beq.x     L78						   
                  		      1847 ; - endif -									   
                  		      1848 %%LINE    000072								   
                  		      1849 ;Expr(72): btmemcpy(boxes,rcv,sizeof(boxes))	   				   
                  		      1850 %%SCOPE   init								   
00002800 000002BC 0A2BA0E3	      1851 		   mov	     r2,#10240						   
00000DF0 000002C0 281B9FE5	      1852 		   ldr	     r1,S1__rcv						   
00003814 000002C4 0E0B8DE2140080E2    1853 		   adrl	     r0,sp,AS@InStock-14368				   
                  		      1854 %%CALL									   
00000000 000002CC 000000EB	    E 1855 		   bl	     @btmemcpy						   
                  		      1856 %%LINE    000074								   
                  		      1857 ;Expr(74): totalBox=btstrlen((char*)boxes)/12    - if -			   
00003814 000002D0 0E0B8DE2140080E2    1858 		   adrl	     r0,sp,AS@InStock-14368				   
                  		      1859 %%CALL									   
00000000 000002D8 000000EB	    E 1860 		   bl	     @btstrlen						   
0000000C 000002DC 0C10A0E3	      1861 		   mov	     r1,#12						   
00000000 000002E0 000000EB	    E 1862 		   bl	     cslldiv						   
0000702C 000002E4 074A8DE22C4084E2    1863 		   adrl	     r4,sp,AS@InStock-8					   
00000000 000002EC 000084E5	      1864 		   str	     r0,[r4,#0]						   
                  		      1865 %%LINE    000076								   
                  		      1866 ;Expr(76): totalBox>0   							   
         000002F0 0C0050E1	      1867 		   cmp	     r0,r12						   
000004E4 000002F4 7A0000DA	      1868 		   ble.x     L71						   
                  		      1869 %%LINE    000078								   
                  		      1870 ;Expr(78): btmemset(boxesTemp,0,sizeof(boxesTemp))	   			   
                  		      1871 %%SCOPE   init								   
00002800 000002F8 0A2BA0E3	      1872 		   mov	     r2,#10240						   
         000002FC 0610A0E1	      1873 		   mov	     r1,r6						   
00001014 00000300 010A8DE2140080E2    1874 		   adrl	     r0,sp,AS@InStock-24608				   
                  		      1875 %%CALL									   
00000000 00000308 000000EB	    E 1876 		   bl	     @btmemset						   
                  		      1877 L41:										   
                  		      1878 ; - do -									   
                  		      1879 %%LINE    000082								   
                  		      1880 ;Expr(82): btsprintf(msg,"Scanned Box: %ld/%ld",boxScan,totalBox)	   	   
                  		      1881 %%SCOPE   init								   
0000702C 0000030C 074A8DE22C4084E2    1882 		   adrl	     r4,sp,AS@InStock-8					   
00000000 00000314 000094E5	      1883 		   ldr	     r0,[r4,#0]						   
         00000318 01002DE9	      1884 		   stmfd     sp!,{r0}						   
0000702C 0000031C 074A8DE22C4084E2    1885 		   adrl	     r4,sp,AS@InStock-12+4				   
00000000 00000324 001094E5	      1886 		   ldr	     r1,[r4,#0]						   
         00000328 02002DE9	      1887 		   stmfd     sp!,{r1}						   
00000CF8 0000032C C4099FE5	      1888 		   ldr	     r0,S_S16						   
         00000330 01002DE9	      1889 		   stmfd     sp!,{r0}						   
00000CDC 00000334 A0199FE5	      1890 		   ldr	     r1,S1__msg						   
         00000338 02002DE9	      1891 		   stmfd     sp!,{r1}						   
                  		      1892 %%CALL									   
00000000 0000033C 000000EB	    E 1893 		   bl	     @btsprintf						   


   CROSS ASSEMBLER     V10-L41   (8901)  XASS-V                                           Sat 02-Mar-2019 11:01:07      PAGE-0049
											              ARM               0102
Addr     Location Object-Code	   RE Isn  Source Statement  [ ********                       ]				    Error
  		  1 2 3 4 5 6 7 8	   ....*....1....*....2....*....3....*....4....*....5....*....6....*....7....*....8
                  		      1894 %%LINE    000083								   
                  		      1895 ;Expr(83): btmemset(boxNo,0,sizeof(boxNo))	   				   
0000000E 00000340 0E20A0E3	      1896 		   mov	     r2,#14						   
         00000344 0610A0E1	      1897 		   mov	     r1,r6						   
00001014 00000348 010A8DE2140080E2    1898 		   adrl	     r0,sp,AS@InStock-24624+16				   
                  		      1899 %%CALL									   
00000000 00000350 000000EB	    E 1900 		   bl	     @btmemset						   
                  		      1901 %%LINE    000084								   
                  		      1902 ;Expr(84): ret=ReadData(boxNo,boxesTemp,msg,0,2)	    - if -		   
00000002 00000354 0200A0E3	      1903 		   mov	     r0,#2						   
         00000358 01002DE9	      1904 		   stmfd     sp!,{r0}						   
00000000 0000035C 0030A0E3	      1905 		   mov	     r3,#0						   
00000CDC 00000360 74299FE5	      1906 		   ldr	     r2,S1__msg						   
00001028 00000364 011A8DE2281081E2    1907 		   adrl	     r1,sp,AS@InStock-24608+20				   
00001018 0000036C 010A8DE2180080E2    1908 		   adrl	     r0,sp,AS@InStock-24624+20				   
                  		      1909 %%CALL									   
00000000 00000374 000000EB	    E 1910 		   bl	     @ReadData						   
                  		      1911 %%LINE    000086								   
                  		      1912 ;Expr(86): ret==2&&btstrlen(boxNo)==0   					   
00000014 00000378 14D08DE2	      1913 		   add	     sp,#20						   
00000002 0000037C 020050E3	      1914 		   cmp	     r0,#2						   
00000398 00000380 0400001A	      1915 		   bne.x     L55						   
                  		      1916 %%SCOPE   init								   
00001004 00000384 010A8DE2040080E2    1917 		   adrl	     r0,sp,AS@InStock-24624				   
                  		      1918 %%CALL									   
00000000 0000038C 000000EB	    E 1919 		   bl	     @btstrlen						   
00000000 00000390 000050E3	      1920 		   cmp	     r0,#0						   
0000030C 00000394 DCFFFF0A	      1921 		   beq.x     L41						   
                  		      1922 L55:										   
                  		      1923 %%LINE    000090								   
                  		      1924 ;Expr(90): ret=CheckDataExistInString(boxes,boxNo,3)	   			   
                  		      1925 %%SCOPE   init								   
00000003 00000398 0320A0E3	      1926 		   mov	     r2,#3						   
00001004 0000039C 011A8DE2041081E2    1927 		   adrl	     r1,sp,AS@InStock-24624				   
00003814 000003A4 0E0B8DE2140080E2    1928 		   adrl	     r0,sp,AS@InStock-14368				   
                  		      1929 %%CALL									   
00000000 000003AC 000000EB	    E 1930 		   bl	     @CheckDataExistInString				   
                  		      1931 %%LINE    000091								   
                  		      1932 ;Expr(91): ret  								   
0000000D 000003B0 0D0050E3	      1933 		   cmp	     r0,#13						   
0000030C 000003B4 D4FFFF0A	      1934 		   beq.x     L41						   
00000010 000003B8 100050E3	      1935 		   cmp	     r0,#16						   
0000030C 000003BC D2FFFF0A	      1936 		   beq.x     L41						   
00000019 000003C0 190050E3	      1937 		   cmp	     r0,#25						   
000003CC 000003C4 0000000A	      1938 		   beq.x     L79						   
000003D4 000003C8 010000EA	      1939 		   b.x	     L56						   
                  		      1940 L79:										   
                  		      1941 ;winch object								   
                  		      1942 ;Expr(94): - 2  								   
                  		      1943 %%SCOPE   init								   
00000001 000003CC 0100E0E3	      1944 		   mvn	     r0,#1						   
000004EC 000003D0 450000EA	      1945 		   b.x	     L77						   
                  		      1946 L56:										   
                  		      1947 %%LINE    000102								   


   CROSS ASSEMBLER     V10-L41   (8901)  XASS-V                                           Sat 02-Mar-2019 11:01:07      PAGE-0050
											              ARM               0102
Addr     Location Object-Code	   RE Isn  Source Statement  [ ********                       ]				    Error
  		  1 2 3 4 5 6 7 8	   ....*....1....*....2....*....3....*....4....*....5....*....6....*....7....*....8
                  		      1948 ;Expr(102): btmemset(tmp,0,sizeof(tmp)) 					   
                  		      1949 %%SCOPE   init								   
00001000 000003D4 012AA0E3	      1950 		   mov	     r2,#4096						   
         000003D8 0610A0E1	      1951 		   mov	     r1,r6						   
00006014 000003DC 060A8DE2140080E2    1952 		   adrl	     r0,sp,AS@InStock-4128				   
                  		      1953 %%CALL									   
00000000 000003E4 000000EB	    E 1954 		   bl	     @btmemset						   
                  		      1955 %%LINE    000103								   
                  		      1956 ;Expr(103): btsprintf(tmp,"%s%s",boxesTemp,boxNo)	   			   
00001004 000003E8 010A8DE2040080E2    1957 		   adrl	     r0,sp,AS@InStock-24624				   
         000003F0 01002DE9	      1958 		   stmfd     sp!,{r0}						   
00001018 000003F4 011A8DE2181081E2    1959 		   adrl	     r1,sp,AS@InStock-24608+4				   
         000003FC 02002DE9	      1960 		   stmfd     sp!,{r1}						   
00000D00 00000400 F8289FE5	      1961 		   ldr	     r2,S_S17						   
         00000404 04002DE9	      1962 		   stmfd     sp!,{r2}						   
00006020 00000408 060A8DE2200080E2    1963 		   adrl	     r0,sp,AS@InStock-4128+12				   
         00000410 01002DE9	      1964 		   stmfd     sp!,{r0}						   
                  		      1965 %%CALL									   
00000000 00000414 000000EB	    E 1966 		   bl	     @btsprintf						   
                  		      1967 %%LINE    000105								   
                  		      1968 ;Expr(105): btmemset(boxesTemp,0,sizeof(boxesTemp))	   			   
00002800 00000418 0A2BA0E3	      1969 		   mov	     r2,#10240						   
         0000041C 0610A0E1	      1970 		   mov	     r1,r6						   
00001024 00000420 010A8DE2240080E2    1971 		   adrl	     r0,sp,AS@InStock-24608+16				   
                  		      1972 %%CALL									   
00000000 00000428 000000EB	    E 1973 		   bl	     @btmemset						   
                  		      1974 %%LINE    000106								   
                  		      1975 ;Expr(106): btsprintf(boxesTemp,"%s",tmp)	   				   
00006024 0000042C 060A8DE2240080E2    1976 		   adrl	     r0,sp,AS@InStock-4128+16				   
         00000434 01002DE9	      1977 		   stmfd     sp!,{r0}						   
00000CFC 00000438 BC189FE5	      1978 		   ldr	     r1,S_S18						   
         0000043C 02002DE9	      1979 		   stmfd     sp!,{r1}						   
0000102C 00000440 012A8DE22C2082E2    1980 		   adrl	     r2,sp,AS@InStock-24608+24				   
         00000448 04002DE9	      1981 		   stmfd     sp!,{r2}						   
                  		      1982 %%CALL									   
00000000 0000044C 000000EB	    E 1983 		   bl	     @btsprintf						   
                  		      1984 %%LINE    000108								   
                  		      1985 ;Expr(108): boxScan++    - if -						   
00007044 00000450 074A8DE2444084E2    1986 		   adrl	     r4,sp,AS@InStock-12+28				   
00000000 00000458 000094E5	      1987 		   ldr	     r0,[r4,#0]						   
00000001 0000045C 010090E2	      1988 		   adds	     r0,r0,#1						   
00000000 00000460 000084E5	      1989 		   str	     r0,[r4,#0]						   
                  		      1990 %%LINE    000110								   
                  		      1991 ;Expr(110): boxScan==totalBox   						   
0000001C 00000464 1CD08DE2	      1992 		   add	     sp,#28						   
00000004 00000468 041094E5	      1993 		   ldr	     r1,[r4,#4]						   
         0000046C 010050E1	      1994 		   cmp	     r0,r1						   
0000030C 00000470 A5FFFF1A	      1995 		   bne.x     L41						   
                  		      1996 ; - then -									   
                  		      1997 %%LINE    000112								   
                  		      1998 ;Expr(112): btmemset(send,0,sizeof(send))	   				   
                  		      1999 %%SCOPE   init								   
00005000 00000474 052AA0E3	      2000 		   mov	     r2,#20480						   
         00000478 0610A0E1	      2001 		   mov	     r1,r6						   


   CROSS ASSEMBLER     V10-L41   (8901)  XASS-V                                           Sat 02-Mar-2019 11:01:07      PAGE-0051
											              ARM               0102
Addr     Location Object-Code	   RE Isn  Source Statement  [ ********                       ]				    Error
  		  1 2 3 4 5 6 7 8	   ....*....1....*....2....*....3....*....4....*....5....*....6....*....7....*....8
00000D08 0000047C 84089FE5	      2002 		   ldr	     r0,S2__send					   
                  		      2003 %%CALL									   
00000000 00000480 000000EB	    E 2004 		   bl	     @btmemset						   
                  		      2005 %%LINE    000114								   
                  		      2006 ;Expr(114): MakeDataToSend("M301","S01",pclList,send)   			   
00000D08 00000484 7C389FE5	      2007 		   ldr	     r3,S2__send					   
         00000488 0720A0E1	      2008 		   mov	     r2,r7						   
00000D04 0000048C 70189FE5	      2009 		   ldr	     r1,S_S20						   
00000005 00000490 050041E2	      2010 		   sub	     r0,r1,#5		   ; ldr r0,S_S19		   
                  		      2011 %%CALL									   
00000000 00000494 000000EB	    E 2012 		   bl	     @MakeDataToSend					   
                  		      2013 %%LINE    000116								   
                  		      2014 ;Expr(116): ret=DataSend(send,btstrlen(send),rcv,sizeof(rcv),(0))	    - if - 
         00000498 00102DE9	      2015 		   stmfd     sp!,{r12}						   
00000D08 0000049C 64089FE5	      2016 		   ldr	     r0,S2__send					   
                  		      2017 %%CALL									   
00000000 000004A0 000000EB	    E 2018 		   bl	     @btstrlen						   
00000004 000004A4 04008DE5	      2019 		   str	     r0,[sp,#AS@InStock-28724+4]			   
00005000 000004A8 053AA0E3	      2020 		   mov	     r3,#20480						   
00000DF0 000004AC 3C299FE5	      2021 		   ldr	     r2,S1__rcv						   
         000004B0 0010A0E1	      2022 		   mov	     r1,r0						   
00000D08 000004B4 4C089FE5	      2023 		   ldr	     r0,S2__send					   
                  		      2024 %%CALL									   
00000000 000004B8 000000EB	    E 2025 		   bl	     @DataSend						   
         000004BC 00A0A0E1	      2026 		   mov	     r10,r0						   
                  		      2027 %%LINE    000118								   
                  		      2028 ;Expr(118): ret==1	   							   
                  		      2029 %%SCOPE   on,ret								   
00000004 000004C0 04D08DE2	      2030 		   add	     sp,#4						   
00000001 000004C4 01005AE3	      2031 		   cmp	     r10,#1						   
000004D4 000004C8 0100001A	      2032 		   bne.x     L62						   
                  		      2033 L78:										   
                  		      2034 ;winch object								   
                  		      2035 ;Expr(119): - 1 								   
                  		      2036 %%SCOPE   init								   
00000000 000004CC 0000E0E3	      2037 		   mvn	     r0,#0						   
000004EC 000004D0 050000EA	      2038 		   b.x	     L77						   
                  		      2039 L62:										   
                  		      2040 ; - endif - - if -								   
                  		      2041 %%LINE    000121								   
                  		      2042 ;Expr(121): !ret	   							   
                  		      2043 %%SCOPE   init,ret								   
00000000 000004D4 00005AE3	      2044 		   cmp	     r10,#0						   
0000030C 000004D8 8BFFFF1A	      2045 		   bne.x     L41						   
                  		      2046 ; - then - - return -							   
                  		      2047 %%LINE    000122								   
                  		      2048 ;Expr(122): 0   								   
                  		      2049 %%SCOPE   init								   
         000004DC 0C00A0E1	      2050 		   mov	     r0,r12						   
000004EC 000004E0 010000EA	      2051 		   b.x	     L77						   
                  		      2052 L71:										   
                  		      2053 ; - else -									   
                  		      2054 %%LINE    000128								   
                  		      2055 ;Expr(128): Buzzer()	   							   


   CROSS ASSEMBLER     V10-L41   (8901)  XASS-V                                           Sat 02-Mar-2019 11:01:07      PAGE-0052
											              ARM               0102
Addr     Location Object-Code	   RE Isn  Source Statement  [ ********                       ]				    Error
  		  1 2 3 4 5 6 7 8	   ....*....1....*....2....*....3....*....4....*....5....*....6....*....7....*....8
                  		      2056 %%SCOPE   init								   
                  		      2057 %%CALL									   
00000000 000004E4 000000EB	    E 2058 		   bl	     @Buzzer						   
0000009C 000004E8 EBFEFFEA	      2059 		   b.x	     L4							   
                  		      2060 L77:										   
                  		      2061 ; RET									   
                  		      2062 %%LINE    000132								   
                  		      2063 %%SCOPE init									   
                  		      2064 %%EF	     									   
00000034 000004EC 34D08DE2	      2065 		   add	     sp,#52						   
00007000 000004F0 07DA8DE2	      2066 		   add	     sp,#28672						   
                  		      2067 %%RESTORE	   R6								   
                  		      2068 %%RESTORE	   R7								   
                  		      2069 %%RESTORE	   R10								   
                  		      2070 %%RESTORE	   R12								   
                  		      2071 %%RETURN									   
         000004F4 C09CBDE8	      2072 		   ldmfd     sp!,{r6,r7,r10,r11,r12,pc}				   
         000004F8 		      2073 		   bnd	     4							   
                  		      2074 %%FEND    									   
                  		      2075 ;	   cnt -> offset -4	    int						   
                  		      2076 ;	   totalBox -> offset -8    int						   
                  		      2077 ;	   boxScan -> offset -12    int						   
                  		      2078 ;	   ret -> regid  11	    int						   
                  		      2079 ;	   pclNo -> offset -32	    array					   
                  		      2080 ;	   tmp -> offset -4128	    array					   
                  		      2081 ;	   boxes -> offset -14368   array					   
                  		      2082 ;	   boxesTemp -> offset -24608	    array				   
                  		      2083 ;	   boxNo -> offset -24624   array					   
                  		      2084 ;	   pclList -> offset -28720	    array				   
                  		      2085 %%LINE    000135								   
                  		      2086 %%FUNC    CheckInventoryForOS,3,cls=2,type=5,ftype=1				   
                  		      2087 %%RVALUE  kind=direct,register=R0,atype=2					   
                  		      2088 @CheckInventoryForOS: ;entry							   
         000004F8 C05C2DE9	      2089 		   stmfd     sp!,{r6,r7,r10,r11,r12,lr}				   
         000004FC 0DB0A0E1	      2090 		   mov	     r11,sp						   
                  		      2091 %%SAVE  R6,kind=direct,base=R11,offset=0,atype=6				   
                  		      2092 %%SAVE  R7,kind=direct,base=R11,offset=4,atype=6				   
                  		      2093 %%SAVE  R10,kind=direct,base=R11,offset=8,atype=6				   
                  		      2094 %%SAVE  R12,kind=direct,base=R11,offset=16,atype=6				   
0000012C 00000500 4BDF4DE2	      2095 		   sub	     sp,#300						   
00015000 00000504 15DA4DE2	      2096 		   sub	     sp,#86016						   
0001512C          		      2097 AS@CheckInventoryForOS  set	   86316	   ; stack frame total size	   
                  		      2098 %%BF	     									   
                  		      2099 %%SYM     set,0,sym=89,cls=6,val=-82196,size=232				   
                  		      2100 %%SYM     ret,0,type=5,cls=1,reg=R7,val=0,size=4				   
                  		      2101 %%SYM     totalBox,0,type=5,cls=6,val=-4,size=4				   
                  		      2102 %%SYM     boxScanned,0,type=5,cls=6,val=-8,size=4				   
                  		      2103 %%SYM     boxes,0,type=2,cls=6,val=-20524,size=20480				   
                  		      2104 %%DTY     									   
                  		      2105 %%DAR     1,20480								   
                  		      2106 %%ENDD    									   
                  		      2107 %%SYM     boxesTemp,0,type=2,cls=6,val=-41004,size=20480			   
                  		      2108 %%DTY     									   
                  		      2109 %%DAR     1,20480								   


   CROSS ASSEMBLER     V10-L41   (8901)  XASS-V                                           Sat 02-Mar-2019 11:01:07      PAGE-0053
											              ARM               0102
Addr     Location Object-Code	   RE Isn  Source Statement  [ ********                       ]				    Error
  		  1 2 3 4 5 6 7 8	   ....*....1....*....2....*....3....*....4....*....5....*....6....*....7....*....8
                  		      2110 %%ENDD    									   
                  		      2111 %%SYM     tmp,0,type=2,cls=6,val=-86312,size=4096				   
                  		      2112 %%DTY     									   
                  		      2113 %%DAR     1,4096								   
                  		      2114 %%ENDD    									   
                  		      2115 %%SYM     boxNo,0,type=2,cls=6,val=-44,size=14				   
                  		      2116 %%DTY     									   
                  		      2117 %%DAR     1,14								   
                  		      2118 %%ENDD    									   
                  		      2119 %%SYM     pallete,0,type=2,cls=6,val=-28,size=12				   
                  		      2120 %%DTY     									   
                  		      2121 %%DAR     1,12								   
                  		      2122 %%ENDD    									   
                  		      2123 %%SYM     shippingTo,0,type=2,cls=6,val=-82216,size=18			   
                  		      2124 %%DTY     									   
                  		      2125 %%DAR     1,18								   
                  		      2126 %%ENDD    									   
                  		      2127 %%SYM     mnPallete,0,type=2,cls=6,val=-61484,size=20480			   
                  		      2128 %%DTY     									   
                  		      2129 %%DAR     1,20480								   
                  		      2130 %%ENDD    									   
                  		      2131 %%SYM     mnPalleteTemp,0,type=2,cls=6,val=-81964,size=20480			   
                  		      2132 %%DTY     									   
                  		      2133 %%DAR     1,20480								   
                  		      2134 %%ENDD    									   
                  		      2135 %%SYM     totalPallete,0,type=5,cls=6,val=-12,size=4				   
                  		      2136 %%SYM     palleteScanned,0,type=5,cls=6,val=-16,size=4			   
                  		      2137 %%SCOPE   init								   
00000004 00000508 04C08DE2	      2138 		   adrl	     r12,sp,AS@CheckInventoryForOS-86312		   
00005000 0000050C 05AAA0E3	      2139 		   mov	     r10,#20480						   
00000000 00000510 0060A0E3	      2140 		   mov	     r6,#0						   
                  		      2141 %%LINE    000137								   
                  		      2142 ;Expr(141): 20480								   
                  		      2143 %%SCOPE   init								   
00015124 00000514 494F8DE2154A84E2    2144 		   adrl	     r4,sp,AS@CheckInventoryForOS-8			   
00000000 0000051C 006084E5	      2145 		   str	     r6,[r4,#0]						   
                  		      2146 %%LINE    000142								   
                  		      2147 ;Expr(142): 0   								   
0001511C 00000520 474F8DE2154A84E2    2148 		   adrl	     r4,sp,AS@CheckInventoryForOS-16			   
00000000 00000528 006084E5	      2149 		   str	     r6,[r4,#0]						   
                  		      2150 %%LINE    000144								   
                  		      2151 ;Expr(144): btmemset(loc,0,sizeof(loc)) 					   
00000004 0000052C 0420A0E3	      2152 		   mov	     r2,#4						   
         00000530 0610A0E1	      2153 		   mov	     r1,r6						   
00000CD8 00000534 9C079FE5	      2154 		   ldr	     r0,S1__loc						   
                  		      2155 %%CALL									   
00000000 00000538 000000EB	    E 2156 		   bl	     @btmemset						   
                  		      2157 %%LINE    000145								   
                  		      2158 ;Expr(145): btmemset(userId,0,sizeof(userId))   				   
0000000A 0000053C 0A20A0E3	      2159 		   mov	     r2,#10						   
         00000540 0610A0E1	      2160 		   mov	     r1,r6						   
00000CD4 00000544 88079FE5	      2161 		   ldr	     r0,S1__userId					   
                  		      2162 %%CALL									   
00000000 00000548 000000EB	    E 2163 		   bl	     @btmemset						   


   CROSS ASSEMBLER     V10-L41   (8901)  XASS-V                                           Sat 02-Mar-2019 11:01:07      PAGE-0054
											              ARM               0102
Addr     Location Object-Code	   RE Isn  Source Statement  [ ********                       ]				    Error
  		  1 2 3 4 5 6 7 8	   ....*....1....*....2....*....3....*....4....*....5....*....6....*....7....*....8
                  		      2164 %%LINE    000146								   
                  		      2165 ;Expr(146): btmemset(msg,0,sizeof(msg)) 					   
00000080 0000054C 8020A0E3	      2166 		   mov	     r2,#128						   
         00000550 0610A0E1	      2167 		   mov	     r1,r6						   
00000CDC 00000554 80079FE5	      2168 		   ldr	     r0,S1__msg						   
                  		      2169 %%CALL									   
00000000 00000558 000000EB	    E 2170 		   bl	     @btmemset						   
                  		      2171 %%LINE    000148								   
                  		      2172 ;Expr(148): MasterFind("location",loc)  					   
00000CD8 0000055C 74179FE5	      2173 		   ldr	     r1,S1__loc						   
00000D10 00000560 A8079FE5	      2174 		   ldr	     r0,S_S21						   
                  		      2175 %%CALL									   
00000000 00000564 000000EB	    E 2176 		   bl	     @MasterFind					   
                  		      2177 %%LINE    000149								   
                  		      2178 ;Expr(149): MasterFind("user",userId)   					   
00000CD4 00000568 64179FE5	      2179 		   ldr	     r1,S1__userId					   
00000D0C 0000056C 98079FE5	      2180 		   ldr	     r0,S_S22						   
                  		      2181 %%CALL									   
00000000 00000570 000000EB	    E 2182 		   bl	     @MasterFind					   
                  		      2183 L84:										   
                  		      2184 ; - do -									   
                  		      2185 %%LINE    000153								   
                  		      2186 ;Expr(153): btmemset(pallete,0,sizeof(pallete)) 				   
                  		      2187 %%SCOPE   init								   
0000000C 00000574 0C20A0E3	      2188 		   mov	     r2,#12						   
         00000578 0610A0E1	      2189 		   mov	     r1,r6						   
00015110 0000057C 110E8DE2150A80E2    2190 		   adrl	     r0,sp,AS@CheckInventoryForOS-28			   
                  		      2191 %%CALL									   
00000000 00000584 000000EB	    E 2192 		   bl	     @btmemset						   
                  		      2193 %%LINE    000154								   
                  		      2194 ;Expr(154): ret=ReadData(pallete,0,0,0,3)	    - if -			   
00000003 00000588 0300A0E3	      2195 		   mov	     r0,#3						   
         0000058C 01002DE9	      2196 		   stmfd     sp!,{r0}						   
00000000 00000590 0030A0E3	      2197 		   mov	     r3,#0						   
         00000594 0320A0E1	      2198 		   mov	     r2,r3						   
         00000598 0210A0E1	      2199 		   mov	     r1,r2						   
00015114 0000059C 450F8DE2150A80E2    2200 		   adrl	     r0,sp,AS@CheckInventoryForOS-28+4			   
                  		      2201 %%CALL									   
00000000 000005A4 000000EB	    E 2202 		   bl	     @ReadData						   
                  		      2203 %%LINE    000156								   
                  		      2204 ;Expr(156): ret==2&&btstrlen(boxNo)==0  					   
00000004 000005A8 04D08DE2	      2205 		   add	     sp,#4						   
00000002 000005AC 020050E3	      2206 		   cmp	     r0,#2						   
000005C8 000005B0 0400001A	      2207 		   bne.x     L89						   
                  		      2208 %%SCOPE   init								   
00015100 000005B4 100E8DE2150A80E2    2209 		   adrl	     r0,sp,AS@CheckInventoryForOS-44			   
                  		      2210 %%CALL									   
00000000 000005BC 000000EB	    E 2211 		   bl	     @btstrlen						   
00000000 000005C0 000050E3	      2212 		   cmp	     r0,#0						   
00000574 000005C4 EAFFFF0A	      2213 		   beq.x     L84						   
                  		      2214 L89:										   
                  		      2215 ; - endif -									   
                  		      2216 %%LINE    000159								   
                  		      2217 ;Expr(159): btmemset(send,0,sizeof(send))	   				   


   CROSS ASSEMBLER     V10-L41   (8901)  XASS-V                                           Sat 02-Mar-2019 11:01:07      PAGE-0055
											              ARM               0102
Addr     Location Object-Code	   RE Isn  Source Statement  [ ********                       ]				    Error
  		  1 2 3 4 5 6 7 8	   ....*....1....*....2....*....3....*....4....*....5....*....6....*....7....*....8
                  		      2218 %%SCOPE   init								   
         000005C8 0A20A0E1	      2219 		   mov	     r2,r10						   
         000005CC 0610A0E1	      2220 		   mov	     r1,r6						   
00000D08 000005D0 30079FE5	      2221 		   ldr	     r0,S2__send					   
                  		      2222 %%CALL									   
00000000 000005D4 000000EB	    E 2223 		   bl	     @btmemset						   
                  		      2224 %%LINE    000160								   
                  		      2225 ;Expr(160): MakeDataToSend("M306","",pallete,send)	   			   
00000D08 000005D8 28379FE5	      2226 		   ldr	     r3,S2__send					   
00015110 000005DC 112E8DE2152A82E2    2227 		   adrl	     r2,sp,AS@CheckInventoryForOS-28			   
00000D14 000005E4 28179FE5	      2228 		   ldr	     r1,S_S24						   
00000005 000005E8 050041E2	      2229 		   sub	     r0,r1,#5		   ; ldr r0,S_S23		   
                  		      2230 %%CALL									   
00000000 000005EC 000000EB	    E 2231 		   bl	     @MakeDataToSend					   
                  		      2232 %%LINE    000162								   
                  		      2233 ;Expr(162): ret=DataSend(send,btstrlen(send),rcv,sizeof(rcv),(0))	    - if - 
00000000 000005F0 0000A0E3	      2234 		   mov	     r0,#0						   
         000005F4 01002DE9	      2235 		   stmfd     sp!,{r0}						   
00000D08 000005F8 08079FE5	      2236 		   ldr	     r0,S2__send					   
                  		      2237 %%CALL									   
00000000 000005FC 000000EB	    E 2238 		   bl	     @btstrlen						   
00000004 00000600 04008DE5	      2239 		   str	     r0,[sp,#AS@CheckInventoryForOS-86316+4]		   
         00000604 0A30A0E1	      2240 		   mov	     r3,r10						   
00000DF0 00000608 E0279FE5	      2241 		   ldr	     r2,S1__rcv						   
         0000060C 0010A0E1	      2242 		   mov	     r1,r0						   
00000D08 00000610 F0069FE5	      2243 		   ldr	     r0,S2__send					   
                  		      2244 %%CALL									   
00000000 00000614 000000EB	    E 2245 		   bl	     @DataSend						   
         00000618 0070A0E1	      2246 		   mov	     r7,r0						   
                  		      2247 %%LINE    000164								   
                  		      2248 ;Expr(164): ret==1	   							   
                  		      2249 %%SCOPE   on,ret								   
00000004 0000061C 04D08DE2	      2250 		   add	     sp,#4						   
00000001 00000620 010057E3	      2251 		   cmp	     r7,#1						   
00000BC4 00000624 6601000A	      2252 		   beq.x     L190						   
                  		      2253 ; - endif - - if -								   
                  		      2254 %%LINE    000167								   
                  		      2255 ;Expr(167): !ret	   							   
                  		      2256 %%SCOPE   init,ret								   
00000000 00000628 000057E3	      2257 		   cmp	     r7,#0						   
00000BD4 0000062C 6801000A	      2258 		   beq.x     L189						   
                  		      2259 ; - endif -									   
                  		      2260 %%LINE    000170								   
                  		      2261 ;Expr(170): btmemcpy(boxes,rcv,sizeof(boxes))   				   
                  		      2262 %%SCOPE   init								   
         00000630 0A20A0E1	      2263 		   mov	     r2,r10						   
00000DF0 00000634 B4179FE5	      2264 		   ldr	     r1,S1__rcv						   
00010100 00000638 010C8DE2010880E2    2265 		   adrl	     r0,sp,AS@CheckInventoryForOS-20524			   
                  		      2266 %%CALL									   
00000000 00000640 000000EB	    E 2267 		   bl	     @btmemcpy						   
                  		      2268 %%LINE    000172								   
                  		      2269 ;Expr(172): totalBox=btstrlen((char*)boxes)/12   - if -			   
00010100 00000644 010C8DE2010880E2    2270 		   adrl	     r0,sp,AS@CheckInventoryForOS-20524			   
                  		      2271 %%CALL									   


   CROSS ASSEMBLER     V10-L41   (8901)  XASS-V                                           Sat 02-Mar-2019 11:01:07      PAGE-0056
											              ARM               0102
Addr     Location Object-Code	   RE Isn  Source Statement  [ ********                       ]				    Error
  		  1 2 3 4 5 6 7 8	   ....*....1....*....2....*....3....*....4....*....5....*....6....*....7....*....8
00000000 0000064C 000000EB	    E 2272 		   bl	     @btstrlen						   
0000000C 00000650 0C10A0E3	      2273 		   mov	     r1,#12						   
00000000 00000654 000000EB	    E 2274 		   bl	     cslldiv						   
00015128 00000658 4A4F8DE2154A84E2    2275 		   adrl	     r4,sp,AS@CheckInventoryForOS-4			   
00000000 00000660 000084E5	      2276 		   str	     r0,[r4,#0]						   
                  		      2277 %%LINE    000174								   
                  		      2278 ;Expr(174): totalBox>0  							   
00000000 00000664 000050E3	      2279 		   cmp	     r0,#0						   
00000BE4 00000668 5D0100DA	      2280 		   ble.x     L183						   
                  		      2281 ; - then -									   
                  		      2282 %%LINE    000176								   
                  		      2283 ;Expr(176): btmemset(boxesTemp,0,sizeof(boxesTemp))	   			   
                  		      2284 %%SCOPE   init								   
         0000066C 0A20A0E1	      2285 		   mov	     r2,r10						   
         00000670 0610A0E1	      2286 		   mov	     r1,r6						   
0000B100 00000674 B10C8DE2	      2287 		   adrl	     r0,sp,AS@CheckInventoryForOS-41004			   
                  		      2288 %%CALL									   
00000000 00000678 000000EB	    E 2289 		   bl	     @btmemset						   
                  		      2290 L101:									   
                  		      2291 ; - do -									   
                  		      2292 %%LINE    000179								   
                  		      2293 ;Expr(179): btsprintf(msg,"Scanned Box: %ld/%ld",boxScanned,totalBox)   	   
                  		      2294 %%SCOPE   init								   
00015128 0000067C 4A4F8DE2154A84E2    2295 		   adrl	     r4,sp,AS@CheckInventoryForOS-4			   
00000000 00000684 000094E5	      2296 		   ldr	     r0,[r4,#0]						   
         00000688 01002DE9	      2297 		   stmfd     sp!,{r0}						   
00015128 0000068C 4A4F8DE2154A84E2    2298 		   adrl	     r4,sp,AS@CheckInventoryForOS-8+4			   
00000000 00000694 001094E5	      2299 		   ldr	     r1,[r4,#0]						   
         00000698 02002DE9	      2300 		   stmfd     sp!,{r1}						   
00000D18 0000069C 74069FE5	      2301 		   ldr	     r0,S_S25						   
         000006A0 01002DE9	      2302 		   stmfd     sp!,{r0}						   
00000CDC 000006A4 30169FE5	      2303 		   ldr	     r1,S1__msg						   
         000006A8 02002DE9	      2304 		   stmfd     sp!,{r1}						   
                  		      2305 %%CALL									   
00000000 000006AC 000000EB	    E 2306 		   bl	     @btsprintf						   
                  		      2307 %%LINE    000180								   
                  		      2308 ;Expr(180): btmemset(boxNo,0,sizeof(boxNo))	   				   
0000000E 000006B0 0E20A0E3	      2309 		   mov	     r2,#14						   
         000006B4 0610A0E1	      2310 		   mov	     r1,r6						   
00015110 000006B8 110E8DE2150A80E2    2311 		   adrl	     r0,sp,AS@CheckInventoryForOS-44+16			   
                  		      2312 %%CALL									   
00000000 000006C0 000000EB	    E 2313 		   bl	     @btmemset						   
                  		      2314 %%LINE    000182								   
                  		      2315 ;Expr(182): ret=ReadData(boxNo,boxesTemp,msg,0,2)	    - if -		   
00000002 000006C4 0200A0E3	      2316 		   mov	     r0,#2						   
         000006C8 01002DE9	      2317 		   stmfd     sp!,{r0}						   
00000000 000006CC 0030A0E3	      2318 		   mov	     r3,#0						   
00000CDC 000006D0 04269FE5	      2319 		   ldr	     r2,S1__msg						   
0000B114 000006D4 14108DE2B11C81E2    2320 		   adrl	     r1,sp,AS@CheckInventoryForOS-41004+20		   
00015114 000006DC 450F8DE2150A80E2    2321 		   adrl	     r0,sp,AS@CheckInventoryForOS-44+20			   
                  		      2322 %%CALL									   
00000000 000006E4 000000EB	    E 2323 		   bl	     @ReadData						   
         000006E8 0070A0E1	      2324 		   mov	     r7,r0						   
                  		      2325 %%LINE    000184								   


   CROSS ASSEMBLER     V10-L41   (8901)  XASS-V                                           Sat 02-Mar-2019 11:01:07      PAGE-0057
											              ARM               0102
Addr     Location Object-Code	   RE Isn  Source Statement  [ ********                       ]				    Error
  		  1 2 3 4 5 6 7 8	   ....*....1....*....2....*....3....*....4....*....5....*....6....*....7....*....8
                  		      2326 ;Expr(184): ret==2&&btstrlen(boxesTemp)>0	   				   
                  		      2327 %%SCOPE   on,ret								   
00000014 000006EC 14D08DE2	      2328 		   add	     sp,#20						   
00000002 000006F0 020057E3	      2329 		   cmp	     r7,#2						   
00000708 000006F4 0300001A	      2330 		   bne.x     L106						   
                  		      2331 %%SCOPE   init,ret								   
0000B100 000006F8 B10C8DE2	      2332 		   adrl	     r0,sp,AS@CheckInventoryForOS-41004			   
                  		      2333 %%CALL									   
00000000 000006FC 000000EB	    E 2334 		   bl	     @btstrlen						   
00000000 00000700 000050E3	      2335 		   cmp	     r0,#0						   
00000820 00000704 450000CA	      2336 		   bgt.x     L125						   
                  		      2337 L106:									   
                  		      2338 ; - else - - if -								   
                  		      2339 %%LINE    000186								   
                  		      2340 ;Expr(186): ret==2&&btstrlen(boxNo)==0  					   
                  		      2341 %%SCOPE   init,ret								   
00000002 00000708 020057E3	      2342 		   cmp	     r7,#2						   
00000724 0000070C 0400001A	      2343 		   bne.x     L121						   
                  		      2344 %%SCOPE   init								   
00015100 00000710 100E8DE2150A80E2    2345 		   adrl	     r0,sp,AS@CheckInventoryForOS-44			   
                  		      2346 %%CALL									   
00000000 00000718 000000EB	    E 2347 		   bl	     @btstrlen						   
00000000 0000071C 000050E3	      2348 		   cmp	     r0,#0						   
0000067C 00000720 D5FFFF0A	      2349 		   beq.x     L101						   
                  		      2350 L121:									   
                  		      2351 %%LINE    000189								   
                  		      2352 ;Expr(189): ret=CheckDataExistInString(boxes,boxNo,3)   			   
                  		      2353 %%SCOPE   init								   
00000003 00000724 0320A0E3	      2354 		   mov	     r2,#3						   
00015100 00000728 101E8DE2151A81E2    2355 		   adrl	     r1,sp,AS@CheckInventoryForOS-44			   
00010100 00000730 010C8DE2010880E2    2356 		   adrl	     r0,sp,AS@CheckInventoryForOS-20524			   
                  		      2357 %%CALL									   
00000000 00000738 000000EB	    E 2358 		   bl	     @CheckDataExistInString				   
                  		      2359 %%LINE    000190								   
                  		      2360 ;Expr(190): ret 								   
0000000D 0000073C 0D0050E3	      2361 		   cmp	     r0,#13						   
0000067C 00000740 CDFFFF0A	      2362 		   beq.x     L101						   
00000010 00000744 100050E3	      2363 		   cmp	     r0,#16						   
0000067C 00000748 CBFFFF0A	      2364 		   beq.x     L101						   
00000019 0000074C 190050E3	      2365 		   cmp	     r0,#25						   
00000A44 00000750 BB00000A	      2366 		   beq.x     L191						   
00000754 00000754 		      2367 		   b.x	     L122						   
                  		      2368 L122:									   
                  		      2369 %%LINE    000202								   
                  		      2370 ;Expr(202): btmemset(tmp,0,sizeof(tmp)) 					   
                  		      2371 %%SCOPE   init								   
00001000 00000754 012AA0E3	      2372 		   mov	     r2,#4096						   
         00000758 0610A0E1	      2373 		   mov	     r1,r6						   
         0000075C 0C00A0E1	      2374 		   mov	     r0,r12						   
                  		      2375 %%CALL									   
00000000 00000760 000000EB	    E 2376 		   bl	     @btmemset						   
                  		      2377 %%LINE    000203								   
                  		      2378 ;Expr(203): btsprintf(tmp,"%s@%s",boxesTemp,boxNo)	   			   
00015100 00000764 100E8DE2150A80E2    2379 		   adrl	     r0,sp,AS@CheckInventoryForOS-44			   


   CROSS ASSEMBLER     V10-L41   (8901)  XASS-V                                           Sat 02-Mar-2019 11:01:07      PAGE-0058
											              ARM               0102
Addr     Location Object-Code	   RE Isn  Source Statement  [ ********                       ]				    Error
  		  1 2 3 4 5 6 7 8	   ....*....1....*....2....*....3....*....4....*....5....*....6....*....7....*....8
         0000076C 01002DE9	      2380 		   stmfd     sp!,{r0}						   
0000B104 00000770 04108DE2B11C81E2    2381 		   adrl	     r1,sp,AS@CheckInventoryForOS-41004+4		   
         00000778 02002DE9	      2382 		   stmfd     sp!,{r1}						   
00000D24 0000077C A0259FE5	      2383 		   ldr	     r2,S_S26						   
         00000780 04002DE9	      2384 		   stmfd     sp!,{r2}						   
         00000784 00102DE9	      2385 		   stmfd     sp!,{r12}						   
                  		      2386 %%CALL									   
00000000 00000788 000000EB	    E 2387 		   bl	     @btsprintf						   
                  		      2388 %%LINE    000205								   
                  		      2389 ;Expr(205): btmemset(boxesTemp,0,sizeof(boxesTemp))	   			   
         0000078C 0A20A0E1	      2390 		   mov	     r2,r10						   
         00000790 0610A0E1	      2391 		   mov	     r1,r6						   
0000B110 00000794 10008DE2B10C80E2    2392 		   adrl	     r0,sp,AS@CheckInventoryForOS-41004+16		   
                  		      2393 %%CALL									   
00000000 0000079C 000000EB	    E 2394 		   bl	     @btmemset						   
                  		      2395 %%LINE    000206								   
                  		      2396 ;Expr(206): btsprintf(boxesTemp,"%s",tmp)	   				   
         000007A0 00102DE9	      2397 		   stmfd     sp!,{r12}						   
00000D20 000007A4 74059FE5	      2398 		   ldr	     r0,S_S27						   
         000007A8 01002DE9	      2399 		   stmfd     sp!,{r0}						   
0000B118 000007AC 18108DE2B11C81E2    2400 		   adrl	     r1,sp,AS@CheckInventoryForOS-41004+24		   
         000007B4 02002DE9	      2401 		   stmfd     sp!,{r1}						   
                  		      2402 %%CALL									   
00000000 000007B8 000000EB	    E 2403 		   bl	     @btsprintf						   
                  		      2404 %%LINE    000208								   
                  		      2405 ;Expr(208): boxScanned++	   						   
00015140 000007BC 144E8DE2154A84E2    2406 		   adrl	     r4,sp,AS@CheckInventoryForOS-8+28			   
00000000 000007C4 000094E5	      2407 		   ldr	     r0,[r4,#0]						   
00000001 000007C8 010090E2	      2408 		   adds	     r0,r0,#1						   
00000000 000007CC 000084E5	      2409 		   str	     r0,[r4,#0]						   
                  		      2410 %%LINE    000210								   
                  		      2411 ;Expr(210): keyCode=StartDisplay("VNN NOK","Quet thung ke tiep","",boxNo,"","","
                  		           "," C:Thoat - ENT:Gui ")	    - if -					   
00000D1C 000007D0 44159FE5	      2412 		   ldr	     r1,S_S34						   
         000007D4 02002DE9	      2413 		   stmfd     sp!,{r1}						   
00000001 000007D8 010041E2	      2414 		   sub	     r0,r1,#1		   ; ldr r0,S_S33		   
         000007DC 01002DE9	      2415 		   stmfd     sp!,{r0}						   
00000001 000007E0 012040E2	      2416 		   sub	     r2,r0,#1		   ; ldr r2,S_S32		   
         000007E4 04002DE9	      2417 		   stmfd     sp!,{r2}						   
00000003 000007E8 031041E2	      2418 		   sub	     r1,r1,#3		   ; ldr r1,S_S31		   
         000007EC 02002DE9	      2419 		   stmfd     sp!,{r1}						   
0001512C 000007F0 4B3F8DE2153A83E2    2420 		   adrl	     r3,sp,AS@CheckInventoryForOS-44+44			   
00000002 000007F8 022042E2	      2421 		   sub	     r2,r2,#2		   ; ldr r2,S_S30		   
00000014 000007FC 141041E2	      2422 		   sub	     r1,r1,#20		   ; ldr r1,S_S29		   
0000001E 00000800 1E0040E2	      2423 		   sub	     r0,r0,#30		   ; ldr r0,S_S28		   
                  		      2424 %%CALL									   
00000000 00000804 000000EB	    E 2425 		   bl	     @StartDisplay					   
00000D38 00000808 28459FE5	      2426 		   ldr	     r4,S1__keyCode					   
00000000 0000080C 000084E5	      2427 		   str	     r0,[r4,#0]						   
                  		      2428 %%LINE    000212								   
                  		      2429 ;Expr(212): keyCode==(000d)	   						   
0000002C 00000810 2CD08DE2	      2430 		   add	     sp,#44						   
00000000 00000814 001094E5	      2431 		   ldr	     r1,[r4,#0]						   
0000000D 00000818 0D0051E3	      2432 		   cmp	     r1,#13						   


   CROSS ASSEMBLER     V10-L41   (8901)  XASS-V                                           Sat 02-Mar-2019 11:01:07      PAGE-0059
											              ARM               0102
Addr     Location Object-Code	   RE Isn  Source Statement  [ ********                       ]				    Error
  		  1 2 3 4 5 6 7 8	   ....*....1....*....2....*....3....*....4....*....5....*....6....*....7....*....8
0000067C 0000081C 96FFFF1A	      2433 		   bne.x     L101						   
                  		      2434 L125:									   
                  		      2435 %%LINE    000215								   
                  		      2436 ;Expr(215): btmemset(tmp,0,sizeof(tmp)) 					   
                  		      2437 %%SCOPE   init								   
00001000 00000820 012AA0E3	      2438 		   mov	     r2,#4096						   
         00000824 0610A0E1	      2439 		   mov	     r1,r6						   
         00000828 0C00A0E1	      2440 		   mov	     r0,r12						   
                  		      2441 %%CALL									   
00000000 0000082C 000000EB	    E 2442 		   bl	     @btmemset						   
                  		      2443 %%LINE    000216								   
                  		      2444 ;Expr(216): btsprintf(tmp,"%s@%s",pallete,boxesTemp)	   			   
0000B100 00000830 B10C8DE2	      2445 		   adrl	     r0,sp,AS@CheckInventoryForOS-41004			   
         00000834 01002DE9	      2446 		   stmfd     sp!,{r0}						   
00015114 00000838 451F8DE2151A81E2    2447 		   adrl	     r1,sp,AS@CheckInventoryForOS-28+4			   
         00000840 02002DE9	      2448 		   stmfd     sp!,{r1}						   
00000D2C 00000844 E0249FE5	      2449 		   ldr	     r2,S_S35						   
         00000848 04002DE9	      2450 		   stmfd     sp!,{r2}						   
         0000084C 00102DE9	      2451 		   stmfd     sp!,{r12}						   
                  		      2452 %%CALL									   
00000000 00000850 000000EB	    E 2453 		   bl	     @btsprintf						   
                  		      2454 %%LINE    000218								   
                  		      2455 ;Expr(218): btmemset(send,0,sizeof(send))	   				   
         00000854 0A20A0E1	      2456 		   mov	     r2,r10						   
         00000858 0610A0E1	      2457 		   mov	     r1,r6						   
00000D08 0000085C A4049FE5	      2458 		   ldr	     r0,S2__send					   
                  		      2459 %%CALL									   
00000000 00000860 000000EB	    E 2460 		   bl	     @btmemset						   
                  		      2461 %%LINE    000219								   
                  		      2462 ;Expr(219): MakeDataToSend("M306","S01",tmp,send)	   			   
00000D08 00000864 9C349FE5	      2463 		   ldr	     r3,S2__send					   
         00000868 0C20A0E1	      2464 		   mov	     r2,r12						   
00000D28 0000086C B4149FE5	      2465 		   ldr	     r1,S_S37						   
00000005 00000870 050041E2	      2466 		   sub	     r0,r1,#5		   ; ldr r0,S_S36		   
                  		      2467 %%CALL									   
00000000 00000874 000000EB	    E 2468 		   bl	     @MakeDataToSend					   
                  		      2469 %%LINE    000221								   
                  		      2470 ;Expr(221): ret=DataSend(send,btstrlen(send),rcv,sizeof(rcv),(0))	    - if - 
00000000 00000878 0000A0E3	      2471 		   mov	     r0,#0						   
         0000087C 01002DE9	      2472 		   stmfd     sp!,{r0}						   
00000D08 00000880 80049FE5	      2473 		   ldr	     r0,S2__send					   
                  		      2474 %%CALL									   
00000000 00000884 000000EB	    E 2475 		   bl	     @btstrlen						   
00000014 00000888 14008DE5	      2476 		   str	     r0,[sp,#AS@CheckInventoryForOS-86316+20]		   
         0000088C 0A30A0E1	      2477 		   mov	     r3,r10						   
00000DF0 00000890 58259FE5	      2478 		   ldr	     r2,S1__rcv						   
         00000894 0010A0E1	      2479 		   mov	     r1,r0						   
00000D08 00000898 68049FE5	      2480 		   ldr	     r0,S2__send					   
                  		      2481 %%CALL									   
00000000 0000089C 000000EB	    E 2482 		   bl	     @DataSend						   
         000008A0 0070A0E1	      2483 		   mov	     r7,r0						   
                  		      2484 %%LINE    000223								   
                  		      2485 ;Expr(223): ret==1	   							   
                  		      2486 %%SCOPE   on,ret								   


   CROSS ASSEMBLER     V10-L41   (8901)  XASS-V                                           Sat 02-Mar-2019 11:01:07      PAGE-0060
											              ARM               0102
Addr     Location Object-Code	   RE Isn  Source Statement  [ ********                       ]				    Error
  		  1 2 3 4 5 6 7 8	   ....*....1....*....2....*....3....*....4....*....5....*....6....*....7....*....8
00000014 000008A4 14D08DE2	      2487 		   add	     sp,#20						   
00000001 000008A8 010057E3	      2488 		   cmp	     r7,#1						   
00000BC4 000008AC C400000A	      2489 		   beq.x     L190						   
                  		      2490 ; - endif - - if -								   
                  		      2491 %%LINE    000227								   
                  		      2492 ;Expr(227): ret==2	   							   
                  		      2493 %%SCOPE   init,ret								   
00000002 000008B0 020057E3	      2494 		   cmp	     r7,#2						   
0000067C 000008B4 70FFFF1A	      2495 		   bne.x     L101						   
                  		      2496 ; - then -									   
                  		      2497 %%LINE    000229								   
                  		      2498 ;Expr(229): btmemset(send,0,sizeof(send))	   				   
                  		      2499 %%SCOPE   init								   
         000008B8 0A20A0E1	      2500 		   mov	     r2,r10						   
         000008BC 0610A0E1	      2501 		   mov	     r1,r6						   
00000D08 000008C0 40049FE5	      2502 		   ldr	     r0,S2__send					   
                  		      2503 %%CALL									   
00000000 000008C4 000000EB	    E 2504 		   bl	     @btmemset						   
                  		      2505 %%LINE    000230								   
                  		      2506 ;Expr(230): MakeDataToSend("M306","S02",pallete,send)   			   
00000D08 000008C8 38349FE5	      2507 		   ldr	     r3,S2__send					   
00015110 000008CC 112E8DE2152A82E2    2508 		   adrl	     r2,sp,AS@CheckInventoryForOS-28			   
00000D30 000008D4 54149FE5	      2509 		   ldr	     r1,S_S39						   
00000005 000008D8 050041E2	      2510 		   sub	     r0,r1,#5		   ; ldr r0,S_S38		   
                  		      2511 %%CALL									   
00000000 000008DC 000000EB	    E 2512 		   bl	     @MakeDataToSend					   
                  		      2513 %%LINE    000232								   
                  		      2514 ;Expr(232): ret=DataSend(send,btstrlen(send),rcv,sizeof(rcv),(0))	    - if - 
00000000 000008E0 0000A0E3	      2515 		   mov	     r0,#0						   
         000008E4 01002DE9	      2516 		   stmfd     sp!,{r0}						   
00000D08 000008E8 18049FE5	      2517 		   ldr	     r0,S2__send					   
                  		      2518 %%CALL									   
00000000 000008EC 000000EB	    E 2519 		   bl	     @btstrlen						   
         000008F0 0070A0E1	      2520 		   mov	     r7,r0						   
         000008F4 0A30A0E1	      2521 		   mov	     r3,r10						   
00000DF0 000008F8 F0249FE5	      2522 		   ldr	     r2,S1__rcv						   
         000008FC 0710A0E1	      2523 		   mov	     r1,r7						   
00000D08 00000900 00049FE5	      2524 		   ldr	     r0,S2__send					   
                  		      2525 %%CALL									   
00000000 00000904 000000EB	    E 2526 		   bl	     @DataSend						   
                  		      2527 %%LINE    000234								   
                  		      2528 ;Expr(234): ret==1	   							   
00000004 00000908 04D08DE2	      2529 		   add	     sp,#4						   
00000001 0000090C 010050E3	      2530 		   cmp	     r0,#1						   
00000BC4 00000910 AB00000A	      2531 		   beq.x     L190						   
                  		      2532 ; - endif -									   
                  		      2533 %%LINE    000237								   
                  		      2534 ;Expr(237): btmemcpy(mnPallete,rcv,sizeof(rcv)) 				   
                  		      2535 %%SCOPE   init								   
         00000914 0A20A0E1	      2536 		   mov	     r2,r10						   
00000DF0 00000918 D0149FE5	      2537 		   ldr	     r1,S1__rcv						   
00006100 0000091C 610C8DE2	      2538 		   adrl	     r0,sp,AS@CheckInventoryForOS-61484			   
                  		      2539 %%CALL									   
00000000 00000920 000000EB	    E 2540 		   bl	     @btmemcpy						   


   CROSS ASSEMBLER     V10-L41   (8901)  XASS-V                                           Sat 02-Mar-2019 11:01:07      PAGE-0061
											              ARM               0102
Addr     Location Object-Code	   RE Isn  Source Statement  [ ********                       ]				    Error
  		  1 2 3 4 5 6 7 8	   ....*....1....*....2....*....3....*....4....*....5....*....6....*....7....*....8
                  		      2541 %%LINE    000239								   
                  		      2542 ;Expr(239): totalPallete=btstrlen((char*)mnPallete)/15   - if -		   
00006100 00000924 610C8DE2	      2543 		   adrl	     r0,sp,AS@CheckInventoryForOS-61484			   
                  		      2544 %%CALL									   
00000000 00000928 000000EB	    E 2545 		   bl	     @btstrlen						   
0000000F 0000092C 0F10A0E3	      2546 		   mov	     r1,#15						   
00000000 00000930 000000EB	    E 2547 		   bl	     cslldiv						   
00015120 00000934 124E8DE2154A84E2    2548 		   adrl	     r4,sp,AS@CheckInventoryForOS-12			   
00000000 0000093C 000084E5	      2549 		   str	     r0,[r4,#0]						   
                  		      2550 %%LINE    000241								   
                  		      2551 ;Expr(241): totalPallete>0	   						   
00000000 00000940 000050E3	      2552 		   cmp	     r0,#0						   
00000BDC 00000944 A40000DA	      2553 		   ble.x     L176						   
                  		      2554 ; - then -									   
                  		      2555 %%LINE    000243								   
                  		      2556 ;Expr(243): btmemset(mnPalleteTemp,0,sizeof(mnPalleteTemp))	   		   
                  		      2557 %%SCOPE   init								   
         00000948 0A20A0E1	      2558 		   mov	     r2,r10						   
         0000094C 0610A0E1	      2559 		   mov	     r1,r6						   
00001100 00000950 110C8DE2	      2560 		   adrl	     r0,sp,AS@CheckInventoryForOS-81964			   
                  		      2561 %%CALL									   
00000000 00000954 000000EB	    E 2562 		   bl	     @btmemset						   
                  		      2563 %%LINE    000244								   
                  		      2564 ;Expr(244): btmemset(&set,0,sizeof(set))	   				   
000000E8 00000958 E820A0E3	      2565 		   mov	     r2,#232						   
         0000095C 0610A0E1	      2566 		   mov	     r1,r6						   
00001018 00000960 010A8DE2180080E2    2567 		   adrl	     r0,sp,AS@CheckInventoryForOS-82196			   
                  		      2568 %%CALL									   
00000000 00000968 000000EB	    E 2569 		   bl	     @btmemset						   
                  		      2570 L139:									   
                  		      2571 ; - do -									   
                  		      2572 %%LINE    000248								   
                  		      2573 ;Expr(248): btsprintf(msg,"To  [%ld/%ld]",palleteScanned,totalPallete)  	   
                  		      2574 %%SCOPE   init								   
00015120 0000096C 124E8DE2154A84E2    2575 		   adrl	     r4,sp,AS@CheckInventoryForOS-12			   
00000000 00000974 000094E5	      2576 		   ldr	     r0,[r4,#0]						   
         00000978 01002DE9	      2577 		   stmfd     sp!,{r0}						   
00015120 0000097C 124E8DE2154A84E2    2578 		   adrl	     r4,sp,AS@CheckInventoryForOS-16+4			   
00000000 00000984 001094E5	      2579 		   ldr	     r1,[r4,#0]						   
         00000988 02002DE9	      2580 		   stmfd     sp!,{r1}						   
00000D34 0000098C A0039FE5	      2581 		   ldr	     r0,S_S40						   
         00000990 01002DE9	      2582 		   stmfd     sp!,{r0}						   
00000CDC 00000994 40139FE5	      2583 		   ldr	     r1,S1__msg						   
         00000998 02002DE9	      2584 		   stmfd     sp!,{r1}						   
                  		      2585 %%CALL									   
00000000 0000099C 000000EB	    E 2586 		   bl	     @btsprintf						   
                  		      2587 %%LINE    000250								   
                  		      2588 ;Expr(250): btmemset(shippingTo,0,sizeof(shippingTo))   			   
00000012 000009A0 1220A0E3	      2589 		   mov	     r2,#18						   
         000009A4 0610A0E1	      2590 		   mov	     r1,r6						   
00001014 000009A8 010A8DE2140080E2    2591 		   adrl	     r0,sp,AS@CheckInventoryForOS-82216+16		   
                  		      2592 %%CALL									   
00000000 000009B0 000000EB	    E 2593 		   bl	     @btmemset						   
                  		      2594 %%LINE    000251								   


   CROSS ASSEMBLER     V10-L41   (8901)  XASS-V                                           Sat 02-Mar-2019 11:01:07      PAGE-0062
											              ARM               0102
Addr     Location Object-Code	   RE Isn  Source Statement  [ ********                       ]				    Error
  		  1 2 3 4 5 6 7 8	   ....*....1....*....2....*....3....*....4....*....5....*....6....*....7....*....8
                  		      2595 ;Expr(251): ret=ReadData(shippingTo,mnPalleteTemp,msg,0,4)	    - if -	   
00000004 000009B4 0400A0E3	      2596 		   mov	     r0,#4						   
         000009B8 01002DE9	      2597 		   stmfd     sp!,{r0}						   
00000000 000009BC 0030A0E3	      2598 		   mov	     r3,#0						   
00000CDC 000009C0 14239FE5	      2599 		   ldr	     r2,S1__msg						   
00001114 000009C4 14108DE2111C81E2    2600 		   adrl	     r1,sp,AS@CheckInventoryForOS-81964+20		   
00001018 000009CC 010A8DE2180080E2    2601 		   adrl	     r0,sp,AS@CheckInventoryForOS-82216+20		   
                  		      2602 %%CALL									   
00000000 000009D4 000000EB	    E 2603 		   bl	     @ReadData						   
         000009D8 0070A0E1	      2604 		   mov	     r7,r0						   
                  		      2605 %%LINE    000253								   
                  		      2606 ;Expr(253): ret==2&&btstrlen(mnPalleteTemp)>0   				   
                  		      2607 %%SCOPE   on,ret								   
00000014 000009DC 14D08DE2	      2608 		   add	     sp,#20						   
00000002 000009E0 020057E3	      2609 		   cmp	     r7,#2						   
000009F8 000009E4 0300001A	      2610 		   bne.x     L144						   
                  		      2611 %%SCOPE   init,ret								   
00001100 000009E8 110C8DE2	      2612 		   adrl	     r0,sp,AS@CheckInventoryForOS-81964			   
                  		      2613 %%CALL									   
00000000 000009EC 000000EB	    E 2614 		   bl	     @btstrlen						   
00000000 000009F0 000050E3	      2615 		   cmp	     r0,#0						   
00000B34 000009F4 4E0000CA	      2616 		   bgt.x     L163						   
                  		      2617 L144:									   
                  		      2618 ; - else - - if -								   
                  		      2619 %%LINE    000255								   
                  		      2620 ;Expr(255): ret==2&&btstrlen(shippingTo)==0	   				   
                  		      2621 %%SCOPE   init,ret								   
00000002 000009F8 020057E3	      2622 		   cmp	     r7,#2						   
00000A14 000009FC 0400001A	      2623 		   bne.x     L159						   
                  		      2624 %%SCOPE   init								   
00001004 00000A00 010A8DE2040080E2    2625 		   adrl	     r0,sp,AS@CheckInventoryForOS-82216			   
                  		      2626 %%CALL									   
00000000 00000A08 000000EB	    E 2627 		   bl	     @btstrlen						   
00000000 00000A0C 000050E3	      2628 		   cmp	     r0,#0						   
0000096C 00000A10 D5FFFF0A	      2629 		   beq.x     L139						   
                  		      2630 L159:									   
                  		      2631 %%LINE    000258								   
                  		      2632 ;Expr(258): ret=CheckDataExistInString(mnPallete,shippingTo,4)  		   
                  		      2633 %%SCOPE   init								   
00000004 00000A14 0420A0E3	      2634 		   mov	     r2,#4						   
00001004 00000A18 011A8DE2041081E2    2635 		   adrl	     r1,sp,AS@CheckInventoryForOS-82216			   
00006100 00000A20 610C8DE2	      2636 		   adrl	     r0,sp,AS@CheckInventoryForOS-61484			   
                  		      2637 %%CALL									   
00000000 00000A24 000000EB	    E 2638 		   bl	     @CheckDataExistInString				   
                  		      2639 %%LINE    000259								   
                  		      2640 ;Expr(259): ret 								   
0000000D 00000A28 0D0050E3	      2641 		   cmp	     r0,#13						   
0000096C 00000A2C CEFFFF0A	      2642 		   beq.x     L139						   
00000010 00000A30 100050E3	      2643 		   cmp	     r0,#16						   
0000096C 00000A34 CCFFFF0A	      2644 		   beq.x     L139						   
00000019 00000A38 190050E3	      2645 		   cmp	     r0,#25						   
00000A44 00000A3C 0000000A	      2646 		   beq.x     L191						   
00000A4C 00000A40 010000EA	      2647 		   b.x	     L160						   
                  		      2648 L191:									   


   CROSS ASSEMBLER     V10-L41   (8901)  XASS-V                                           Sat 02-Mar-2019 11:01:07      PAGE-0063
											              ARM               0102
Addr     Location Object-Code	   RE Isn  Source Statement  [ ********                       ]				    Error
  		  1 2 3 4 5 6 7 8	   ....*....1....*....2....*....3....*....4....*....5....*....6....*....7....*....8
                  		      2649 ;winch object								   
                  		      2650 ;Expr(262): - 2 								   
                  		      2651 %%SCOPE   init								   
00000001 00000A44 0100E0E3	      2652 		   mvn	     r0,#1						   
00000BEC 00000A48 670000EA	      2653 		   b.x	     L188						   
                  		      2654 L160:									   
                  		      2655 %%LINE    000270								   
                  		      2656 ;Expr(270): btmemset(tmp,0,sizeof(tmp)) 					   
                  		      2657 %%SCOPE   init								   
00001000 00000A4C 012AA0E3	      2658 		   mov	     r2,#4096						   
         00000A50 0610A0E1	      2659 		   mov	     r1,r6						   
         00000A54 0C00A0E1	      2660 		   mov	     r0,r12						   
                  		      2661 %%CALL									   
00000000 00000A58 000000EB	    E 2662 		   bl	     @btmemset						   
                  		      2663 %%LINE    000271								   
                  		      2664 ;Expr(271): btsprintf(tmp,"%s@%s",mnPalleteTemp,shippingTo)	   		   
00001004 00000A5C 010A8DE2040080E2    2665 		   adrl	     r0,sp,AS@CheckInventoryForOS-82216			   
         00000A64 01002DE9	      2666 		   stmfd     sp!,{r0}						   
00001104 00000A68 04108DE2111C81E2    2667 		   adrl	     r1,sp,AS@CheckInventoryForOS-81964+4		   
         00000A70 02002DE9	      2668 		   stmfd     sp!,{r1}						   
00000D48 00000A74 CC229FE5	      2669 		   ldr	     r2,S_S41						   
         00000A78 04002DE9	      2670 		   stmfd     sp!,{r2}						   
         00000A7C 00102DE9	      2671 		   stmfd     sp!,{r12}						   
                  		      2672 %%CALL									   
00000000 00000A80 000000EB	    E 2673 		   bl	     @btsprintf						   
                  		      2674 %%LINE    000273								   
                  		      2675 ;Expr(273): btmemset(mnPalleteTemp,0,sizeof(mnPalleteTemp))	   		   
         00000A84 0A20A0E1	      2676 		   mov	     r2,r10						   
         00000A88 0610A0E1	      2677 		   mov	     r1,r6						   
00001110 00000A8C 10008DE2110C80E2    2678 		   adrl	     r0,sp,AS@CheckInventoryForOS-81964+16		   
                  		      2679 %%CALL									   
00000000 00000A94 000000EB	    E 2680 		   bl	     @btmemset						   
                  		      2681 %%LINE    000274								   
                  		      2682 ;Expr(274): btsprintf(mnPalleteTemp,"%s",tmp)   				   
         00000A98 00102DE9	      2683 		   stmfd     sp!,{r12}						   
00000D44 00000A9C A0029FE5	      2684 		   ldr	     r0,S_S42						   
         00000AA0 01002DE9	      2685 		   stmfd     sp!,{r0}						   
00001118 00000AA4 18108DE2111C81E2    2686 		   adrl	     r1,sp,AS@CheckInventoryForOS-81964+24		   
         00000AAC 02002DE9	      2687 		   stmfd     sp!,{r1}						   
                  		      2688 %%CALL									   
00000000 00000AB0 000000EB	    E 2689 		   bl	     @btsprintf						   
                  		      2690 %%LINE    000276								   
                  		      2691 ;Expr(276): palleteScanned++	   						   
00015138 00000AB4 4E4F8DE2154A84E2    2692 		   adrl	     r4,sp,AS@CheckInventoryForOS-16+28			   
00000000 00000ABC 000094E5	      2693 		   ldr	     r0,[r4,#0]						   
00000001 00000AC0 010090E2	      2694 		   adds	     r0,r0,#1						   
00000000 00000AC4 000084E5	      2695 		   str	     r0,[r4,#0]						   
                  		      2696 %%LINE    000278								   
                  		      2697 ;Expr(278): btsprintf(msg,"  [%ld/%ld]",palleteScanned,totalPallete)	   	   
00000004 00000AC8 041094E5	      2698 		   ldr	     r1,[r4,#4]						   
         00000ACC 02002DE9	      2699 		   stmfd     sp!,{r1}						   
         00000AD0 01002DE9	      2700 		   stmfd     sp!,{r0}						   
00000D40 00000AD4 64229FE5	      2701 		   ldr	     r2,S_S43						   
         00000AD8 04002DE9	      2702 		   stmfd     sp!,{r2}						   


   CROSS ASSEMBLER     V10-L41   (8901)  XASS-V                                           Sat 02-Mar-2019 11:01:07      PAGE-0064
											              ARM               0102
Addr     Location Object-Code	   RE Isn  Source Statement  [ ********                       ]				    Error
  		  1 2 3 4 5 6 7 8	   ....*....1....*....2....*....3....*....4....*....5....*....6....*....7....*....8
00000CDC 00000ADC F8119FE5	      2703 		   ldr	     r1,S1__msg						   
         00000AE0 02002DE9	      2704 		   stmfd     sp!,{r1}						   
                  		      2705 %%CALL									   
00000000 00000AE4 000000EB	    E 2706 		   bl	     @btsprintf						   
                  		      2707 %%LINE    000279								   
                  		      2708 ;Expr(279): keyCode=StartDisplay("VNN NOK","Quet Shipping To","ke tiep:",shippin
                  		           gTo,"","",""," C:Thoat - ENT:Gui ")	    - if -				   
00000D3C 00000AE8 4C029FE5	      2709 		   ldr	     r0,S_S50						   
         00000AEC 01002DE9	      2710 		   stmfd     sp!,{r0}						   
00000001 00000AF0 011040E2	      2711 		   sub	     r1,r0,#1		   ; ldr r1,S_S49		   
         00000AF4 02002DE9	      2712 		   stmfd     sp!,{r1}						   
00000002 00000AF8 022040E2	      2713 		   sub	     r2,r0,#2		   ; ldr r2,S_S48		   
         00000AFC 04002DE9	      2714 		   stmfd     sp!,{r2}						   
00000003 00000B00 030040E2	      2715 		   sub	     r0,r0,#3		   ; ldr r0,S_S47		   
         00000B04 01002DE9	      2716 		   stmfd     sp!,{r0}						   
00001040 00000B08 413D8DE2	      2717 		   adrl	     r3,sp,AS@CheckInventoryForOS-82216+60		   
0000000A 00000B0C 0A2042E2	      2718 		   sub	     r2,r2,#10		   ; ldr r2,S_S46		   
0000001C 00000B10 1C1041E2	      2719 		   sub	     r1,r1,#28		   ; ldr r1,S_S45		   
00000022 00000B14 220040E2	      2720 		   sub	     r0,r0,#34		   ; ldr r0,S_S44		   
                  		      2721 %%CALL									   
00000000 00000B18 000000EB	    E 2722 		   bl	     @StartDisplay					   
00000D38 00000B1C 14429FE5	      2723 		   ldr	     r4,S1__keyCode					   
00000000 00000B20 000084E5	      2724 		   str	     r0,[r4,#0]						   
                  		      2725 %%LINE    000281								   
                  		      2726 ;Expr(281): keyCode==(000d)	   						   
0000003C 00000B24 3CD08DE2	      2727 		   add	     sp,#60						   
00000000 00000B28 001094E5	      2728 		   ldr	     r1,[r4,#0]						   
0000000D 00000B2C 0D0051E3	      2729 		   cmp	     r1,#13						   
0000096C 00000B30 8DFFFF1A	      2730 		   bne.x     L139						   
                  		      2731 L163:									   
                  		      2732 %%LINE    000284								   
                  		      2733 ;Expr(284): btmemset(tmp,0,sizeof(tmp)) 					   
                  		      2734 %%SCOPE   init								   
00001000 00000B34 012AA0E3	      2735 		   mov	     r2,#4096						   
         00000B38 0610A0E1	      2736 		   mov	     r1,r6						   
         00000B3C 0C00A0E1	      2737 		   mov	     r0,r12						   
                  		      2738 %%CALL									   
00000000 00000B40 000000EB	    E 2739 		   bl	     @btmemset						   
                  		      2740 %%LINE    000285								   
                  		      2741 ;Expr(285): btsprintf(tmp,"%s@%s",pallete,mnPalleteTemp)	   		   
00001100 00000B44 110C8DE2	      2742 		   adrl	     r0,sp,AS@CheckInventoryForOS-81964			   
         00000B48 01002DE9	      2743 		   stmfd     sp!,{r0}						   
00015114 00000B4C 451F8DE2151A81E2    2744 		   adrl	     r1,sp,AS@CheckInventoryForOS-28+4			   
         00000B54 02002DE9	      2745 		   stmfd     sp!,{r1}						   
00000D50 00000B58 F0219FE5	      2746 		   ldr	     r2,S_S51						   
         00000B5C 04002DE9	      2747 		   stmfd     sp!,{r2}						   
         00000B60 00102DE9	      2748 		   stmfd     sp!,{r12}						   
                  		      2749 %%CALL									   
00000000 00000B64 000000EB	    E 2750 		   bl	     @btsprintf						   
                  		      2751 %%LINE    000287								   
                  		      2752 ;Expr(287): btmemset(send,0,sizeof(send))	   				   
         00000B68 0A20A0E1	      2753 		   mov	     r2,r10						   
         00000B6C 0610A0E1	      2754 		   mov	     r1,r6						   
00000D08 00000B70 90019FE5	      2755 		   ldr	     r0,S2__send					   


   CROSS ASSEMBLER     V10-L41   (8901)  XASS-V                                           Sat 02-Mar-2019 11:01:07      PAGE-0065
											              ARM               0102
Addr     Location Object-Code	   RE Isn  Source Statement  [ ********                       ]				    Error
  		  1 2 3 4 5 6 7 8	   ....*....1....*....2....*....3....*....4....*....5....*....6....*....7....*....8
                  		      2756 %%CALL									   
00000000 00000B74 000000EB	    E 2757 		   bl	     @btmemset						   
                  		      2758 %%LINE    000288								   
                  		      2759 ;Expr(288): MakeDataToSend("M306","S03",tmp,send)	   			   
00000D08 00000B78 88319FE5	      2760 		   ldr	     r3,S2__send					   
         00000B7C 0C20A0E1	      2761 		   mov	     r2,r12						   
00000D4C 00000B80 C4119FE5	      2762 		   ldr	     r1,S_S53						   
00000005 00000B84 050041E2	      2763 		   sub	     r0,r1,#5		   ; ldr r0,S_S52		   
                  		      2764 %%CALL									   
00000000 00000B88 000000EB	    E 2765 		   bl	     @MakeDataToSend					   
                  		      2766 %%LINE    000290								   
                  		      2767 ;Expr(290): ret=DataSend(send,btstrlen(send),rcv,sizeof(rcv),(0))	    - if - 
00000000 00000B8C 0000A0E3	      2768 		   mov	     r0,#0						   
         00000B90 01002DE9	      2769 		   stmfd     sp!,{r0}						   
00000D08 00000B94 6C019FE5	      2770 		   ldr	     r0,S2__send					   
                  		      2771 %%CALL									   
00000000 00000B98 000000EB	    E 2772 		   bl	     @btstrlen						   
00000014 00000B9C 14008DE5	      2773 		   str	     r0,[sp,#AS@CheckInventoryForOS-86316+20]		   
         00000BA0 0A30A0E1	      2774 		   mov	     r3,r10						   
00000DF0 00000BA4 44229FE5	      2775 		   ldr	     r2,S1__rcv						   
         00000BA8 0010A0E1	      2776 		   mov	     r1,r0						   
00000D08 00000BAC 54019FE5	      2777 		   ldr	     r0,S2__send					   
                  		      2778 %%CALL									   
00000000 00000BB0 000000EB	    E 2779 		   bl	     @DataSend						   
         00000BB4 0070A0E1	      2780 		   mov	     r7,r0						   
                  		      2781 %%LINE    000292								   
                  		      2782 ;Expr(292): ret 								   
                  		      2783 %%SCOPE   on,ret								   
00000014 00000BB8 14D08DE2	      2784 		   add	     sp,#20						   
00000000 00000BBC 000057E3	      2785 		   cmp	     r7,#0						   
00000BCC 00000BC0 0100000A	      2786 		   beq.x     L167						   
                  		      2787 L190:									   
                  		      2788 ;winch object								   
                  		      2789 ;Expr(293): - 1 								   
                  		      2790 %%SCOPE   init								   
00000000 00000BC4 0000E0E3	      2791 		   mvn	     r0,#0						   
00000BEC 00000BC8 070000EA	      2792 		   b.x	     L188						   
                  		      2793 L167:									   
                  		      2794 ; - endif - - if -								   
                  		      2795 %%LINE    000295								   
                  		      2796 ;Expr(295): !ret	   							   
                  		      2797 %%SCOPE   init,ret								   
00000000 00000BCC 000057E3	      2798 		   cmp	     r7,#0						   
0000096C 00000BD0 65FFFF1A	      2799 		   bne.x     L139						   
                  		      2800 L189:									   
                  		      2801 ;winch object								   
                  		      2802 ;Expr(296): 0   								   
                  		      2803 %%SCOPE   init								   
00000000 00000BD4 0000A0E3	      2804 		   mov	     r0,#0						   
00000BEC 00000BD8 030000EA	      2805 		   b.x	     L188						   
                  		      2806 L176:									   
                  		      2807 ; - else -									   
                  		      2808 %%LINE    000303								   
                  		      2809 ;Expr(303): Buzzer()	   							   


   CROSS ASSEMBLER     V10-L41   (8901)  XASS-V                                           Sat 02-Mar-2019 11:01:07      PAGE-0066
											              ARM               0102
Addr     Location Object-Code	   RE Isn  Source Statement  [ ********                       ]				    Error
  		  1 2 3 4 5 6 7 8	   ....*....1....*....2....*....3....*....4....*....5....*....6....*....7....*....8
                  		      2810 %%SCOPE   init								   
                  		      2811 %%CALL									   
00000000 00000BDC 000000EB	    E 2812 		   bl	     @Buzzer						   
0000067C 00000BE0 A5FEFFEA	      2813 		   b.x	     L101						   
                  		      2814 L183:									   
                  		      2815 ; - else -									   
                  		      2816 %%LINE    000311								   
                  		      2817 ;Expr(311): Buzzer()	   							   
                  		      2818 %%SCOPE   init								   
                  		      2819 %%CALL									   
00000000 00000BE4 000000EB	    E 2820 		   bl	     @Buzzer						   
00000574 00000BE8 61FEFFEA	      2821 		   b.x	     L84						   
                  		      2822 L188:									   
                  		      2823 ; RET									   
                  		      2824 %%LINE    000315								   
                  		      2825 %%SCOPE init									   
                  		      2826 %%EF	     									   
0000012C 00000BEC 4BDF8DE2	      2827 		   add	     sp,#300						   
00015000 00000BF0 15DA8DE2	      2828 		   add	     sp,#86016						   
                  		      2829 %%RESTORE	   R6								   
                  		      2830 %%RESTORE	   R7								   
                  		      2831 %%RESTORE	   R10								   
                  		      2832 %%RESTORE	   R12								   
                  		      2833 %%RETURN									   
         00000BF4 C09CBDE8	      2834 		   ldmfd     sp!,{r6,r7,r10,r11,r12,pc}				   
         00000BF8 		      2835 		   bnd	     4							   
                  		      2836 %%FEND    									   
                  		      2837 ;	   totalBox -> offset -4    int						   
                  		      2838 ;	   boxScanned -> offset -8  int						   
                  		      2839 ;	   totalPallete -> offset -12	    int					   
                  		      2840 ;	   palleteScanned -> offset -16	    int					   
                  		      2841 ;	   ret -> regid  8  int							   
                  		      2842 ;	   pallete -> offset -28    array					   
                  		      2843 ;	   boxNo -> offset -44	    array					   
                  		      2844 ;	   boxes -> offset -20524   array					   
                  		      2845 ;	   boxesTemp -> offset -41004	    array				   
                  		      2846 ;	   mnPallete -> offset -61484	    array				   
                  		      2847 ;	   mnPalleteTemp -> offset -81964   array				   
                  		      2848 ;	   set -> offset -82196	    struct					   
                  		      2849 ;	   shippingTo -> offset -82216	    array				   
                  		      2850 ;	   tmp -> offset -86312	    array					   
                  		      2851 %%LINE    000318								   
                  		      2852 %%FUNC    CheckInventoryForOR,3,cls=2,type=5,ftype=1				   
                  		      2853 %%RVALUE  kind=direct,register=R0,atype=2					   
                  		      2854 @CheckInventoryForOR: ;entry							   
         00000BF8 C05C2DE9	      2855 		   stmfd     sp!,{r6,r7,r10,r11,r12,lr}				   
         00000BFC 0DB0A0E1	      2856 		   mov	     r11,sp						   
                  		      2857 %%SAVE  R6,kind=direct,base=R11,offset=0,atype=6				   
                  		      2858 %%SAVE  R7,kind=direct,base=R11,offset=4,atype=6				   
                  		      2859 %%SAVE  R10,kind=direct,base=R11,offset=8,atype=6				   
                  		      2860 %%SAVE  R12,kind=direct,base=R11,offset=16,atype=6				   
00000030 00000C00 30D04DE2	      2861 		   sub	     sp,#48						   
00010000 00000C04 01D84DE2	      2862 		   sub	     sp,#65536						   
00010030          		      2863 AS@CheckInventoryForOR  set	   65584	   ; stack frame total size	   


   CROSS ASSEMBLER     V10-L41   (8901)  XASS-V                                           Sat 02-Mar-2019 11:01:07      PAGE-0067
											              ARM               0102
Addr     Location Object-Code	   RE Isn  Source Statement  [ ********                       ]				    Error
  		  1 2 3 4 5 6 7 8	   ....*....1....*....2....*....3....*....4....*....5....*....6....*....7....*....8
                  		      2864 %%BF	     									   
                  		      2865 %%SYM     set,0,sym=89,size=232,cls=6,val=0,delete 				   
                  		      2866 %%SYM     ret,0,type=5,cls=1,reg=R7,val=0,size=4				   
                  		      2867 %%SYM     cntError,0,type=5,size=4,cls=6,val=0,delete 			   
                  		      2868 %%SYM     totalBox,0,type=5,size=4,cls=6,val=0,delete 			   
                  		      2869 %%SYM     boxScanned,0,type=5,size=4,cls=6,val=0,delete 			   
                  		      2870 %%SYM     boxes,0,type=2,size=20480,cls=6,val=0,delete 			   
                  		      2871 %%SYM     boxesTemp,0,type=2,cls=6,val=-20488,size=20480			   
                  		      2872 %%DTY     									   
                  		      2873 %%DAR     1,20480								   
                  		      2874 %%ENDD    									   
                  		      2875 %%SYM     tmp,0,type=2,cls=6,val=-24600,size=4096				   
                  		      2876 %%DTY     									   
                  		      2877 %%DAR     1,4096								   
                  		      2878 %%ENDD    									   
                  		      2879 %%SYM     boxNo,0,type=2,cls=6,val=-20504,size=14				   
                  		      2880 %%DTY     									   
                  		      2881 %%DAR     1,14								   
                  		      2882 %%ENDD    									   
                  		      2883 %%SYM     pallete,0,type=2,size=12,cls=6,val=0,delete 			   
                  		      2884 %%SYM     r,0,type=2,size=4,cls=6,val=0,delete 				   
                  		      2885 %%SYM     mnPallete,0,type=2,cls=6,val=-45080,size=20480			   
                  		      2886 %%DTY     									   
                  		      2887 %%DAR     1,20480								   
                  		      2888 %%ENDD    									   
                  		      2889 %%SYM     mnPalleteTemp,0,type=2,cls=6,val=-65560,size=20480			   
                  		      2890 %%DTY     									   
                  		      2891 %%DAR     1,20480								   
                  		      2892 %%ENDD    									   
                  		      2893 %%SYM     totalPallete,0,type=5,cls=6,val=-4,size=4				   
                  		      2894 %%SYM     palleteScanned,0,type=5,cls=6,val=-8,size=4			   
                  		      2895 %%SYM     shippingTo,0,type=2,cls=6,val=-65580,size=18			   
                  		      2896 %%DTY     									   
                  		      2897 %%DAR     1,18								   
                  		      2898 %%ENDD    									   
                  		      2899 %%SCOPE   init								   
00000000 00000C08 00C0A0E3	      2900 		   mov	     r12,#0						   
00005000 00000C0C 05AAA0E3	      2901 		   mov	     r10,#20480						   
00000000 00000C10 0060A0E3	      2902 		   mov	     r6,#0						   
                  		      2903 %%LINE    000320								   
                  		      2904 ;Expr(324): 20480								   
                  		      2905 %%SCOPE   init								   
00010028 00000C14 01488DE2284084E2    2906 		   adrl	     r4,sp,AS@CheckInventoryForOR-8			   
00000000 00000C1C 00C084E5	      2907 		   str	     r12,[r4,#0]					   
                  		      2908 %%LINE    000328								   
                  		      2909 ;Expr(328): btmemset(loc,0,sizeof(loc)) 					   
00000004 00000C20 0420A0E3	      2910 		   mov	     r2,#4						   
         00000C24 0610A0E1	      2911 		   mov	     r1,r6						   
00000CD8 00000C28 A8009FE5	      2912 		   ldr	     r0,S1__loc						   
                  		      2913 %%CALL									   
00000000 00000C2C 000000EB	    E 2914 		   bl	     @btmemset						   
                  		      2915 %%LINE    000329								   
                  		      2916 ;Expr(329): btmemset(userId,0,sizeof(userId))   				   
0000000A 00000C30 0A20A0E3	      2917 		   mov	     r2,#10						   


   CROSS ASSEMBLER     V10-L41   (8901)  XASS-V                                           Sat 02-Mar-2019 11:01:07      PAGE-0068
											              ARM               0102
Addr     Location Object-Code	   RE Isn  Source Statement  [ ********                       ]				    Error
  		  1 2 3 4 5 6 7 8	   ....*....1....*....2....*....3....*....4....*....5....*....6....*....7....*....8
         00000C34 0610A0E1	      2918 		   mov	     r1,r6						   
00000CD4 00000C38 94009FE5	      2919 		   ldr	     r0,S1__userId					   
                  		      2920 %%CALL									   
00000000 00000C3C 000000EB	    E 2921 		   bl	     @btmemset						   
                  		      2922 %%LINE    000330								   
                  		      2923 ;Expr(330): btmemset(msg,0,sizeof(msg)) 					   
00000080 00000C40 8020A0E3	      2924 		   mov	     r2,#128						   
         00000C44 0610A0E1	      2925 		   mov	     r1,r6						   
00000CDC 00000C48 8C009FE5	      2926 		   ldr	     r0,S1__msg						   
                  		      2927 %%CALL									   
00000000 00000C4C 000000EB	    E 2928 		   bl	     @btmemset						   
                  		      2929 %%LINE    000331								   
                  		      2930 ;Expr(331): btmemset(boxesTemp,0,sizeof(boxesTemp))	   			   
         00000C50 0A20A0E1	      2931 		   mov	     r2,r10						   
         00000C54 0610A0E1	      2932 		   mov	     r1,r6						   
0000B028 00000C58 0B0A8DE2280080E2    2933 		   adrl	     r0,sp,AS@CheckInventoryForOR-20488			   
                  		      2934 %%CALL									   
00000000 00000C60 000000EB	    E 2935 		   bl	     @btmemset						   
                  		      2936 %%LINE    000333								   
                  		      2937 ;Expr(333): MasterFind("location",loc)  					   
00000CD8 00000C64 6C109FE5	      2938 		   ldr	     r1,S1__loc						   
00000D58 00000C68 E8009FE5	      2939 		   ldr	     r0,S_S54						   
                  		      2940 %%CALL									   
00000000 00000C6C 000000EB	    E 2941 		   bl	     @MasterFind					   
                  		      2942 %%LINE    000334								   
                  		      2943 ;Expr(334): MasterFind("user",userId)   					   
00000CD4 00000C70 5C109FE5	      2944 		   ldr	     r1,S1__userId					   
00000D54 00000C74 D8009FE5	      2945 		   ldr	     r0,S_S55						   
                  		      2946 %%CALL									   
00000000 00000C78 000000EB	    E 2947 		   bl	     @MasterFind					   
                  		      2948 L196:									   
                  		      2949 ; - do -									   
                  		      2950 %%LINE    000338								   
                  		      2951 ;Expr(338): btmemset(boxNo,0,sizeof(boxNo))	   				   
                  		      2952 %%SCOPE   init								   
0000000E 00000C7C 0E20A0E3	      2953 		   mov	     r2,#14						   
         00000C80 0610A0E1	      2954 		   mov	     r1,r6						   
0000B018 00000C84 0B0A8DE2180080E2    2955 		   adrl	     r0,sp,AS@CheckInventoryForOR-20504			   
                  		      2956 %%CALL									   
00000000 00000C8C 000000EB	    E 2957 		   bl	     @btmemset						   
                  		      2958 %%LINE    000339								   
                  		      2959 ;Expr(339): ret=ReadData(boxNo,boxesTemp,msg,0,3)	    - if -		   
00000003 00000C90 0300A0E3	      2960 		   mov	     r0,#3						   
         00000C94 01002DE9	      2961 		   stmfd     sp!,{r0}						   
00000000 00000C98 0030A0E3	      2962 		   mov	     r3,#0						   
00000CDC 00000C9C 38209FE5	      2963 		   ldr	     r2,S1__msg						   
0000B02C 00000CA0 0B1A8DE22C1081E2    2964 		   adrl	     r1,sp,AS@CheckInventoryForOR-20488+4		   
0000B01C 00000CA8 0B0A8DE21C0080E2    2965 		   adrl	     r0,sp,AS@CheckInventoryForOR-20504+4		   
                  		      2966 %%CALL									   
00000000 00000CB0 000000EB	    E 2967 		   bl	     @ReadData						   
         00000CB4 0070A0E1	      2968 		   mov	     r7,r0						   
                  		      2969 %%LINE    000341								   
                  		      2970 ;Expr(341): ret==2&&btstrlen(boxesTemp)>0	   				   
                  		      2971 %%SCOPE   on,ret								   


   CROSS ASSEMBLER     V10-L41   (8901)  XASS-V                                           Sat 02-Mar-2019 11:01:07      PAGE-0069
											              ARM               0102
Addr     Location Object-Code	   RE Isn  Source Statement  [ ********                       ]				    Error
  		  1 2 3 4 5 6 7 8	   ....*....1....*....2....*....3....*....4....*....5....*....6....*....7....*....8
00000004 00000CB8 04D08DE2	      2972 		   add	     sp,#4						   
00000002 00000CBC 020057E3	      2973 		   cmp	     r7,#2						   
00000D70 00000CC0 2A00001A	      2974 		   bne.x     L201						   
00000D5C 00000CC4 240000EA	      2975 	   b.x	   L425								   
                  		      2976 										   
                  		      2977 ; DATA-LIST after block							   
         00000CC8 		      2978 	   bnd	   4								   
         00000CC8 09000000	   R  2979 S_S2:   dd	   S2								   
         00000CCC 00000000	   R  2980 S_S1:   dd	   S1								   
         00000CD0 00000000	    E 2981 S__msg2:	   dd	   _msg2						   
         00000CD4 00000000	    E 2982 S1__userId:	   dd	   _userId						   
         00000CD8 00000000	    E 2983 S1__loc:	   dd	   _loc							   
         00000CDC 00000000	    E 2984 S1__msg:	   dd	   _msg							   
         00000CE0 0E000000	   R  2985 S_S3:   dd	   S3								   
         00000CE4 14000000	   R  2986 S_S5:   dd	   S5								   
         00000CE8 11000000	   R  2987 S_S4:   dd	   S4								   
         00000CEC 33000000	   R  2988 S_S13:  dd	   S13								   
         00000CF0 1A000000	   R  2989 S_S6:   dd	   S6								   
         00000CF4 4C000000	   R  2990 S_S15:  dd	   S15								   
         00000CF8 4D000000	   R  2991 S_S16:  dd	   S16								   
         00000CFC 67000000	   R  2992 S_S18:  dd	   S18								   
         00000D00 62000000	   R  2993 S_S17:  dd	   S17								   
         00000D04 6F000000	   R  2994 S_S20:  dd	   S20								   
         00000D08 00000000	    E 2995 S2__send:	   dd	   _send						   
         00000D0C 7C000000	   R  2996 S_S22:  dd	   S22								   
         00000D10 73000000	   R  2997 S_S21:  dd	   S21								   
         00000D14 86000000	   R  2998 S_S24:  dd	   S24								   
         00000D18 87000000	   R  2999 S_S25:  dd	   S25								   
         00000D1C C4000000	   R  3000 S_S34:  dd	   S34								   
         00000D20 A2000000	   R  3001 S_S27:  dd	   S27								   
         00000D24 9C000000	   R  3002 S_S26:  dd	   S26								   
         00000D28 E3000000	   R  3003 S_S37:  dd	   S37								   
         00000D2C D8000000	   R  3004 S_S35:  dd	   S35								   
         00000D30 EC000000	   R  3005 S_S39:  dd	   S39								   
         00000D34 F0000000	   R  3006 S_S40:  dd	   S40								   
         00000D38 00000000	    E 3007 S1__keyCode:	   dd	   _keyCode						   
         00000D3C 38010000	   R  3008 S_S50:  dd	   S50								   
         00000D40 07010000	   R  3009 S_S43:  dd	   S43								   
         00000D44 04010000	   R  3010 S_S42:  dd	   S42								   
         00000D48 FE000000	   R  3011 S_S41:  dd	   S41								   
         00000D4C 57010000	   R  3012 S_S53:  dd	   S53								   
         00000D50 4C010000	   R  3013 S_S51:  dd	   S51								   
         00000D54 64010000	   R  3014 S_S55:  dd	   S55								   
         00000D58 5B010000	   R  3015 S_S54:  dd	   S54								   
                  		      3016 L425:									   
                  		      3017 										   
                  		      3018 %%SCOPE   init,ret								   
0000B028 00000D5C 0B0A8DE2280080E2    3019 		   adrl	     r0,sp,AS@CheckInventoryForOR-20488			   
                  		      3020 %%CALL									   
00000000 00000D64 000000EB	    E 3021 		   bl	     @btstrlen						   
         00000D68 0C0050E1	      3022 		   cmp	     r0,r12						   
00000E98 00000D6C 490000CA	      3023 		   bgt.x     L217						   
                  		      3024 L201:									   
                  		      3025 ; - else - - if -								   


   CROSS ASSEMBLER     V10-L41   (8901)  XASS-V                                           Sat 02-Mar-2019 11:01:07      PAGE-0070
											              ARM               0102
Addr     Location Object-Code	   RE Isn  Source Statement  [ ********                       ]				    Error
  		  1 2 3 4 5 6 7 8	   ....*....1....*....2....*....3....*....4....*....5....*....6....*....7....*....8
                  		      3026 %%LINE    000343								   
                  		      3027 ;Expr(343): ret==2&&btstrlen(boxNo)==0  					   
                  		      3028 %%SCOPE   init,ret								   
00000002 00000D70 020057E3	      3029 		   cmp	     r7,#2						   
00000D8C 00000D74 0400001A	      3030 		   bne.x     L207						   
                  		      3031 %%SCOPE   init								   
0000B018 00000D78 0B0A8DE2180080E2    3032 		   adrl	     r0,sp,AS@CheckInventoryForOR-20504			   
                  		      3033 %%CALL									   
00000000 00000D80 000000EB	    E 3034 		   bl	     @btstrlen						   
00000000 00000D84 000050E3	      3035 		   cmp	     r0,#0						   
00000C7C 00000D88 BBFFFF0A	      3036 		   beq.x     L196						   
                  		      3037 L207:									   
                  		      3038 ; - endif -									   
                  		      3039 %%LINE    000347								   
                  		      3040 ;Expr(347): btmemset(send,0,sizeof(send))	   				   
                  		      3041 %%SCOPE   init								   
         00000D8C 0A20A0E1	      3042 		   mov	     r2,r10						   
         00000D90 0610A0E1	      3043 		   mov	     r1,r6						   
00001180 00000D94 E4039FE5	      3044 		   ldr	     r0,S1__send					   
                  		      3045 %%CALL									   
00000000 00000D98 000000EB	    E 3046 		   bl	     @btmemset						   
                  		      3047 %%LINE    000349								   
                  		      3048 ;Expr(349): MakeDataToSend("M306","R01",boxNo,send)	   			   
00001180 00000D9C DC339FE5	      3049 		   ldr	     r3,S1__send					   
0000B018 00000DA0 0B2A8DE2182082E2    3050 		   adrl	     r2,sp,AS@CheckInventoryForOR-20504			   
00000DEC 00000DA8 3C109FE5	      3051 		   ldr	     r1,S_S57						   
00000005 00000DAC 050041E2	      3052 		   sub	     r0,r1,#5		   ; ldr r0,S_S56		   
                  		      3053 %%CALL									   
00000000 00000DB0 000000EB	    E 3054 		   bl	     @MakeDataToSend					   
                  		      3055 %%LINE    000351								   
                  		      3056 ;Expr(351): ret=DataSend(send,btstrlen(send),rcv,sizeof(rcv),(0))	    - if - 
         00000DB4 00102DE9	      3057 		   stmfd     sp!,{r12}						   
00001180 00000DB8 C0039FE5	      3058 		   ldr	     r0,S1__send					   
                  		      3059 %%CALL									   
00000000 00000DBC 000000EB	    E 3060 		   bl	     @btstrlen						   
00000004 00000DC0 04008DE5	      3061 		   str	     r0,[sp,#AS@CheckInventoryForOR-65584+4]		   
         00000DC4 0A30A0E1	      3062 		   mov	     r3,r10						   
00000DF0 00000DC8 20209FE5	      3063 		   ldr	     r2,S1__rcv						   
         00000DCC 0010A0E1	      3064 		   mov	     r1,r0						   
00001180 00000DD0 A8039FE5	      3065 		   ldr	     r0,S1__send					   
                  		      3066 %%CALL									   
00000000 00000DD4 000000EB	    E 3067 		   bl	     @DataSend						   
         00000DD8 0070A0E1	      3068 		   mov	     r7,r0						   
                  		      3069 %%LINE    000353								   
                  		      3070 ;Expr(353): ret&&!btmemcmp(rcv,"NG",2)  					   
                  		      3071 %%SCOPE   on,ret								   
00000004 00000DDC 04D08DE2	      3072 		   add	     sp,#4						   
00000000 00000DE0 000057E3	      3073 		   cmp	     r7,#0						   
00000E0C 00000DE4 0800000A	      3074 		   beq.x     L212						   
00000DF4 00000DE8 010000EA	      3075 	   b.x	   L426								   
                  		      3076 										   
                  		      3077 ; DATA-LIST after block							   
         00000DEC 		      3078 	   bnd	   4								   
         00000DEC 6E010000	   R  3079 S_S57:  dd	   S57								   


   CROSS ASSEMBLER     V10-L41   (8901)  XASS-V                                           Sat 02-Mar-2019 11:01:07      PAGE-0071
											              ARM               0102
Addr     Location Object-Code	   RE Isn  Source Statement  [ ********                       ]				    Error
  		  1 2 3 4 5 6 7 8	   ....*....1....*....2....*....3....*....4....*....5....*....6....*....7....*....8
         00000DF0 00000000	    E 3080 S1__rcv:	   dd	   _rcv							   
                  		      3081 L426:									   
                  		      3082 										   
                  		      3083 %%SCOPE   init,ret								   
00000002 00000DF4 0220A0E3	      3084 		   mov	     r2,#2						   
00001B18 00000DF8 181D9FE5	      3085 		   ldr	     r1,S_S58						   
00001B24 00000DFC 200D9FE5	      3086 		   ldr	     r0,S__rcv						   
                  		      3087 %%CALL									   
00000000 00000E00 000000EB	    E 3088 		   bl	     @btmemcmp						   
00000000 00000E04 000050E3	      3089 		   cmp	     r0,#0						   
00000C7C 00000E08 9BFFFF0A	      3090 		   beq.x     L196						   
                  		      3091 L212:									   
                  		      3092 ; - endif - - if -								   
                  		      3093 %%LINE    000356								   
                  		      3094 ;Expr(356): ret==2	   							   
                  		      3095 %%SCOPE   init,ret								   
00000002 00000E0C 020057E3	      3096 		   cmp	     r7,#2						   
00000E98 00000E10 2000001A	      3097 		   bne.x     L217						   
                  		      3098 ; - then -									   
                  		      3099 %%LINE    000360								   
                  		      3100 ;Expr(360): btmemset(tmp,0,sizeof(tmp)) 					   
                  		      3101 %%SCOPE   init								   
00001000 00000E14 012AA0E3	      3102 		   mov	     r2,#4096						   
         00000E18 0610A0E1	      3103 		   mov	     r1,r6						   
0000A018 00000E1C 0A0A8DE2180080E2    3104 		   adrl	     r0,sp,AS@CheckInventoryForOR-24600			   
                  		      3105 %%CALL									   
00000000 00000E24 000000EB	    E 3106 		   bl	     @btmemset						   
                  		      3107 %%LINE    000361								   
                  		      3108 ;Expr(361): btsprintf(tmp,"%s",boxesTemp)	   				   
0000B028 00000E28 0B0A8DE2280080E2    3109 		   adrl	     r0,sp,AS@CheckInventoryForOR-20488			   
         00000E30 01002DE9	      3110 		   stmfd     sp!,{r0}						   
00001B20 00000E34 E41C9FE5	      3111 		   ldr	     r1,S_S59						   
         00000E38 02002DE9	      3112 		   stmfd     sp!,{r1}						   
0000A020 00000E3C 0A2A8DE2202082E2    3113 		   adrl	     r2,sp,AS@CheckInventoryForOR-24600+8		   
         00000E44 04002DE9	      3114 		   stmfd     sp!,{r2}						   
                  		      3115 %%CALL									   
00000000 00000E48 000000EB	    E 3116 		   bl	     @btsprintf						   
                  		      3117 %%LINE    000363								   
                  		      3118 ;Expr(363): btmemset(boxesTemp,0,sizeof(boxesTemp))	   			   
         00000E4C 0A20A0E1	      3119 		   mov	     r2,r10						   
         00000E50 0610A0E1	      3120 		   mov	     r1,r6						   
0000B034 00000E54 0B0A8DE2340080E2    3121 		   adrl	     r0,sp,AS@CheckInventoryForOR-20488+12		   
                  		      3122 %%CALL									   
00000000 00000E5C 000000EB	    E 3123 		   bl	     @btmemset						   
                  		      3124 %%LINE    000364								   
                  		      3125 ;Expr(364): btsprintf(boxesTemp,"%s%s",tmp,boxNo)	    - continue -	   
0000B024 00000E60 0B0A8DE2240080E2    3126 		   adrl	     r0,sp,AS@CheckInventoryForOR-20504+12		   
         00000E68 01002DE9	      3127 		   stmfd     sp!,{r0}						   
0000A028 00000E6C 0A1A8DE2281081E2    3128 		   adrl	     r1,sp,AS@CheckInventoryForOR-24600+16		   
         00000E74 02002DE9	      3129 		   stmfd     sp!,{r1}						   
00001B1C 00000E78 9C2C9FE5	      3130 		   ldr	     r2,S_S60						   
         00000E7C 04002DE9	      3131 		   stmfd     sp!,{r2}						   
0000B040 00000E80 040E8DE20B0A80E2    3132 		   adrl	     r0,sp,AS@CheckInventoryForOR-20488+24		   
         00000E88 01002DE9	      3133 		   stmfd     sp!,{r0}						   


   CROSS ASSEMBLER     V10-L41   (8901)  XASS-V                                           Sat 02-Mar-2019 11:01:07      PAGE-0072
											              ARM               0102
Addr     Location Object-Code	   RE Isn  Source Statement  [ ********                       ]				    Error
  		  1 2 3 4 5 6 7 8	   ....*....1....*....2....*....3....*....4....*....5....*....6....*....7....*....8
                  		      3134 %%CALL									   
00000000 00000E8C 000000EB	    E 3135 		   bl	     @btsprintf						   
                  		      3136 %%LINE    000365								   
0000001C 00000E90 1CD08DE2	      3137 		   add	     sp,#28						   
00000C7C 00000E94 78FFFFEA	      3138 		   b.x	     L196						   
                  		      3139 L217:									   
                  		      3140 %%LINE    000369								   
                  		      3141 ;Expr(369): btmemset(send,0,sizeof(send))	   				   
                  		      3142 %%SCOPE   init								   
         00000E98 0A20A0E1	      3143 		   mov	     r2,r10						   
         00000E9C 0610A0E1	      3144 		   mov	     r1,r6						   
00001180 00000EA0 D8029FE5	      3145 		   ldr	     r0,S1__send					   
                  		      3146 %%CALL									   
00000000 00000EA4 000000EB	    E 3147 		   bl	     @btmemset						   
                  		      3148 %%LINE    000371								   
                  		      3149 ;Expr(371): MakeDataToSend("M306","R02",boxNo,send)	   			   
00001180 00000EA8 D0329FE5	      3150 		   ldr	     r3,S1__send					   
0000B018 00000EAC 0B2A8DE2182082E2    3151 		   adrl	     r2,sp,AS@CheckInventoryForOR-20504			   
00001B28 00000EB4 6C1C9FE5	      3152 		   ldr	     r1,S_S62						   
00000005 00000EB8 050041E2	      3153 		   sub	     r0,r1,#5		   ; ldr r0,S_S61		   
                  		      3154 %%CALL									   
00000000 00000EBC 000000EB	    E 3155 		   bl	     @MakeDataToSend					   
                  		      3156 %%LINE    000373								   
                  		      3157 ;Expr(373): ret=DataSend(send,btstrlen(send),rcv,sizeof(rcv),(0))	   	   
         00000EC0 00102DE9	      3158 		   stmfd     sp!,{r12}						   
00001180 00000EC4 B4029FE5	      3159 		   ldr	     r0,S1__send					   
                  		      3160 %%CALL									   
00000000 00000EC8 000000EB	    E 3161 		   bl	     @btstrlen						   
         00000ECC 0070A0E1	      3162 		   mov	     r7,r0						   
         00000ED0 0A30A0E1	      3163 		   mov	     r3,r10						   
00001B24 00000ED4 482C9FE5	      3164 		   ldr	     r2,S__rcv						   
         00000ED8 0710A0E1	      3165 		   mov	     r1,r7						   
00001180 00000EDC 9C029FE5	      3166 		   ldr	     r0,S1__send					   
                  		      3167 %%CALL									   
00000000 00000EE0 000000EB	    E 3168 		   bl	     @DataSend						   
                  		      3169 %%LINE    000375								   
                  		      3170 ;Expr(375): btmemcpy(mnPallete,rcv,sizeof(mnPallete))   			   
         00000EE4 0A20A0E1	      3171 		   mov	     r2,r10						   
00001B24 00000EE8 341C9FE5	      3172 		   ldr	     r1,S__rcv						   
0000501C 00000EEC 050A8DE21C0080E2    3173 		   adrl	     r0,sp,AS@CheckInventoryForOR-45080+4		   
                  		      3174 %%CALL									   
00000000 00000EF4 000000EB	    E 3175 		   bl	     @btmemcpy						   
                  		      3176 %%LINE    000376								   
                  		      3177 ;Expr(376): totalPallete=btstrlen((char*)mnPallete)/15   - if -		   
0000501C 00000EF8 050A8DE21C0080E2    3178 		   adrl	     r0,sp,AS@CheckInventoryForOR-45080+4		   
                  		      3179 %%CALL									   
00000000 00000F00 000000EB	    E 3180 		   bl	     @btstrlen						   
0000000F 00000F04 0F10A0E3	      3181 		   mov	     r1,#15						   
00000000 00000F08 000000EB	    E 3182 		   bl	     cslldiv						   
00010030 00000F0C 01488DE2304084E2    3183 		   adrl	     r4,sp,AS@CheckInventoryForOR-4+4			   
00000000 00000F14 000084E5	      3184 		   str	     r0,[r4,#0]						   
                  		      3185 %%LINE    000378								   
                  		      3186 ;Expr(378): totalPallete>0	   						   
00000004 00000F18 04D08DE2	      3187 		   add	     sp,#4						   


   CROSS ASSEMBLER     V10-L41   (8901)  XASS-V                                           Sat 02-Mar-2019 11:01:07      PAGE-0073
											              ARM               0102
Addr     Location Object-Code	   RE Isn  Source Statement  [ ********                       ]				    Error
  		  1 2 3 4 5 6 7 8	   ....*....1....*....2....*....3....*....4....*....5....*....6....*....7....*....8
         00000F1C 0C0050E1	      3188 		   cmp	     r0,r12						   
00001158 00000F20 8C0000DA	      3189 		   ble.x     L258						   
                  		      3190 ; - then -									   
                  		      3191 %%LINE    000380								   
                  		      3192 ;Expr(380): btmemset(mnPalleteTemp,0,sizeof(mnPalleteTemp))	   		   
                  		      3193 %%SCOPE   init								   
         00000F24 0A20A0E1	      3194 		   mov	     r2,r10						   
         00000F28 0610A0E1	      3195 		   mov	     r1,r6						   
00000018 00000F2C 18008DE2	      3196 		   adrl	     r0,sp,AS@CheckInventoryForOR-65560			   
                  		      3197 %%CALL									   
00000000 00000F30 000000EB	    E 3198 		   bl	     @btmemset						   
                  		      3199 L221:									   
                  		      3200 ; - do -									   
                  		      3201 %%LINE    000384								   
                  		      3202 ;Expr(384): btsprintf(msg,"To  [%ld/%ld]",palleteScanned,totalPallete)  	   
                  		      3203 %%SCOPE   init								   
0001002C 00000F34 01488DE22C4084E2    3204 		   adrl	     r4,sp,AS@CheckInventoryForOR-4			   
00000000 00000F3C 000094E5	      3205 		   ldr	     r0,[r4,#0]						   
         00000F40 01002DE9	      3206 		   stmfd     sp!,{r0}						   
0001002C 00000F44 01488DE22C4084E2    3207 		   adrl	     r4,sp,AS@CheckInventoryForOR-8+4			   
00000000 00000F4C 001094E5	      3208 		   ldr	     r1,[r4,#0]						   
         00000F50 02002DE9	      3209 		   stmfd     sp!,{r1}						   
00001B30 00000F54 D40B9FE5	      3210 		   ldr	     r0,S_S63						   
         00000F58 01002DE9	      3211 		   stmfd     sp!,{r0}						   
00001BE8 00000F5C 841C9FE5	      3212 		   ldr	     r1,S__msg						   
         00000F60 02002DE9	      3213 		   stmfd     sp!,{r1}						   
                  		      3214 %%CALL									   
00000000 00000F64 000000EB	    E 3215 		   bl	     @btsprintf						   
                  		      3216 %%LINE    000385								   
                  		      3217 ;Expr(385): btmemset(shippingTo,0,sizeof(shippingTo))   			   
00000012 00000F68 1220A0E3	      3218 		   mov	     r2,#18						   
         00000F6C 0610A0E1	      3219 		   mov	     r1,r6						   
00000014 00000F70 14008DE2	      3220 		   adrl	     r0,sp,AS@CheckInventoryForOR-65580+16		   
                  		      3221 %%CALL									   
00000000 00000F74 000000EB	    E 3222 		   bl	     @btmemset						   
                  		      3223 %%LINE    000387								   
                  		      3224 ;Expr(387): ret=ReadData(shippingTo,mnPalleteTemp,msg,0,4)	    - if -	   
00000004 00000F78 0400A0E3	      3225 		   mov	     r0,#4						   
         00000F7C 01002DE9	      3226 		   stmfd     sp!,{r0}						   
00000000 00000F80 0030A0E3	      3227 		   mov	     r3,#0						   
00001BE8 00000F84 5C2C9FE5	      3228 		   ldr	     r2,S__msg						   
0000002C 00000F88 2C108DE2	      3229 		   adrl	     r1,sp,AS@CheckInventoryForOR-65560+20		   
00000018 00000F8C 18008DE2	      3230 		   adrl	     r0,sp,AS@CheckInventoryForOR-65580+20		   
                  		      3231 %%CALL									   
00000000 00000F90 000000EB	    E 3232 		   bl	     @ReadData						   
         00000F94 0070A0E1	      3233 		   mov	     r7,r0						   
                  		      3234 %%LINE    000389								   
                  		      3235 ;Expr(389): ret==2&&btstrlen(mnPalleteTemp)>0   				   
                  		      3236 %%SCOPE   on,ret								   
00000014 00000F98 14D08DE2	      3237 		   add	     sp,#20						   
00000002 00000F9C 020057E3	      3238 		   cmp	     r7,#2						   
00000FB4 00000FA0 0300001A	      3239 		   bne.x     L226						   
                  		      3240 %%SCOPE   init,ret								   
00000018 00000FA4 18008DE2	      3241 		   adrl	     r0,sp,AS@CheckInventoryForOR-65560			   


   CROSS ASSEMBLER     V10-L41   (8901)  XASS-V                                           Sat 02-Mar-2019 11:01:07      PAGE-0074
											              ARM               0102
Addr     Location Object-Code	   RE Isn  Source Statement  [ ********                       ]				    Error
  		  1 2 3 4 5 6 7 8	   ....*....1....*....2....*....3....*....4....*....5....*....6....*....7....*....8
                  		      3242 %%CALL									   
00000000 00000FA8 000000EB	    E 3243 		   bl	     @btstrlen						   
         00000FAC 0C0050E1	      3244 		   cmp	     r0,r12						   
000010F0 00000FB0 4E0000CA	      3245 		   bgt.x     L245						   
                  		      3246 L226:									   
                  		      3247 ; - else - - if -								   
                  		      3248 %%LINE    000391								   
                  		      3249 ;Expr(391): ret==2&&btstrlen(shippingTo)==0	   				   
                  		      3250 %%SCOPE   init,ret								   
00000002 00000FB4 020057E3	      3251 		   cmp	     r7,#2						   
00000FCC 00000FB8 0300001A	      3252 		   bne.x     L241						   
                  		      3253 %%SCOPE   init								   
00000004 00000FBC 04008DE2	      3254 		   adrl	     r0,sp,AS@CheckInventoryForOR-65580			   
                  		      3255 %%CALL									   
00000000 00000FC0 000000EB	    E 3256 		   bl	     @btstrlen						   
00000000 00000FC4 000050E3	      3257 		   cmp	     r0,#0						   
00000F34 00000FC8 D9FFFF0A	      3258 		   beq.x     L221						   
                  		      3259 L241:									   
                  		      3260 %%LINE    000394								   
                  		      3261 ;Expr(394): ret=CheckDataExistInString(mnPallete,shippingTo,4)  		   
                  		      3262 %%SCOPE   init								   
00000004 00000FCC 0420A0E3	      3263 		   mov	     r2,#4						   
00000004 00000FD0 04108DE2	      3264 		   adrl	     r1,sp,AS@CheckInventoryForOR-65580			   
00005018 00000FD4 050A8DE2180080E2    3265 		   adrl	     r0,sp,AS@CheckInventoryForOR-45080			   
                  		      3266 %%CALL									   
00000000 00000FDC 000000EB	    E 3267 		   bl	     @CheckDataExistInString				   
                  		      3268 %%LINE    000395								   
                  		      3269 ;Expr(395): ret 								   
0000000D 00000FE0 0D0050E3	      3270 		   cmp	     r0,#13						   
00000F34 00000FE4 D2FFFF0A	      3271 		   beq.x     L221						   
00000010 00000FE8 100050E3	      3272 		   cmp	     r0,#16						   
00000F34 00000FEC D0FFFF0A	      3273 		   beq.x     L221						   
00000019 00000FF0 190050E3	      3274 		   cmp	     r0,#25						   
00000FFC 00000FF4 0000000A	      3275 		   beq.x     L234						   
00001004 00000FF8 010000EA	      3276 		   b.x	     L242						   
                  		      3277 L234:									   
                  		      3278 ; - case - 									   
                  		      3279 %%LINE    000398								   
                  		      3280 ;Expr(398): - 2 								   
                  		      3281 %%SCOPE   init								   
00000001 00000FFC 0100E0E3	      3282 		   mvn	     r0,#1						   
00001174 00001000 5B0000EA	      3283 		   b.x	     L263						   
                  		      3284 L242:									   
                  		      3285 %%LINE    000406								   
                  		      3286 ;Expr(406): btmemset(tmp,0,sizeof(tmp)) 					   
                  		      3287 %%SCOPE   init								   
00001000 00001004 012AA0E3	      3288 		   mov	     r2,#4096						   
         00001008 0610A0E1	      3289 		   mov	     r1,r6						   
0000A018 0000100C 0A0A8DE2180080E2    3290 		   adrl	     r0,sp,AS@CheckInventoryForOR-24600			   
                  		      3291 %%CALL									   
00000000 00001014 000000EB	    E 3292 		   bl	     @btmemset						   
                  		      3293 %%LINE    000407								   
                  		      3294 ;Expr(407): btsprintf(tmp,"%s@%s",mnPalleteTemp,shippingTo)	   		   
00000004 00001018 04008DE2	      3295 		   adrl	     r0,sp,AS@CheckInventoryForOR-65580			   


   CROSS ASSEMBLER     V10-L41   (8901)  XASS-V                                           Sat 02-Mar-2019 11:01:07      PAGE-0075
											              ARM               0102
Addr     Location Object-Code	   RE Isn  Source Statement  [ ********                       ]				    Error
  		  1 2 3 4 5 6 7 8	   ....*....1....*....2....*....3....*....4....*....5....*....6....*....7....*....8
         0000101C 01002DE9	      3296 		   stmfd     sp!,{r0}						   
0000001C 00001020 1C108DE2	      3297 		   adrl	     r1,sp,AS@CheckInventoryForOR-65560+4		   
         00001024 02002DE9	      3298 		   stmfd     sp!,{r1}						   
00001B40 00001028 102B9FE5	      3299 		   ldr	     r2,S_S64						   
         0000102C 04002DE9	      3300 		   stmfd     sp!,{r2}						   
0000A024 00001030 0A0A8DE2240080E2    3301 		   adrl	     r0,sp,AS@CheckInventoryForOR-24600+12		   
         00001038 01002DE9	      3302 		   stmfd     sp!,{r0}						   
                  		      3303 %%CALL									   
00000000 0000103C 000000EB	    E 3304 		   bl	     @btsprintf						   
                  		      3305 %%LINE    000409								   
                  		      3306 ;Expr(409): btmemset(mnPalleteTemp,0,sizeof(mnPalleteTemp))	   		   
         00001040 0A20A0E1	      3307 		   mov	     r2,r10						   
         00001044 0610A0E1	      3308 		   mov	     r1,r6						   
00000028 00001048 28008DE2	      3309 		   adrl	     r0,sp,AS@CheckInventoryForOR-65560+16		   
                  		      3310 %%CALL									   
00000000 0000104C 000000EB	    E 3311 		   bl	     @btmemset						   
                  		      3312 %%LINE    000410								   
                  		      3313 ;Expr(410): btsprintf(mnPalleteTemp,"%s",tmp)   				   
0000A028 00001050 0A0A8DE2280080E2    3314 		   adrl	     r0,sp,AS@CheckInventoryForOR-24600+16		   
         00001058 01002DE9	      3315 		   stmfd     sp!,{r0}						   
00001B3C 0000105C D81A9FE5	      3316 		   ldr	     r1,S_S65						   
         00001060 02002DE9	      3317 		   stmfd     sp!,{r1}						   
00000030 00001064 30208DE2	      3318 		   adrl	     r2,sp,AS@CheckInventoryForOR-65560+24		   
         00001068 04002DE9	      3319 		   stmfd     sp!,{r2}						   
                  		      3320 %%CALL									   
00000000 0000106C 000000EB	    E 3321 		   bl	     @btsprintf						   
                  		      3322 %%LINE    000412								   
                  		      3323 ;Expr(412): palleteScanned++	   						   
00010044 00001070 01488DE2444084E2    3324 		   adrl	     r4,sp,AS@CheckInventoryForOR-8+28			   
00000000 00001078 000094E5	      3325 		   ldr	     r0,[r4,#0]						   
00000001 0000107C 010090E2	      3326 		   adds	     r0,r0,#1						   
00000000 00001080 000084E5	      3327 		   str	     r0,[r4,#0]						   
                  		      3328 %%LINE    000414								   
                  		      3329 ;Expr(414): btsprintf(msg,"  [%ld/%ld]",palleteScanned,totalPallete)	   	   
00000004 00001084 041094E5	      3330 		   ldr	     r1,[r4,#4]						   
         00001088 02002DE9	      3331 		   stmfd     sp!,{r1}						   
         0000108C 01002DE9	      3332 		   stmfd     sp!,{r0}						   
00001B38 00001090 A02A9FE5	      3333 		   ldr	     r2,S_S66						   
         00001094 04002DE9	      3334 		   stmfd     sp!,{r2}						   
00001BE8 00001098 481B9FE5	      3335 		   ldr	     r1,S__msg						   
         0000109C 02002DE9	      3336 		   stmfd     sp!,{r1}						   
                  		      3337 %%CALL									   
00000000 000010A0 000000EB	    E 3338 		   bl	     @btsprintf						   
                  		      3339 %%LINE    000415								   
                  		      3340 ;Expr(415): keyCode=StartDisplay("VNN NOK","Quet Shipping To","ke tiep:",shippin
                  		           gTo,"","",""," C:Thoat - ENT:Gui ")	    - if -				   
00001B34 000010A4 880A9FE5	      3341 		   ldr	     r0,S_S73						   
         000010A8 01002DE9	      3342 		   stmfd     sp!,{r0}						   
00000001 000010AC 011040E2	      3343 		   sub	     r1,r0,#1		   ; ldr r1,S_S72		   
         000010B0 02002DE9	      3344 		   stmfd     sp!,{r1}						   
00000002 000010B4 022040E2	      3345 		   sub	     r2,r0,#2		   ; ldr r2,S_S71		   
         000010B8 04002DE9	      3346 		   stmfd     sp!,{r2}						   
00000003 000010BC 030040E2	      3347 		   sub	     r0,r0,#3		   ; ldr r0,S_S70		   
         000010C0 01002DE9	      3348 		   stmfd     sp!,{r0}						   


   CROSS ASSEMBLER     V10-L41   (8901)  XASS-V                                           Sat 02-Mar-2019 11:01:07      PAGE-0076
											              ARM               0102
Addr     Location Object-Code	   RE Isn  Source Statement  [ ********                       ]				    Error
  		  1 2 3 4 5 6 7 8	   ....*....1....*....2....*....3....*....4....*....5....*....6....*....7....*....8
00000040 000010C4 40308DE2	      3349 		   adrl	     r3,sp,AS@CheckInventoryForOR-65580+60		   
0000000A 000010C8 0A2042E2	      3350 		   sub	     r2,r2,#10		   ; ldr r2,S_S69		   
0000001C 000010CC 1C1041E2	      3351 		   sub	     r1,r1,#28		   ; ldr r1,S_S68		   
00000022 000010D0 220040E2	      3352 		   sub	     r0,r0,#34		   ; ldr r0,S_S67		   
                  		      3353 %%CALL									   
00000000 000010D4 000000EB	    E 3354 		   bl	     @StartDisplay					   
00001BF4 000010D8 144B9FE5	      3355 		   ldr	     r4,S__keyCode					   
00000000 000010DC 000084E5	      3356 		   str	     r0,[r4,#0]						   
                  		      3357 %%LINE    000417								   
                  		      3358 ;Expr(417): keyCode==(000d)	   						   
0000003C 000010E0 3CD08DE2	      3359 		   add	     sp,#60						   
00000000 000010E4 001094E5	      3360 		   ldr	     r1,[r4,#0]						   
0000000D 000010E8 0D0051E3	      3361 		   cmp	     r1,#13						   
00000F34 000010EC 90FFFF1A	      3362 		   bne.x     L221						   
                  		      3363 L245:									   
                  		      3364 %%LINE    000420								   
                  		      3365 ;Expr(420): btmemset(send,0,sizeof(send))	   				   
                  		      3366 %%SCOPE   init								   
         000010F0 0A20A0E1	      3367 		   mov	     r2,r10						   
         000010F4 0610A0E1	      3368 		   mov	     r1,r6						   
00001180 000010F8 80009FE5	      3369 		   ldr	     r0,S1__send					   
                  		      3370 %%CALL									   
00000000 000010FC 000000EB	    E 3371 		   bl	     @btmemset						   
                  		      3372 %%LINE    000421								   
                  		      3373 ;Expr(421): MakeDataToSend("M306","R03",mnPalleteTemp,send)	   		   
00001180 00001100 78309FE5	      3374 		   ldr	     r3,S1__send					   
00000018 00001104 18208DE2	      3375 		   adrl	     r2,sp,AS@CheckInventoryForOR-65560			   
00001B44 00001108 341A9FE5	      3376 		   ldr	     r1,S_S75						   
00000005 0000110C 050041E2	      3377 		   sub	     r0,r1,#5		   ; ldr r0,S_S74		   
                  		      3378 %%CALL									   
00000000 00001110 000000EB	    E 3379 		   bl	     @MakeDataToSend					   
                  		      3380 %%LINE    000423								   
                  		      3381 ;Expr(423): ret=DataSend(send,btstrlen(send),rcv,sizeof(rcv),(0))	    - if - 
         00001114 00102DE9	      3382 		   stmfd     sp!,{r12}						   
00001180 00001118 60009FE5	      3383 		   ldr	     r0,S1__send					   
                  		      3384 %%CALL									   
00000000 0000111C 000000EB	    E 3385 		   bl	     @btstrlen						   
00000004 00001120 04008DE5	      3386 		   str	     r0,[sp,#AS@CheckInventoryForOR-65584+4]		   
         00001124 0A30A0E1	      3387 		   mov	     r3,r10						   
00001B24 00001128 F4299FE5	      3388 		   ldr	     r2,S__rcv						   
         0000112C 0010A0E1	      3389 		   mov	     r1,r0						   
00001180 00001130 48009FE5	      3390 		   ldr	     r0,S1__send					   
                  		      3391 %%CALL									   
00000000 00001134 000000EB	    E 3392 		   bl	     @DataSend						   
         00001138 0070A0E1	      3393 		   mov	     r7,r0						   
                  		      3394 %%LINE    000425								   
                  		      3395 ;Expr(425): ret 								   
                  		      3396 %%SCOPE   on,ret								   
00000004 0000113C 04D08DE2	      3397 		   add	     sp,#4						   
00000000 00001140 000057E3	      3398 		   cmp	     r7,#0						   
                  		      3399 ; - then - - return -							   
                  		      3400 %%LINE    000426								   
                  		      3401 ;Expr(426): - 1 								   
                  		      3402 %%SCOPE   init								   


   CROSS ASSEMBLER     V10-L41   (8901)  XASS-V                                           Sat 02-Mar-2019 11:01:07      PAGE-0077
											              ARM               0102
Addr     Location Object-Code	   RE Isn  Source Statement  [ ********                       ]				    Error
  		  1 2 3 4 5 6 7 8	   ....*....1....*....2....*....3....*....4....*....5....*....6....*....7....*....8
00000000 00001144 0000E013	      3403 		   mvnne     r0,#0						   
00001174 00001148 0900001A	      3404 		   bne.x     L263						   
                  		      3405 ; - endif - - if -								   
                  		      3406 %%LINE    000428								   
                  		      3407 ;Expr(428): !ret	   							   
                  		      3408 %%SCOPE   init,ret								   
00000F34 0000114C 78FFFF1A	      3409 		   bne.x     L221						   
                  		      3410 ; - then - - return -							   
                  		      3411 %%LINE    000429								   
                  		      3412 ;Expr(429): 0   								   
                  		      3413 %%SCOPE   init								   
         00001150 0C00A0E1	      3414 		   mov	     r0,r12						   
00001174 00001154 060000EA	      3415 		   b.x	     L263						   
                  		      3416 L258:									   
                  		      3417 ; - else -									   
                  		      3418 %%LINE    000436								   
                  		      3419 ;Expr(436): Buzzer()	   							   
                  		      3420 %%SCOPE   init								   
                  		      3421 %%CALL									   
00000000 00001158 000000EB	    E 3422 		   bl	     @Buzzer						   
                  		      3423 %%LINE    000437								   
                  		      3424 ;Expr(437): btMessageBoxEx("Hoan Thanh!!!",(000001),"",((24)))  		   
00000018 0000115C 1830A0E3	      3425 		   mov	     r3,#24						   
00001B48 00001160 E0299FE5	      3426 		   ldr	     r2,S_S77						   
00000001 00001164 0110A0E3	      3427 		   mov	     r1,#1						   
0000000E 00001168 0E0042E2	      3428 		   sub	     r0,r2,#14		   ; ldr r0,S_S76		   
                  		      3429 %%CALL									   
00000000 0000116C 000000EB	    E 3430 		   bl	     @btMessageBoxEx					   
00000C7C 00001170 C1FEFFEA	      3431 		   b.x	     L196						   
                  		      3432 L263:									   
                  		      3433 ; RET									   
                  		      3434 %%LINE    000441								   
                  		      3435 %%SCOPE init									   
                  		      3436 %%EF	     									   
00000030 00001174 30D08DE2	      3437 		   add	     sp,#48						   
00010000 00001178 01D88DE2	      3438 		   add	     sp,#65536						   
                  		      3439 %%RESTORE	   R6								   
                  		      3440 %%RESTORE	   R7								   
                  		      3441 %%RESTORE	   R10								   
                  		      3442 %%RESTORE	   R12								   
                  		      3443 %%RETURN									   
         0000117C C09CBDE8	      3444 		   ldmfd     sp!,{r6,r7,r10,r11,r12,pc}				   
         00001180 		      3445 		   bnd	     4							   
                  		      3446 ; DATA-LIST after block							   
         00001180 		      3447 	   bnd	   4								   
         00001180 00000000	    E 3448 S1__send:	   dd	   _send						   
                  		      3449 %%FEND    									   
                  		      3450 ;	   totalPallete -> offset -4	    int					   
                  		      3451 ;	   palleteScanned -> offset -8	    int					   
                  		      3452 ;	   ret -> regid  8  int							   
                  		      3453 ;	   boxesTemp -> offset -20488	    array				   
                  		      3454 ;	   boxNo -> offset -20504   array					   
                  		      3455 ;	   tmp -> offset -24600	    array					   
                  		      3456 ;	   mnPallete -> offset -45080	    array				   


   CROSS ASSEMBLER     V10-L41   (8901)  XASS-V                                           Sat 02-Mar-2019 11:01:07      PAGE-0078
											              ARM               0102
Addr     Location Object-Code	   RE Isn  Source Statement  [ ********                       ]				    Error
  		  1 2 3 4 5 6 7 8	   ....*....1....*....2....*....3....*....4....*....5....*....6....*....7....*....8
                  		      3457 ;	   mnPalleteTemp -> offset -65560   array				   
                  		      3458 ;	   shippingTo -> offset -65580	    array				   
                  		      3459 %%LINE    000448								   
                  		      3460 %%FUNC    PrintPCLOR,3,cls=2,type=5,ftype=1					   
                  		      3461 %%RVALUE  kind=direct,register=R0,atype=2					   
                  		      3462 @PrintPCLOR: ;entry								   
         00001184 C05C2DE9	      3463 		   stmfd     sp!,{r6,r7,r10,r11,r12,lr}				   
         00001188 0DB0A0E1	      3464 		   mov	     r11,sp						   
                  		      3465 %%SAVE  R6,kind=direct,base=R11,offset=0,atype=6				   
                  		      3466 %%SAVE  R7,kind=direct,base=R11,offset=4,atype=6				   
                  		      3467 %%SAVE  R10,kind=direct,base=R11,offset=8,atype=6				   
                  		      3468 %%SAVE  R12,kind=direct,base=R11,offset=16,atype=6				   
00000000          		      3469 AS@PrintPCLOR   set	   0		   ; stack frame total size		   
                  		      3470 %%BF	     									   
                  		      3471 %%SCOPE   init								   
00000000 0000118C 0060A0E3	      3472 		   mov	     r6,#0						   
                  		      3473 %%LINE    000449								   
                  		      3474 ;Expr(449): GetUserAndLocation()	   					   
                  		      3475 %%SCOPE   init								   
                  		      3476 %%CALL									   
00000000 00001190 000000EB	    E 3477 		   bl	     @GetUserAndLocation				   
                  		      3478 %%LINE    000451								   
                  		      3479 ;Expr(451): btmemset(send,0,sizeof(send))	   				   
00005000 00001194 052AA0E3	      3480 		   mov	     r2,#20480						   
00000000 00001198 0010A0E3	      3481 		   mov	     r1,#0						   
00001B2C 0000119C 88099FE5	      3482 		   ldr	     r0,S__send						   
                  		      3483 %%CALL									   
00000000 000011A0 000000EB	    E 3484 		   bl	     @btmemset						   
                  		      3485 %%LINE    000452								   
                  		      3486 ;Expr(452): MakeDataToSend("M300","",buf,send)  				   
00001B2C 000011A4 80399FE5	      3487 		   ldr	     r3,S__send						   
00001BF0 000011A8 402A9FE5	      3488 		   ldr	     r2,S__buf						   
00001B50 000011AC 9C199FE5	      3489 		   ldr	     r1,S_S79						   
00000005 000011B0 050041E2	      3490 		   sub	     r0,r1,#5		   ; ldr r0,S_S78		   
                  		      3491 %%CALL									   
00000000 000011B4 000000EB	    E 3492 		   bl	     @MakeDataToSend					   
                  		      3493 %%LINE    000454								   
                  		      3494 ;Expr(454): ret=DataSend(send,btstrlen(send),rcv,sizeof(rcv),(0))	    - if - 
         000011B8 40002DE9	      3495 		   stmfd     sp!,{r6}						   
00001B2C 000011BC 68099FE5	      3496 		   ldr	     r0,S__send						   
                  		      3497 %%CALL									   
00000000 000011C0 000000EB	    E 3498 		   bl	     @btstrlen						   
         000011C4 0070A0E1	      3499 		   mov	     r7,r0						   
00005000 000011C8 053AA0E3	      3500 		   mov	     r3,#20480						   
00001B24 000011CC 50299FE5	      3501 		   ldr	     r2,S__rcv						   
         000011D0 0710A0E1	      3502 		   mov	     r1,r7						   
00001B2C 000011D4 50099FE5	      3503 		   ldr	     r0,S__send						   
                  		      3504 %%CALL									   
00000000 000011D8 000000EB	    E 3505 		   bl	     @DataSend						   
00001B4C 000011DC 68499FE5	      3506 		   ldr	     r4,S__ret						   
00000000 000011E0 000084E5	      3507 		   str	     r0,[r4,#0]						   
                  		      3508 %%LINE    000456								   
                  		      3509 ;Expr(456): ret==2	   							   
00000004 000011E4 04D08DE2	      3510 		   add	     sp,#4						   


   CROSS ASSEMBLER     V10-L41   (8901)  XASS-V                                           Sat 02-Mar-2019 11:01:07      PAGE-0079
											              ARM               0102
Addr     Location Object-Code	   RE Isn  Source Statement  [ ********                       ]				    Error
  		  1 2 3 4 5 6 7 8	   ....*....1....*....2....*....3....*....4....*....5....*....6....*....7....*....8
00000000 000011E8 001094E5	      3511 		   ldr	     r1,[r4,#0]						   
00000002 000011EC 020051E3	      3512 		   cmp	     r1,#2						   
00001204 000011F0 0300001A	      3513 		   bne.x     L270						   
                  		      3514 ; - then -									   
                  		      3515 %%LINE    000458								   
                  		      3516 ;Expr(458): Beep(0)	    - return -						   
                  		      3517 %%SCOPE   init								   
         000011F4 0600A0E1	      3518 		   mov	     r0,r6						   
                  		      3519 %%CALL									   
00000000 000011F8 000000EB	    E 3520 		   bl	     @Beep						   
                  		      3521 %%LINE    000459								   
                  		      3522 ;Expr(459): - 1 								   
00000000 000011FC 0000E0E3	      3523 		   mvn	     r0,#0						   
00001208 00001200 000000EA	      3524 		   b.x	     L272						   
                  		      3525 L270:									   
                  		      3526 ; - endif - - return -							   
                  		      3527 %%LINE    000461								   
                  		      3528 ;Expr(461): 0   								   
                  		      3529 %%SCOPE   init								   
         00001204 0600A0E1	      3530 		   mov	     r0,r6						   
                  		      3531 L272:									   
                  		      3532 ; RET									   
                  		      3533 %%LINE    000462								   
                  		      3534 %%SCOPE init									   
                  		      3535 %%EF	     									   
                  		      3536 %%RESTORE	   R6								   
                  		      3537 %%RESTORE	   R7								   
                  		      3538 %%RESTORE	   R10								   
                  		      3539 %%RESTORE	   R12								   
                  		      3540 %%RETURN									   
         00001208 C09CBDE8	      3541 		   ldmfd     sp!,{r6,r7,r10,r11,r12,pc}				   
         0000120C 		      3542 		   bnd	     4							   
                  		      3543 %%FEND    									   
                  		      3544 %%LINE    000469								   
                  		      3545 %%FUNC    Reservation,3,cls=2,type=5,ftype=1					   
                  		      3546 %%RVALUE  kind=direct,register=R0,atype=2					   
                  		      3547 @Reservation: ;entry								   
         0000120C C05C2DE9	      3548 		   stmfd     sp!,{r6,r7,r10,r11,r12,lr}				   
         00001210 0DB0A0E1	      3549 		   mov	     r11,sp						   
                  		      3550 %%SAVE  R6,kind=direct,base=R11,offset=0,atype=6				   
                  		      3551 %%SAVE  R7,kind=direct,base=R11,offset=4,atype=6				   
                  		      3552 %%SAVE  R10,kind=direct,base=R11,offset=8,atype=6				   
                  		      3553 %%SAVE  R12,kind=direct,base=R11,offset=16,atype=6				   
000000C4 00001214 C4D04DE2	      3554 		   sub	     sp,#196						   
00001400 00001218 05DB4DE2	      3555 		   sub	     sp,#5120						   
000014C4          		      3556 AS@Reservation  set	   5316		   ; stack frame total size		   
                  		      3557 %%BF	     									   
                  		      3558 %%SYM     ret,0,type=5,cls=1,reg=R6,val=0,size=4				   
                  		      3559 %%SYM     countPallete,0,type=5,cls=6,val=-4,size=4				   
                  		      3560 %%SYM     arrPallete,0,type=2,cls=6,val=-5316,size=2468			   
                  		      3561 %%DTY     									   
                  		      3562 %%DAR     1,2468								   
                  		      3563 %%ENDD    									   
                  		      3564 %%SYM     message,0,type=2,cls=6,val=-132,size=128				   


   CROSS ASSEMBLER     V10-L41   (8901)  XASS-V                                           Sat 02-Mar-2019 11:01:07      PAGE-0080
											              ARM               0102
Addr     Location Object-Code	   RE Isn  Source Statement  [ ********                       ]				    Error
  		  1 2 3 4 5 6 7 8	   ....*....1....*....2....*....3....*....4....*....5....*....6....*....7....*....8
                  		      3565 %%DTY     									   
                  		      3566 %%DAR     1,128								   
                  		      3567 %%ENDD    									   
                  		      3568 %%SYM     currentPallete,0,type=2,cls=6,val=-148,size=16			   
                  		      3569 %%DTY     									   
                  		      3570 %%DAR     1,16								   
                  		      3571 %%ENDD    									   
                  		      3572 %%SYM     sendPallete,0,type=2,cls=6,val=-2616,size=2468			   
                  		      3573 %%DTY     									   
                  		      3574 %%DAR     1,2468								   
                  		      3575 %%ENDD    									   
                  		      3576 %%SYM     checkDuplication,0,type=5,size=4,cls=6,val=0,delete 		   
                  		      3577 %%SYM     set,0,sym=89,cls=6,val=-2848,size=232				   
                  		      3578 %%SCOPE   init								   
00000000 0000121C 00C08DE2	      3579 		   adrl	     r12,sp,AS@Reservation-5316				   
000009A4 00001220 40A28DE29AAE8AE2    3580 		   adrl	     r10,sp,AS@Reservation-2848				   
00000000 00001228 0070A0E3	      3581 		   mov	     r7,#0						   
                  		      3582 %%LINE    000470								   
                  		      3583 ;Expr(471): 2468								   
                  		      3584 %%SCOPE   init								   
000014C0 0000122C 534D8DE2	      3585 		   adrl	     r4,sp,AS@Reservation-4				   
00000000 00001230 007084E5	      3586 		   str	     r7,[r4,#0]						   
                  		      3587 %%LINE    000476								   
                  		      3588 ;Expr(476): btmemset(loc,0,sizeof(loc)) 					   
00000004 00001234 0420A0E3	      3589 		   mov	     r2,#4						   
         00001238 0710A0E1	      3590 		   mov	     r1,r7						   
00001BEC 0000123C A8099FE5	      3591 		   ldr	     r0,S__loc						   
                  		      3592 %%CALL									   
00000000 00001240 000000EB	    E 3593 		   bl	     @btmemset						   
                  		      3594 %%LINE    000477								   
                  		      3595 ;Expr(477): btmemset(userId,0,sizeof(userId))   				   
0000000A 00001244 0A20A0E3	      3596 		   mov	     r2,#10						   
         00001248 0710A0E1	      3597 		   mov	     r1,r7						   
00001B90 0000124C 3C099FE5	      3598 		   ldr	     r0,S__userId					   
                  		      3599 %%CALL									   
00000000 00001250 000000EB	    E 3600 		   bl	     @btmemset						   
                  		      3601 %%LINE    000479								   
                  		      3602 ;Expr(479): MasterFind("location",loc)  					   
00001BEC 00001254 90199FE5	      3603 		   ldr	     r1,S__loc						   
00001B58 00001258 F8089FE5	      3604 		   ldr	     r0,S_S80						   
                  		      3605 %%CALL									   
00000000 0000125C 000000EB	    E 3606 		   bl	     @MasterFind					   
                  		      3607 %%LINE    000480								   
                  		      3608 ;Expr(480): MasterFind("user",userId)   					   
00001B90 00001260 28199FE5	      3609 		   ldr	     r1,S__userId					   
00001B54 00001264 E8089FE5	      3610 		   ldr	     r0,S_S81						   
                  		      3611 %%CALL									   
00000000 00001268 000000EB	    E 3612 		   bl	     @MasterFind					   
                  		      3613 %%LINE    000483								   
                  		      3614 ;Expr(483): btmemset(arrPallete,0,sizeof(arrPallete))   			   
00001B7C 0000126C 08299FE5	      3615 		   ldr	     r2,S_2468						   
         00001270 0710A0E1	      3616 		   mov	     r1,r7						   
         00001274 0C00A0E1	      3617 		   mov	     r0,r12						   
                  		      3618 %%CALL									   


   CROSS ASSEMBLER     V10-L41   (8901)  XASS-V                                           Sat 02-Mar-2019 11:01:07      PAGE-0081
											              ARM               0102
Addr     Location Object-Code	   RE Isn  Source Statement  [ ********                       ]				    Error
  		  1 2 3 4 5 6 7 8	   ....*....1....*....2....*....3....*....4....*....5....*....6....*....7....*....8
00000000 00001278 000000EB	    E 3619 		   bl	     @btmemset						   
                  		      3620 L279:									   
                  		      3621 %%LINE    000488								   
                  		      3622 ;Expr(488): btmemset(buf,0,sizeof(buf)) 					   
                  		      3623 %%SCOPE   init								   
00000200 0000127C 022CA0E3	      3624 		   mov	     r2,#512						   
         00001280 0710A0E1	      3625 		   mov	     r1,r7						   
00001BF0 00001284 64099FE5	      3626 		   ldr	     r0,S__buf						   
                  		      3627 %%CALL									   
00000000 00001288 000000EB	    E 3628 		   bl	     @btmemset						   
                  		      3629 %%LINE    000489								   
                  		      3630 ;Expr(489): btmemset(&set,0,sizeof(set))	   				   
000000E8 0000128C E820A0E3	      3631 		   mov	     r2,#232						   
         00001290 0710A0E1	      3632 		   mov	     r1,r7						   
         00001294 0A00A0E1	      3633 		   mov	     r0,r10						   
                  		      3634 %%CALL									   
00000000 00001298 000000EB	    E 3635 		   bl	     @btmemset						   
                  		      3636 %%LINE    000490								   
                  		      3637 ;Expr(490): set.mode=1  							   
00000001 0000129C 0100A0E3	      3638 		   mov	     r0,#1						   
00000000 000012A0 00008AE5	      3639 		   str	     r0,[r10,#0]					   
                  		      3640 %%LINE    000491								   
                  		      3641 ;Expr(491): set.buffer=buf	   						   
00001BF0 000012A4 44199FE5	      3642 		   ldr	     r1,S__buf						   
000000AC 000012A8 AC108AE5	      3643 		   str	     r1,[r10,#172]					   
                  		      3644 %%LINE    000492								   
                  		      3645 ;Expr(492): set.bufsize=sizeof(buf)	   					   
00000200 000012AC 022CA0E3	      3646 		   mov	     r2,#512						   
000000B0 000012B0 B0208AE5	      3647 		   str	     r2,[r10,#176]					   
                  		      3648 L280:									   
                  		      3649 ; - do -									   
                  		      3650 %%LINE    000496								   
                  		      3651 ;Expr(496): btmemset(message,0,sizeof(message)) 				   
                  		      3652 %%SCOPE   init								   
00000080 000012B4 8020A0E3	      3653 		   mov	     r2,#128						   
         000012B8 0710A0E1	      3654 		   mov	     r1,r7						   
00001440 000012BC 510D8DE2	      3655 		   adrl	     r0,sp,AS@Reservation-132				   
                  		      3656 %%CALL									   
00000000 000012C0 000000EB	    E 3657 		   bl	     @btmemset						   
                  		      3658 %%LINE    000497								   
                  		      3659 ;Expr(497): btsprintf(message,"Thu [%d]",countPallete)  			   
000014C0 000012C4 534D8DE2	      3660 		   adrl	     r4,sp,AS@Reservation-4				   
00000000 000012C8 000094E5	      3661 		   ldr	     r0,[r4,#0]						   
         000012CC 01002DE9	      3662 		   stmfd     sp!,{r0}						   
00001B68 000012D0 90189FE5	      3663 		   ldr	     r1,S_S82						   
         000012D4 02002DE9	      3664 		   stmfd     sp!,{r1}						   
00001448 000012D8 050B8DE2480080E2    3665 		   adrl	     r0,sp,AS@Reservation-132+8				   
         000012E0 01002DE9	      3666 		   stmfd     sp!,{r0}						   
                  		      3667 %%CALL									   
00000000 000012E4 000000EB	    E 3668 		   bl	     @btsprintf						   
                  		      3669 %%LINE    000499								   
                  		      3670 ;Expr(499): btstrcpy(set.title,"VNN NOK")	   				   
00000004 000012E8 04009AE2	      3671 		   adds	     r0,r10,#4						   
00001B64 000012EC 70189FE5	      3672 		   ldr	     r1,S_S83						   


   CROSS ASSEMBLER     V10-L41   (8901)  XASS-V                                           Sat 02-Mar-2019 11:01:07      PAGE-0082
											              ARM               0102
Addr     Location Object-Code	   RE Isn  Source Statement  [ ********                       ]				    Error
  		  1 2 3 4 5 6 7 8	   ....*....1....*....2....*....3....*....4....*....5....*....6....*....7....*....8
                  		      3673 %%CALL									   
00000000 000012F0 000000EB	    E 3674 		   bl	     @btstrcpy						   
                  		      3675 %%LINE    000500								   
                  		      3676 ;Expr(500): btstrcpy(set.l1,"Quet Pallete CX")  				   
00000019 000012F4 19009AE2	      3677 		   adds	     r0,r10,#25						   
00001B60 000012F8 60189FE5	      3678 		   ldr	     r1,S_S84						   
                  		      3679 %%CALL									   
00000000 000012FC 000000EB	    E 3680 		   bl	     @btstrcpy						   
                  		      3681 %%LINE    000501								   
                  		      3682 ;Expr(501): btstrcpy(set.l2,message)	   					   
0000002E 00001300 2E009AE2	      3683 		   adds	     r0,r10,#46						   
0000144C 00001304 051B8DE24C1081E2    3684 		   adrl	     r1,sp,AS@Reservation-132+12			   
                  		      3685 %%CALL									   
00000000 0000130C 000000EB	    E 3686 		   bl	     @btstrcpy						   
                  		      3687 %%LINE    000502								   
                  		      3688 ;Expr(502): btstrcpy(set.l7,"  [    R:Gui	]")	   			   
00000097 00001310 97009AE2	      3689 		   adds	     r0,r10,#151					   
00001B5C 00001314 40189FE5	      3690 		   ldr	     r1,S_S85						   
                  		      3691 %%CALL									   
00000000 00001318 000000EB	    E 3692 		   bl	     @btstrcpy						   
                  		      3693 %%LINE    000504								   
                  		      3694 ;Expr(504): ret=DataInputBt(&set)	    - if -				   
         0000131C 0A00A0E1	      3695 		   mov	     r0,r10						   
                  		      3696 %%CALL									   
00000000 00001320 000000EB	    E 3697 		   bl	     @DataInputBt					   
         00001324 0060A0E1	      3698 		   mov	     r6,r0						   
                  		      3699 %%LINE    000505								   
                  		      3700 ;Expr(505): ret 								   
                  		      3701 %%SCOPE   on,ret								   
0000000C 00001328 0CD08DE2	      3702 		   add	     sp,#12						   
00000000 0000132C 000056E3	      3703 		   cmp	     r6,#0						   
00001500 00001330 7200001A	      3704 		   bne.x     L325						   
                  		      3705 ; - endif - - if -								   
                  		      3706 %%LINE    000508								   
                  		      3707 ;Expr(508): ret==0&&btstrlen(arrPallete)>0&&btstrlen(buf)<1	   		   
                  		      3708 %%SCOPE   init,ret								   
00001358 00001334 0700001A	      3709 		   bne.x     L291						   
                  		      3710 %%SCOPE   init								   
         00001338 0C00A0E1	      3711 		   mov	     r0,r12						   
                  		      3712 %%CALL									   
00000000 0000133C 000000EB	    E 3713 		   bl	     @btstrlen						   
00000000 00001340 000050E3	      3714 		   cmp	     r0,#0						   
00001358 00001344 030000DA	      3715 		   ble.x     L291						   
                  		      3716 %%SCOPE   init								   
00001BF0 00001348 A0089FE5	      3717 		   ldr	     r0,S__buf						   
                  		      3718 %%CALL									   
00000000 0000134C 000000EB	    E 3719 		   bl	     @btstrlen						   
00000001 00001350 010050E3	      3720 		   cmp	     r0,#1						   
00001474 00001354 460000BA	      3721 		   blt.x     L319						   
                  		      3722 L291:									   
                  		      3723 %%LINE    000511								   
                  		      3724 ;Expr(511): btmemcmp(buf,"TOS1",4)	   					   
                  		      3725 %%SCOPE   init								   
00000004 00001358 0420A0E3	      3726 		   mov	     r2,#4						   


   CROSS ASSEMBLER     V10-L41   (8901)  XASS-V                                           Sat 02-Mar-2019 11:01:07      PAGE-0083
											              ARM               0102
Addr     Location Object-Code	   RE Isn  Source Statement  [ ********                       ]				    Error
  		  1 2 3 4 5 6 7 8	   ....*....1....*....2....*....3....*....4....*....5....*....6....*....7....*....8
00001B6C 0000135C 08189FE5	      3727 		   ldr	     r1,S_S86						   
00001BF0 00001360 88089FE5	      3728 		   ldr	     r0,S__buf						   
                  		      3729 %%CALL									   
00000000 00001364 000000EB	    E 3730 		   bl	     @btmemcmp						   
00000000 00001368 000050E3	      3731 		   cmp	     r0,#0						   
000012B4 0000136C D0FFFF1A	      3732 		   bne.x     L280						   
                  		      3733 %%LINE    000514								   
                  		      3734 ;Expr(514): ret=CheckDataByType(loc,buf,4)	   				   
                  		      3735 %%SCOPE   init								   
00000004 00001370 0420A0E3	      3736 		   mov	     r2,#4						   
00001BF0 00001374 74189FE5	      3737 		   ldr	     r1,S__buf						   
00001BEC 00001378 6C089FE5	      3738 		   ldr	     r0,S__loc						   
                  		      3739 %%CALL									   
00000000 0000137C 000000EB	    E 3740 		   bl	     @CheckDataByType					   
                  		      3741 %%LINE    000515								   
                  		      3742 ;Expr(515): ret 								   
0000000D 00001380 0D0050E3	      3743 		   cmp	     r0,#13						   
0000127C 00001384 BCFFFF0A	      3744 		   beq.x     L279						   
00000010 00001388 100050E3	      3745 		   cmp	     r0,#16						   
0000127C 0000138C BAFFFF0A	      3746 		   beq.x     L279						   
00000019 00001390 190050E3	      3747 		   cmp	     r0,#25						   
000013EC 00001394 1400000A	      3748 		   beq.x     L326						   
00001398 00001398 		      3749 		   b.x	     L313						   
                  		      3750 L313:									   
                  		      3751 %%LINE    000526								   
                  		      3752 ;Expr(526): btmemset(currentPallete,0,sizeof(currentPallete))   		   
                  		      3753 %%SCOPE   init								   
00000010 00001398 1020A0E3	      3754 		   mov	     r2,#16						   
         0000139C 0710A0E1	      3755 		   mov	     r1,r7						   
00001430 000013A0 0C0F8DE2050B80E2    3756 		   adrl	     r0,sp,AS@Reservation-148				   
                  		      3757 %%CALL									   
00000000 000013A8 000000EB	    E 3758 		   bl	     @btmemset						   
                  		      3759 %%LINE    000527								   
                  		      3760 ;Expr(527): btmemcpy(currentPallete,buf,sizeof(currentPallete)) 		   
00000010 000013AC 1020A0E3	      3761 		   mov	     r2,#16						   
00001BF0 000013B0 38189FE5	      3762 		   ldr	     r1,S__buf						   
00001430 000013B4 0C0F8DE2050B80E2    3763 		   adrl	     r0,sp,AS@Reservation-148				   
                  		      3764 %%CALL									   
00000000 000013BC 000000EB	    E 3765 		   bl	     @btmemcpy						   
                  		      3766 %%LINE    000530								   
                  		      3767 ;Expr(530): checkDuplication=CheckDuplicate(arrPallete,buf,4)   		   
00000004 000013C0 0420A0E3	      3768 		   mov	     r2,#4						   
00001BF0 000013C4 24189FE5	      3769 		   ldr	     r1,S__buf						   
         000013C8 0C00A0E1	      3770 		   mov	     r0,r12						   
                  		      3771 %%CALL									   
00000000 000013CC 000000EB	    E 3772 		   bl	     @CheckDuplicate					   
                  		      3773 %%LINE    000531								   
                  		      3774 ;Expr(531): checkDuplication	   						   
0000000D 000013D0 0D0050E3	      3775 		   cmp	     r0,#13						   
0000127C 000013D4 A8FFFF0A	      3776 		   beq.x     L279						   
00000010 000013D8 100050E3	      3777 		   cmp	     r0,#16						   
0000127C 000013DC A6FFFF0A	      3778 		   beq.x     L279						   
00000019 000013E0 190050E3	      3779 		   cmp	     r0,#25						   
000013EC 000013E4 0000000A	      3780 		   beq.x     L326						   


   CROSS ASSEMBLER     V10-L41   (8901)  XASS-V                                           Sat 02-Mar-2019 11:01:07      PAGE-0084
											              ARM               0102
Addr     Location Object-Code	   RE Isn  Source Statement  [ ********                       ]				    Error
  		  1 2 3 4 5 6 7 8	   ....*....1....*....2....*....3....*....4....*....5....*....6....*....7....*....8
000013F4 000013E8 010000EA	      3781 		   b.x	     L315						   
                  		      3782 L326:									   
                  		      3783 ;winch object								   
                  		      3784 ;Expr(534): - 2 								   
                  		      3785 %%SCOPE   init								   
00000001 000013EC 0100E0E3	      3786 		   mvn	     r0,#1						   
00001504 000013F0 430000EA	      3787 		   b.x	     L324						   
                  		      3788 L315:									   
                  		      3789 %%LINE    000542								   
                  		      3790 ;Expr(542): btsprintf(arrPallete,"%s%s@",arrPallete,currentPallete)	   	   
                  		      3791 %%SCOPE   init								   
00001430 000013F4 0C1F8DE2051B81E2    3792 		   adrl	     r1,sp,AS@Reservation-148				   
         000013FC 02002DE9	      3793 		   stmfd     sp!,{r1}						   
         00001400 00102DE9	      3794 		   stmfd     sp!,{r12}						   
00001B74 00001404 68079FE5	      3795 		   ldr	     r0,S_S87						   
         00001408 01002DE9	      3796 		   stmfd     sp!,{r0}						   
         0000140C 00102DE9	      3797 		   stmfd     sp!,{r12}						   
                  		      3798 %%CALL									   
00000000 00001410 000000EB	    E 3799 		   bl	     @btsprintf						   
                  		      3800 %%LINE    000544								   
                  		      3801 ;Expr(544): countPallete++	   						   
000014D0 00001414 40418DE2534D84E2    3802 		   adrl	     r4,sp,AS@Reservation-4+16				   
00000000 0000141C 000094E5	      3803 		   ldr	     r0,[r4,#0]						   
00000001 00001420 010090E2	      3804 		   adds	     r0,r0,#1						   
00000000 00001424 000084E5	      3805 		   str	     r0,[r4,#0]						   
                  		      3806 %%LINE    000546								   
                  		      3807 ;Expr(546): keyCode=StartDisplay("VNN NOK","[Reservation]","Quet Pallete tiep ",
                  		           "theo",""," ","","ENT: Hoan Thanh")	   					   
00001B70 00001428 40179FE5	      3808 		   ldr	     r1,S_S95						   
         0000142C 02002DE9	      3809 		   stmfd     sp!,{r1}						   
00000001 00001430 010041E2	      3810 		   sub	     r0,r1,#1		   ; ldr r0,S_S94		   
         00001434 01002DE9	      3811 		   stmfd     sp!,{r0}						   
00000002 00001438 022040E2	      3812 		   sub	     r2,r0,#2		   ; ldr r2,S_S93		   
         0000143C 04002DE9	      3813 		   stmfd     sp!,{r2}						   
00000004 00001440 041041E2	      3814 		   sub	     r1,r1,#4		   ; ldr r1,S_S92		   
         00001444 02002DE9	      3815 		   stmfd     sp!,{r1}						   
00000008 00001448 083040E2	      3816 		   sub	     r3,r0,#8		   ; ldr r3,S_S91		   
00000019 0000144C 192042E2	      3817 		   sub	     r2,r2,#25		   ; ldr r2,S_S90		   
00000026 00001450 261041E2	      3818 		   sub	     r1,r1,#38		   ; ldr r1,S_S89		   
00000031 00001454 310040E2	      3819 		   sub	     r0,r0,#49		   ; ldr r0,S_S88		   
                  		      3820 %%CALL									   
00000000 00001458 000000EB	    E 3821 		   bl	     @StartDisplay					   
00001BF4 0000145C 90479FE5	      3822 		   ldr	     r4,S__keyCode					   
00000000 00001460 000084E5	      3823 		   str	     r0,[r4,#0]						   
                  		      3824 %%LINE    000548								   
                  		      3825 ;Expr(548): keyCode!=(000d)	   						   
00000020 00001464 20D08DE2	      3826 		   add	     sp,#32						   
00000000 00001468 001094E5	      3827 		   ldr	     r1,[r4,#0]						   
0000000D 0000146C 0D0051E3	      3828 		   cmp	     r1,#13						   
0000127C 00001470 81FFFF1A	      3829 		   bne.x     L279						   
                  		      3830 L319:									   
                  		      3831 %%LINE    000553								   
                  		      3832 ;Expr(553): btmemset(sendPallete,0,sizeof(sendPallete)) 			   
                  		      3833 %%SCOPE   init								   


   CROSS ASSEMBLER     V10-L41   (8901)  XASS-V                                           Sat 02-Mar-2019 11:01:07      PAGE-0085
											              ARM               0102
Addr     Location Object-Code	   RE Isn  Source Statement  [ ********                       ]				    Error
  		  1 2 3 4 5 6 7 8	   ....*....1....*....2....*....3....*....4....*....5....*....6....*....7....*....8
00001B7C 00001474 00279FE5	      3834 		   ldr	     r2,S_2468						   
         00001478 0710A0E1	      3835 		   mov	     r1,r7						   
00000A8C 0000147C 30018DE22A0D80E2    3836 		   adrl	     r0,sp,AS@Reservation-2616				   
                  		      3837 %%CALL									   
00000000 00001484 000000EB	    E 3838 		   bl	     @btmemset						   
                  		      3839 %%LINE    000554								   
                  		      3840 ;Expr(554): btmemcpy(sendPallete,arrPallete,strlen(arrPallete)- 1)	   	   
         00001488 0C00A0E1	      3841 		   mov	     r0,r12						   
                  		      3842 %%CALL									   
00000000 0000148C 000000EB	    E 3843 		   bl	     @strlen						   
00000001 00001490 012050E2	      3844 		   subs	     r2,r0,#1						   
         00001494 0C10A0E1	      3845 		   mov	     r1,r12						   
00000A8C 00001498 30018DE22A0D80E2    3846 		   adrl	     r0,sp,AS@Reservation-2616				   
                  		      3847 %%CALL									   
00000000 000014A0 000000EB	    E 3848 		   bl	     @btmemcpy						   
                  		      3849 %%LINE    000556								   
                  		      3850 ;Expr(556): btmemset(send,0,sizeof(send))	   				   
00005000 000014A4 052AA0E3	      3851 		   mov	     r2,#20480						   
         000014A8 0710A0E1	      3852 		   mov	     r1,r7						   
00001B2C 000014AC 78069FE5	      3853 		   ldr	     r0,S__send						   
                  		      3854 %%CALL									   
00000000 000014B0 000000EB	    E 3855 		   bl	     @btmemset						   
                  		      3856 %%LINE    000558								   
                  		      3857 ;Expr(558): MakeDataToSend("M304","",sendPallete,send)  			   
00001B2C 000014B4 70369FE5	      3858 		   ldr	     r3,S__send						   
00000A8C 000014B8 30218DE22A2D82E2    3859 		   adrl	     r2,sp,AS@Reservation-2616				   
00001B78 000014C0 B0169FE5	      3860 		   ldr	     r1,S_S97						   
00000005 000014C4 050041E2	      3861 		   sub	     r0,r1,#5		   ; ldr r0,S_S96		   
                  		      3862 %%CALL									   
00000000 000014C8 000000EB	    E 3863 		   bl	     @MakeDataToSend					   
                  		      3864 %%LINE    000560								   
                  		      3865 ;Expr(560): ret=DataSend(send,btstrlen(send),rcv,sizeof(rcv),(0))	    - if - 
00000000 000014CC 0000A0E3	      3866 		   mov	     r0,#0						   
         000014D0 01002DE9	      3867 		   stmfd     sp!,{r0}						   
00001B2C 000014D4 50069FE5	      3868 		   ldr	     r0,S__send						   
                  		      3869 %%CALL									   
00000000 000014D8 000000EB	    E 3870 		   bl	     @btstrlen						   
         000014DC 0060A0E1	      3871 		   mov	     r6,r0						   
00005000 000014E0 053AA0E3	      3872 		   mov	     r3,#20480						   
00001B24 000014E4 38269FE5	      3873 		   ldr	     r2,S__rcv						   
         000014E8 0610A0E1	      3874 		   mov	     r1,r6						   
00001B2C 000014EC 38069FE5	      3875 		   ldr	     r0,S__send						   
                  		      3876 %%CALL									   
00000000 000014F0 000000EB	    E 3877 		   bl	     @DataSend						   
                  		      3878 %%LINE    000562								   
                  		      3879 ;Expr(562): ret==1	   							   
00000004 000014F4 04D08DE2	      3880 		   add	     sp,#4						   
00000001 000014F8 010050E3	      3881 		   cmp	     r0,#1						   
00001504 000014FC 0000001A	      3882 		   bne.x     L324						   
                  		      3883 L325:									   
                  		      3884 ;winch object								   
                  		      3885 ;Expr(563): - 1 								   
                  		      3886 %%SCOPE   init								   
00000000 00001500 0000E0E3	      3887 		   mvn	     r0,#0						   


   CROSS ASSEMBLER     V10-L41   (8901)  XASS-V                                           Sat 02-Mar-2019 11:01:07      PAGE-0086
											              ARM               0102
Addr     Location Object-Code	   RE Isn  Source Statement  [ ********                       ]				    Error
  		  1 2 3 4 5 6 7 8	   ....*....1....*....2....*....3....*....4....*....5....*....6....*....7....*....8
                  		      3888 L324:									   
                  		      3889 ; RET									   
                  		      3890 %%LINE    000565								   
                  		      3891 %%SCOPE init									   
                  		      3892 %%EF	     									   
000000C4 00001504 C4D08DE2	      3893 		   add	     sp,#196						   
00001400 00001508 05DB8DE2	      3894 		   add	     sp,#5120						   
                  		      3895 %%RESTORE	   R6								   
                  		      3896 %%RESTORE	   R7								   
                  		      3897 %%RESTORE	   R10								   
                  		      3898 %%RESTORE	   R12								   
                  		      3899 %%RETURN									   
         0000150C C09CBDE8	      3900 		   ldmfd     sp!,{r6,r7,r10,r11,r12,pc}				   
         00001510 		      3901 		   bnd	     4							   
                  		      3902 %%FEND    									   
                  		      3903 ;	   countPallete -> offset -4	    int					   
                  		      3904 ;	   ret -> regid  7  int							   
                  		      3905 ;	   message -> offset -132   array					   
                  		      3906 ;	   currentPallete -> offset -148    array				   
                  		      3907 ;	   sendPallete -> offset -2616	    array				   
                  		      3908 ;	   set -> offset -2848	    struct					   
                  		      3909 ;	   arrPallete -> offset -5316	    array				   
                  		      3910 %%LINE    000578								   
                  		      3911 %%FUNC    ArrangeBoxToPallet,3,cls=2,type=5,ftype=1				   
                  		      3912 %%RVALUE  kind=direct,register=R0,atype=2					   
                  		      3913 @ArrangeBoxToPallet: ;entry							   
         00001510 C05C2DE9	      3914 		   stmfd     sp!,{r6,r7,r10,r11,r12,lr}				   
         00001514 0DB0A0E1	      3915 		   mov	     r11,sp						   
                  		      3916 %%SAVE  R6,kind=direct,base=R11,offset=0,atype=6				   
                  		      3917 %%SAVE  R7,kind=direct,base=R11,offset=4,atype=6				   
                  		      3918 %%SAVE  R10,kind=direct,base=R11,offset=8,atype=6				   
                  		      3919 %%SAVE  R12,kind=direct,base=R11,offset=16,atype=6				   
00000000          		      3920 AS@ArrangeBoxToPallet   set	   0		   ; stack frame total size	   
                  		      3921 %%BF	     									   
                  		      3922 %%LINE    000579								   
                  		      3923 ;Expr(579): btmemset(loc,0,sizeof(loc)) 					   
                  		      3924 %%SCOPE   init								   
00000004 00001518 0420A0E3	      3925 		   mov	     r2,#4						   
00000000 0000151C 0010A0E3	      3926 		   mov	     r1,#0						   
00001BEC 00001520 C4069FE5	      3927 		   ldr	     r0,S__loc						   
                  		      3928 %%CALL									   
00000000 00001524 000000EB	    E 3929 		   bl	     @btmemset						   
                  		      3930 %%LINE    000580								   
                  		      3931 ;Expr(580): btmemset(userId,0,sizeof(userId))   				   
0000000A 00001528 0A20A0E3	      3932 		   mov	     r2,#10						   
00000000 0000152C 0010A0E3	      3933 		   mov	     r1,#0						   
00001B90 00001530 58069FE5	      3934 		   ldr	     r0,S__userId					   
                  		      3935 %%CALL									   
00000000 00001534 000000EB	    E 3936 		   bl	     @btmemset						   
                  		      3937 %%LINE    000582								   
                  		      3938 ;Expr(582): MasterFind("location",loc)  					   
00001BEC 00001538 AC169FE5	      3939 		   ldr	     r1,S__loc						   
00001B8C 0000153C 48069FE5	      3940 		   ldr	     r0,S_S98						   
                  		      3941 %%CALL									   


   CROSS ASSEMBLER     V10-L41   (8901)  XASS-V                                           Sat 02-Mar-2019 11:01:07      PAGE-0087
											              ARM               0102
Addr     Location Object-Code	   RE Isn  Source Statement  [ ********                       ]				    Error
  		  1 2 3 4 5 6 7 8	   ....*....1....*....2....*....3....*....4....*....5....*....6....*....7....*....8
00000000 00001540 000000EB	    E 3942 		   bl	     @MasterFind					   
                  		      3943 %%LINE    000583								   
                  		      3944 ;Expr(583): MasterFind("user",userId)    - if -				   
00001B90 00001544 44169FE5	      3945 		   ldr	     r1,S__userId					   
00001B88 00001548 38069FE5	      3946 		   ldr	     r0,S_S99						   
                  		      3947 %%CALL									   
00000000 0000154C 000000EB	    E 3948 		   bl	     @MasterFind					   
                  		      3949 %%LINE    000585								   
                  		      3950 ;Expr(585): !btmemcmp(loc,"OS1",btstrlen("OS1"))	   			   
00001B84 00001550 2C069FE5	      3951 		   ldr	     r0,S_S101						   
                  		      3952 %%CALL									   
00000000 00001554 000000EB	    E 3953 		   bl	     @btstrlen						   
         00001558 0020A0E1	      3954 		   mov	     r2,r0						   
00001B80 0000155C 1C169FE5	      3955 		   ldr	     r1,S_S100						   
00001BEC 00001560 84069FE5	      3956 		   ldr	     r0,S__loc						   
                  		      3957 %%CALL									   
00000000 00001564 000000EB	    E 3958 		   bl	     @btmemcmp						   
00000000 00001568 000050E3	      3959 		   cmp	     r0,#0						   
00001578 0000156C 0100001A	      3960 		   bne.x     L332						   
                  		      3961 ; - then -									   
                  		      3962 %%LINE    000587								   
                  		      3963 ;Expr(587): ArrangeToPalletOS() 						   
                  		      3964 %%SCOPE   init								   
                  		      3965 %%CALL									   
000015B8 00001570 100000EB	      3966 		   bl	     @ArrangeToPalletOS					   
000015B4 00001574 0E0000EA	      3967 		   b.x	     L337						   
                  		      3968 L332:									   
                  		      3969 ; - else - - if -								   
                  		      3970 %%LINE    000589								   
                  		      3971 ;Expr(589): !btmemcmp(loc,"OR1",btstrlen("OR1"))	   			   
                  		      3972 %%SCOPE   init								   
00001B98 00001578 18069FE5	      3973 		   ldr	     r0,S_S103						   
                  		      3974 %%CALL									   
00000000 0000157C 000000EB	    E 3975 		   bl	     @btstrlen						   
         00001580 0020A0E1	      3976 		   mov	     r2,r0						   
00001B94 00001584 08169FE5	      3977 		   ldr	     r1,S_S102						   
00001BEC 00001588 5C069FE5	      3978 		   ldr	     r0,S__loc						   
                  		      3979 %%CALL									   
00000000 0000158C 000000EB	    E 3980 		   bl	     @btmemcmp						   
00000000 00001590 000050E3	      3981 		   cmp	     r0,#0						   
000015A0 00001594 0100001A	      3982 		   bne.x     L335						   
                  		      3983 ; - then -									   
                  		      3984 %%LINE    000591								   
                  		      3985 ;Expr(591): ArrangeToPalletOR() 						   
                  		      3986 %%SCOPE   init								   
                  		      3987 %%CALL									   
000019AC 00001598 030100EB	      3988 		   bl	     @ArrangeToPalletOR					   
000015B4 0000159C 040000EA	      3989 		   b.x	     L337						   
                  		      3990 L335:									   
                  		      3991 ; - else -									   
                  		      3992 %%LINE    000595								   
                  		      3993 ;Expr(595): btMessageBoxEx("This function doesn't exists!!!",(000001),"Command D
                  		           ist.",((24)))   								   
                  		      3994 %%SCOPE   init								   


   CROSS ASSEMBLER     V10-L41   (8901)  XASS-V                                           Sat 02-Mar-2019 11:01:07      PAGE-0088
											              ARM               0102
Addr     Location Object-Code	   RE Isn  Source Statement  [ ********                       ]				    Error
  		  1 2 3 4 5 6 7 8	   ....*....1....*....2....*....3....*....4....*....5....*....6....*....7....*....8
00000018 000015A0 1830A0E3	      3995 		   mov	     r3,#24						   
00001B9C 000015A4 F0259FE5	      3996 		   ldr	     r2,S_S105						   
00000001 000015A8 0110A0E3	      3997 		   mov	     r1,#1						   
00000020 000015AC 200042E2	      3998 		   sub	     r0,r2,#32		   ; ldr r0,S_S104		   
                  		      3999 %%CALL									   
00000000 000015B0 000000EB	    E 4000 		   bl	     @btMessageBoxEx					   
                  		      4001 L337:									   
                  		      4002 ; - endif -									   
                  		      4003 %%LINE    000599								   
                  		      4004 %%SCOPE init									   
                  		      4005 %%EF	     									   
                  		      4006 %%RESTORE	   R6								   
                  		      4007 %%RESTORE	   R7								   
                  		      4008 %%RESTORE	   R10								   
                  		      4009 %%RESTORE	   R12								   
                  		      4010 %%RETURN									   
         000015B4 C09CBDE8	      4011 		   ldmfd     sp!,{r6,r7,r10,r11,r12,pc}				   
         000015B8 		      4012 		   bnd	     4							   
                  		      4013 %%FEND    									   
                  		      4014 %%LINE    000602								   
                  		      4015 %%FUNC    ArrangeToPalletOS,3,cls=2,type=5,ftype=1				   
                  		      4016 %%RVALUE  kind=direct,register=R0,atype=2					   
                  		      4017 @ArrangeToPalletOS: ;entry							   
         000015B8 C05C2DE9	      4018 		   stmfd     sp!,{r6,r7,r10,r11,r12,lr}				   
         000015BC 0DB0A0E1	      4019 		   mov	     r11,sp						   
                  		      4020 %%SAVE  R6,kind=direct,base=R11,offset=0,atype=6				   
                  		      4021 %%SAVE  R7,kind=direct,base=R11,offset=4,atype=6				   
                  		      4022 %%SAVE  R10,kind=direct,base=R11,offset=8,atype=6				   
                  		      4023 %%SAVE  R12,kind=direct,base=R11,offset=16,atype=6				   
00000108 000015C0 42DF4DE2	      4024 		   sub	     sp,#264						   
00005000 000015C4 05DA4DE2	      4025 		   sub	     sp,#20480						   
00005108          		      4026 AS@ArrangeToPalletOS	   set	   20744	   ; stack frame total size	   
                  		      4027 %%BF	     									   
                  		      4028 %%SYM     ret,0,type=5,cls=1,reg=R6,val=0,size=4				   
                  		      4029 %%SYM     pallete,0,type=2,cls=6,val=-10272,size=15				   
                  		      4030 %%DTY     									   
                  		      4031 %%DAR     1,15								   
                  		      4032 %%ENDD    									   
                  		      4033 %%SYM     dataSend,0,type=2,cls=6,val=-20512,size=10240			   
                  		      4034 %%DTY     									   
                  		      4035 %%DAR     1,10240								   
                  		      4036 %%ENDD    									   
                  		      4037 %%SYM     boxes,0,type=2,cls=6,val=-10256,size=10240				   
                  		      4038 %%DTY     									   
                  		      4039 %%DAR     1,10240								   
                  		      4040 %%ENDD    									   
                  		      4041 %%SYM     totalBox,0,type=5,cls=1,reg=R12,val=0,size=4			   
                  		      4042 %%SYM     boxNo,0,type=2,cls=6,val=-16,size=14				   
                  		      4043 %%DTY     									   
                  		      4044 %%DAR     1,14								   
                  		      4045 %%ENDD    									   
                  		      4046 %%SYM     set,0,sym=89,cls=6,val=-20744,size=232				   
                  		      4047 %%SCOPE   init								   
00000000 000015C8 00A0A0E3	      4048 		   mov	     r10,#0						   


   CROSS ASSEMBLER     V10-L41   (8901)  XASS-V                                           Sat 02-Mar-2019 11:01:07      PAGE-0089
											              ARM               0102
Addr     Location Object-Code	   RE Isn  Source Statement  [ ********                       ]				    Error
  		  1 2 3 4 5 6 7 8	   ....*....1....*....2....*....3....*....4....*....5....*....6....*....7....*....8
00000000 000015CC 00708DE2	      4049 		   adrl	     r7,sp,AS@ArrangeToPalletOS-20744			   
                  		      4050 ;Expr(605): 10240								   
                  		      4051 %%LINE    000606								   
                  		      4052 ;Expr(607): 12+ 2								   
                  		      4053 %%SCOPE   init								   
00000000 000015D0 00C0A0E3	      4054 		   mov	     r12,#0						   
                  		      4055 %%LINE    000611								   
                  		      4056 ;Expr(611): btmemset(boxNo,0,sizeof(boxNo))	   				   
                  		      4057 %%SCOPE   on,totalBox							   
0000000E 000015D4 0E20A0E3	      4058 		   mov	     r2,#14						   
         000015D8 0A10A0E1	      4059 		   mov	     r1,r10						   
000050F8 000015DC 050A8DE2F80080E2    4060 		   adrl	     r0,sp,AS@ArrangeToPalletOS-16			   
                  		      4061 %%CALL									   
00000000 000015E4 000000EB	    E 4062 		   bl	     @btmemset						   
                  		      4063 %%LINE    000612								   
                  		      4064 ;Expr(612): btmemset(buf,0,sizeof(buf)) 					   
00000200 000015E8 022CA0E3	      4065 		   mov	     r2,#512						   
         000015EC 0A10A0E1	      4066 		   mov	     r1,r10						   
00001BF0 000015F0 F8059FE5	      4067 		   ldr	     r0,S__buf						   
                  		      4068 %%CALL									   
00000000 000015F4 000000EB	    E 4069 		   bl	     @btmemset						   
                  		      4070 %%LINE    000613								   
                  		      4071 ;Expr(613): btmemset(&set,0,sizeof(set))	   				   
000000E8 000015F8 E820A0E3	      4072 		   mov	     r2,#232						   
         000015FC 0A10A0E1	      4073 		   mov	     r1,r10						   
         00001600 0700A0E1	      4074 		   mov	     r0,r7						   
                  		      4075 %%CALL									   
00000000 00001604 000000EB	    E 4076 		   bl	     @btmemset						   
                  		      4077 %%LINE    000614								   
                  		      4078 ;Expr(614): set.mode=1  							   
00000001 00001608 0100A0E3	      4079 		   mov	     r0,#1						   
00000000 0000160C 000087E5	      4080 		   str	     r0,[r7,#0]						   
                  		      4081 %%LINE    000615								   
                  		      4082 ;Expr(615): set.buffer=buf	   						   
00001BF0 00001610 D8159FE5	      4083 		   ldr	     r1,S__buf						   
000000AC 00001614 AC1087E5	      4084 		   str	     r1,[r7,#172]					   
                  		      4085 %%LINE    000616								   
                  		      4086 ;Expr(616): set.bufsize=sizeof(buf)	   					   
00000200 00001618 022CA0E3	      4087 		   mov	     r2,#512						   
000000B0 0000161C B02087E5	      4088 		   str	     r2,[r7,#176]					   
                  		      4089 %%LINE    000618								   
                  		      4090 ;Expr(618): btstrcpy(set.title,"VNN NOK")	   				   
00000004 00001620 040097E2	      4091 		   adds	     r0,r7,#4						   
00001BA8 00001624 7C159FE5	      4092 		   ldr	     r1,S_S106						   
                  		      4093 %%CALL									   
00000000 00001628 000000EB	    E 4094 		   bl	     @btstrcpy						   
                  		      4095 %%LINE    000619								   
                  		      4096 ;Expr(619): btstrcpy(set.l1,"Pallete Can Chuyen")	   			   
00000019 0000162C 190097E2	      4097 		   adds	     r0,r7,#25						   
00001BA4 00001630 6C159FE5	      4098 		   ldr	     r1,S_S107						   
                  		      4099 %%CALL									   
00000000 00001634 000000EB	    E 4100 		   bl	     @btstrcpy						   
                  		      4101 %%LINE    000620								   
                  		      4102 ;Expr(620): btstrcpy(set.l2,"") 						   


   CROSS ASSEMBLER     V10-L41   (8901)  XASS-V                                           Sat 02-Mar-2019 11:01:07      PAGE-0090
											              ARM               0102
Addr     Location Object-Code	   RE Isn  Source Statement  [ ********                       ]				    Error
  		  1 2 3 4 5 6 7 8	   ....*....1....*....2....*....3....*....4....*....5....*....6....*....7....*....8
0000002E 00001638 2E0097E2	      4103 		   adds	     r0,r7,#46						   
00001BA0 0000163C 5C159FE5	      4104 		   ldr	     r1,S_S108						   
                  		      4105 %%CALL									   
00000000 00001640 000000EB	    E 4106 		   bl	     @btstrcpy						   
                  		      4107 L342:									   
                  		      4108 ; - do -									   
                  		      4109 %%LINE    000623								   
                  		      4110 ;Expr(623): btmemset(buf,0,sizeof(buf)) 					   
                  		      4111 %%SCOPE   init,totalBox							   
00000200 00001644 022CA0E3	      4112 		   mov	     r2,#512						   
         00001648 0A10A0E1	      4113 		   mov	     r1,r10						   
00001BF0 0000164C 9C059FE5	      4114 		   ldr	     r0,S__buf						   
                  		      4115 %%CALL									   
00000000 00001650 000000EB	    E 4116 		   bl	     @btmemset						   
                  		      4117 %%LINE    000624								   
                  		      4118 ;Expr(624): ret=DataInputBt(&set)	    - if -				   
         00001654 0700A0E1	      4119 		   mov	     r0,r7						   
                  		      4120 %%CALL									   
00000000 00001658 000000EB	    E 4121 		   bl	     @DataInputBt					   
                  		      4122 %%LINE    000625								   
                  		      4123 ;Expr(625): ret 								   
00000000 0000165C 000050E3	      4124 		   cmp	     r0,#0						   
0000199C 00001660 CD00001A	      4125 		   bne.x     L401						   
                  		      4126 ; - endif -									   
                  		      4127 %%LINE    000627								   
                  		      4128 ;Expr(627): ret=CheckDataByType(loc,buf,2)	    - if -			   
                  		      4129 %%SCOPE   init,totalBox							   
00000002 00001664 0220A0E3	      4130 		   mov	     r2,#2						   
00001BF0 00001668 80159FE5	      4131 		   ldr	     r1,S__buf						   
00001BEC 0000166C 78059FE5	      4132 		   ldr	     r0,S__loc						   
                  		      4133 %%CALL									   
00000000 00001670 000000EB	    E 4134 		   bl	     @CheckDataByType					   
         00001674 0060A0E1	      4135 		   mov	     r6,r0						   
                  		      4136 %%LINE    000629								   
                  		      4137 ;Expr(629): ret==(0019) 							   
                  		      4138 %%SCOPE   on,ret								   
00000019 00001678 190056E3	      4139 		   cmp	     r6,#25						   
00001910 0000167C A300000A	      4140 		   beq.x     L402						   
                  		      4141 %%LINE    000631								   
                  		      4142 ;Expr(631): ret!=0	   							   
                  		      4143 %%SCOPE   init,totalBox,ret							   
00000000 00001680 000056E3	      4144 		   cmp	     r6,#0						   
00001644 00001684 EEFFFF1A	      4145 		   bne.x     L342						   
                  		      4146 %%LINE    000633								   
                  		      4147 ;Expr(633): btmemset(boxes,0,sizeof(boxes))	   				   
                  		      4148 %%SCOPE   init,totalBox							   
00002800 00001688 0A2BA0E3	      4149 		   mov	     r2,#10240						   
         0000168C 0A10A0E1	      4150 		   mov	     r1,r10						   
000028F8 00001690 0A0B8DE2F80080E2    4151 		   adrl	     r0,sp,AS@ArrangeToPalletOS-10256			   
                  		      4152 %%CALL									   
00000000 00001698 000000EB	    E 4153 		   bl	     @btmemset						   
                  		      4154 %%LINE    000634								   
                  		      4155 ;Expr(634): btmemset(pallete,0,sizeof(pallete)) 				   
0000000F 0000169C 0F20A0E3	      4156 		   mov	     r2,#15						   


   CROSS ASSEMBLER     V10-L41   (8901)  XASS-V                                           Sat 02-Mar-2019 11:01:07      PAGE-0091
											              ARM               0102
Addr     Location Object-Code	   RE Isn  Source Statement  [ ********                       ]				    Error
  		  1 2 3 4 5 6 7 8	   ....*....1....*....2....*....3....*....4....*....5....*....6....*....7....*....8
         000016A0 0A10A0E1	      4157 		   mov	     r1,r10						   
000028E8 000016A4 0A0B8DE2E80080E2    4158 		   adrl	     r0,sp,AS@ArrangeToPalletOS-10272			   
                  		      4159 %%CALL									   
00000000 000016AC 000000EB	    E 4160 		   bl	     @btmemset						   
                  		      4161 %%LINE    000635								   
                  		      4162 ;Expr(635): btmemcpy(pallete,buf,btstrlen(buf)) 				   
00001BF0 000016B0 38059FE5	      4163 		   ldr	     r0,S__buf						   
                  		      4164 %%CALL									   
00000000 000016B4 000000EB	    E 4165 		   bl	     @btstrlen						   
         000016B8 0020A0E1	      4166 		   mov	     r2,r0						   
00001BF0 000016BC 2C159FE5	      4167 		   ldr	     r1,S__buf						   
000028E8 000016C0 0A0B8DE2E80080E2    4168 		   adrl	     r0,sp,AS@ArrangeToPalletOS-10272			   
                  		      4169 %%CALL									   
00000000 000016C8 000000EB	    E 4170 		   bl	     @btmemcpy						   
                  		      4171 %%LINE    000637								   
                  		      4172 ;Expr(637): btsprintf(dataSend,"%s",pallete)	   				   
000028E8 000016CC 0A0B8DE2E80080E2    4173 		   adrl	     r0,sp,AS@ArrangeToPalletOS-10272			   
         000016D4 01002DE9	      4174 		   stmfd     sp!,{r0}						   
00001BB0 000016D8 D0149FE5	      4175 		   ldr	     r1,S_S109						   
         000016DC 02002DE9	      4176 		   stmfd     sp!,{r1}						   
000000F0 000016E0 F0208DE2	      4177 		   adrl	     r2,sp,AS@ArrangeToPalletOS-20512+8			   
         000016E4 04002DE9	      4178 		   stmfd     sp!,{r2}						   
                  		      4179 %%CALL									   
00000000 000016E8 000000EB	    E 4180 		   bl	     @btsprintf						   
                  		      4181 %%LINE    000638								   
                  		      4182 ;Expr(638): MakeDataToSend("M302","S01",dataSend,send)  			   
00001B2C 000016EC 38349FE5	      4183 		   ldr	     r3,S__send						   
000000F4 000016F0 F4208DE2	      4184 		   adrl	     r2,sp,AS@ArrangeToPalletOS-20512+12		   
00001BAC 000016F4 B0149FE5	      4185 		   ldr	     r1,S_S111						   
00000005 000016F8 050041E2	      4186 		   sub	     r0,r1,#5		   ; ldr r0,S_S110		   
                  		      4187 %%CALL									   
00000000 000016FC 000000EB	    E 4188 		   bl	     @MakeDataToSend					   
                  		      4189 %%LINE    000639								   
                  		      4190 ;Expr(639): ret=DataSend(send,btstrlen(send),rcv,sizeof(rcv),(0))	    - if - 
00000000 00001700 0000A0E3	      4191 		   mov	     r0,#0						   
         00001704 01002DE9	      4192 		   stmfd     sp!,{r0}						   
00001B2C 00001708 1C049FE5	      4193 		   ldr	     r0,S__send						   
                  		      4194 %%CALL									   
00000000 0000170C 000000EB	    E 4195 		   bl	     @btstrlen						   
         00001710 0060A0E1	      4196 		   mov	     r6,r0						   
00005000 00001714 053AA0E3	      4197 		   mov	     r3,#20480						   
00001B24 00001718 04249FE5	      4198 		   ldr	     r2,S__rcv						   
         0000171C 0610A0E1	      4199 		   mov	     r1,r6						   
00001B2C 00001720 04049FE5	      4200 		   ldr	     r0,S__send						   
                  		      4201 %%CALL									   
00000000 00001724 000000EB	    E 4202 		   bl	     @DataSend						   
                  		      4203 %%LINE    000640								   
                  		      4204 ;Expr(640): ret==1	   							   
00000010 00001728 10D08DE2	      4205 		   add	     sp,#16						   
00000001 0000172C 010050E3	      4206 		   cmp	     r0,#1						   
0000199C 00001730 9900000A	      4207 		   beq.x     L401						   
                  		      4208 %%LINE    000644								   
                  		      4209 ;Expr(644): btmemset(&set,0,sizeof(set))	   				   
                  		      4210 %%SCOPE   init,totalBox							   


   CROSS ASSEMBLER     V10-L41   (8901)  XASS-V                                           Sat 02-Mar-2019 11:01:07      PAGE-0092
											              ARM               0102
Addr     Location Object-Code	   RE Isn  Source Statement  [ ********                       ]				    Error
  		  1 2 3 4 5 6 7 8	   ....*....1....*....2....*....3....*....4....*....5....*....6....*....7....*....8
000000E8 00001734 E820A0E3	      4211 		   mov	     r2,#232						   
         00001738 0A10A0E1	      4212 		   mov	     r1,r10						   
         0000173C 0700A0E1	      4213 		   mov	     r0,r7						   
                  		      4214 %%CALL									   
00000000 00001740 000000EB	    E 4215 		   bl	     @btmemset						   
                  		      4216 %%LINE    000645								   
                  		      4217 ;Expr(645): set.mode=1  							   
00000001 00001744 0100A0E3	      4218 		   mov	     r0,#1						   
00000000 00001748 000087E5	      4219 		   str	     r0,[r7,#0]						   
                  		      4220 %%LINE    000646								   
                  		      4221 ;Expr(646): set.buffer=buf	   						   
00001BF0 0000174C 9C149FE5	      4222 		   ldr	     r1,S__buf						   
000000AC 00001750 AC1087E5	      4223 		   str	     r1,[r7,#172]					   
                  		      4224 %%LINE    000647								   
                  		      4225 ;Expr(647): set.bufsize=sizeof(buf)	   					   
00000200 00001754 022CA0E3	      4226 		   mov	     r2,#512						   
000000B0 00001758 B02087E5	      4227 		   str	     r2,[r7,#176]					   
                  		      4228 %%LINE    000648								   
                  		      4229 ;Expr(648): btstrcpy(set.l1,"Quet Box sap xep") 				   
00000019 0000175C 190097E2	      4230 		   adds	     r0,r7,#25						   
00001BBC 00001760 54149FE5	      4231 		   ldr	     r1,S_S112						   
                  		      4232 %%CALL									   
00000000 00001764 000000EB	    E 4233 		   bl	     @btstrcpy						   
                  		      4234 %%LINE    000649								   
                  		      4235 ;Expr(649): btstrcpy(set.l2,"") 						   
0000002E 00001768 2E0097E2	      4236 		   adds	     r0,r7,#46						   
00001BB8 0000176C 44149FE5	      4237 		   ldr	     r1,S_S113						   
                  		      4238 %%CALL									   
00000000 00001770 000000EB	    E 4239 		   bl	     @btstrcpy						   
                  		      4240 %%LINE    000650								   
                  		      4241 ;Expr(650): btstrcpy(set.l3,"") 						   
00000043 00001774 430097E2	      4242 		   adds	     r0,r7,#67						   
00001BB4 00001778 34149FE5	      4243 		   ldr	     r1,S_S114						   
                  		      4244 %%CALL									   
00000000 0000177C 000000EB	    E 4245 		   bl	     @btstrcpy						   
                  		      4246 %%LINE    000651								   
                  		      4247 ;Expr(651): btstrcpy(set.l4,msg)	   					   
00000058 00001780 580097E2	      4248 		   adds	     r0,r7,#88						   
00001BE8 00001784 5C149FE5	      4249 		   ldr	     r1,S__msg						   
                  		      4250 %%CALL									   
00000000 00001788 000000EB	    E 4251 		   bl	     @btstrcpy						   
                  		      4252 L360:									   
                  		      4253 ; - do -									   
                  		      4254 %%LINE    000654								   
                  		      4255 ;Expr(654): btsprintf(msg,"Tong so Box: %ld",totalBox)  			   
                  		      4256 %%SCOPE   init,totalBox							   
         0000178C 00102DE9	      4257 		   stmfd     sp!,{r12}						   
00001BC0 00001790 28049FE5	      4258 		   ldr	     r0,S_S115						   
         00001794 01002DE9	      4259 		   stmfd     sp!,{r0}						   
00001BE8 00001798 48149FE5	      4260 		   ldr	     r1,S__msg						   
         0000179C 02002DE9	      4261 		   stmfd     sp!,{r1}						   
                  		      4262 %%CALL									   
00000000 000017A0 000000EB	    E 4263 		   bl	     @btsprintf						   
                  		      4264 %%LINE    000655								   


   CROSS ASSEMBLER     V10-L41   (8901)  XASS-V                                           Sat 02-Mar-2019 11:01:07      PAGE-0093
											              ARM               0102
Addr     Location Object-Code	   RE Isn  Source Statement  [ ********                       ]				    Error
  		  1 2 3 4 5 6 7 8	   ....*....1....*....2....*....3....*....4....*....5....*....6....*....7....*....8
                  		      4265 ;Expr(655): btstrcpy(set.l4,msg)	   					   
00000058 000017A4 580097E2	      4266 		   adds	     r0,r7,#88						   
00001BE8 000017A8 38149FE5	      4267 		   ldr	     r1,S__msg						   
                  		      4268 %%CALL									   
00000000 000017AC 000000EB	    E 4269 		   bl	     @btstrcpy						   
                  		      4270 %%LINE    000656								   
                  		      4271 ;Expr(656): btmemset(buf,0,sizeof(buf)) 					   
00000200 000017B0 022CA0E3	      4272 		   mov	     r2,#512						   
         000017B4 0A10A0E1	      4273 		   mov	     r1,r10						   
00001BF0 000017B8 30049FE5	      4274 		   ldr	     r0,S__buf						   
                  		      4275 %%CALL									   
00000000 000017BC 000000EB	    E 4276 		   bl	     @btmemset						   
                  		      4277 %%LINE    000657								   
                  		      4278 ;Expr(657): ret=DataInputBt(&set)	    - if -				   
         000017C0 0700A0E1	      4279 		   mov	     r0,r7						   
                  		      4280 %%CALL									   
00000000 000017C4 000000EB	    E 4281 		   bl	     @DataInputBt					   
                  		      4282 %%LINE    000658								   
                  		      4283 ;Expr(658): ret 								   
0000000C 000017C8 0CD08DE2	      4284 		   add	     sp,#12						   
00000000 000017CC 000050E3	      4285 		   cmp	     r0,#0						   
0000199C 000017D0 7100001A	      4286 		   bne.x     L401						   
                  		      4287 %%LINE    000660								   
                  		      4288 ;Expr(660): GetBoxNoFromString(buf,boxNo)	   				   
                  		      4289 %%SCOPE   init,totalBox							   
000050F8 000017D4 051A8DE2F81081E2    4290 		   adrl	     r1,sp,AS@ArrangeToPalletOS-16			   
00001BF0 000017DC 0C049FE5	      4291 		   ldr	     r0,S__buf						   
                  		      4292 %%CALL									   
00000000 000017E0 000000EB	    E 4293 		   bl	     @GetBoxNoFromString				   
                  		      4294 %%LINE    000661								   
                  		      4295 ;Expr(661): ret=CheckDataByType(loc,boxNo,3)	   				   
00000003 000017E4 0320A0E3	      4296 		   mov	     r2,#3						   
000050F8 000017E8 051A8DE2F81081E2    4297 		   adrl	     r1,sp,AS@ArrangeToPalletOS-16			   
00001BEC 000017F0 F4039FE5	      4298 		   ldr	     r0,S__loc						   
                  		      4299 %%CALL									   
00000000 000017F4 000000EB	    E 4300 		   bl	     @CheckDataByType					   
                  		      4301 %%LINE    000663								   
                  		      4302 ;Expr(663): ret 								   
0000000D 000017F8 0D0050E3	      4303 		   cmp	     r0,#13						   
00001918 000017FC 4500000A	      4304 		   beq.x     L392						   
00000010 00001800 100050E3	      4305 		   cmp	     r0,#16						   
00001918 00001804 4300000A	      4306 		   beq.x     L392						   
00000019 00001808 190050E3	      4307 		   cmp	     r0,#25						   
00001910 0000180C 3F00000A	      4308 		   beq.x     L402						   
00001810 00001810 		      4309 		   b.x	     L374						   
                  		      4310 L374:									   
                  		      4311 %%LINE    000673								   
                  		      4312 ;Expr(673): keyCode=0    - if -						   
                  		      4313 %%SCOPE   init,totalBox							   
00000000 00001810 0010A0E3	      4314 		   mov	     r1,#0						   
00001BF4 00001814 D8439FE5	      4315 		   ldr	     r4,S__keyCode					   
00000000 00001818 001084E5	      4316 		   str	     r1,[r4,#0]						   
                  		      4317 %%LINE    000675								   
                  		      4318 ;Expr(675): btstrlen(boxes)>0   						   


   CROSS ASSEMBLER     V10-L41   (8901)  XASS-V                                           Sat 02-Mar-2019 11:01:07      PAGE-0094
											              ARM               0102
Addr     Location Object-Code	   RE Isn  Source Statement  [ ********                       ]				    Error
  		  1 2 3 4 5 6 7 8	   ....*....1....*....2....*....3....*....4....*....5....*....6....*....7....*....8
000028F8 0000181C 0A0B8DE2F80080E2    4319 		   adrl	     r0,sp,AS@ArrangeToPalletOS-10256			   
                  		      4320 %%CALL									   
00000000 00001824 000000EB	    E 4321 		   bl	     @btstrlen						   
00000000 00001828 000050E3	      4322 		   cmp	     r0,#0						   
00001874 0000182C 100000DA	      4323 		   ble.x     L387						   
                  		      4324 %%LINE    000677								   
                  		      4325 ;Expr(677): ret=CheckDuplicate(boxes,boxNo,3)   				   
                  		      4326 %%SCOPE   init,totalBox							   
00000003 00001830 0320A0E3	      4327 		   mov	     r2,#3						   
000050F8 00001834 051A8DE2F81081E2    4328 		   adrl	     r1,sp,AS@ArrangeToPalletOS-16			   
000028F8 0000183C 0A0B8DE2F80080E2    4329 		   adrl	     r0,sp,AS@ArrangeToPalletOS-10256			   
                  		      4330 %%CALL									   
00000000 00001844 000000EB	    E 4331 		   bl	     @CheckDuplicate					   
                  		      4332 %%LINE    000678								   
                  		      4333 ;Expr(678): ret 								   
0000000D 00001848 0D0050E3	      4334 		   cmp	     r0,#13						   
00001864 0000184C 0400000A	      4335 		   beq.x     L382						   
00000010 00001850 100050E3	      4336 		   cmp	     r0,#16						   
00001864 00001854 0200000A	      4337 		   beq.x     L382						   
00000019 00001858 190050E3	      4338 		   cmp	     r0,#25						   
00001910 0000185C 2B00000A	      4339 		   beq.x     L402						   
00001874 00001860 030000EA	      4340 		   b.x	     L387						   
                  		      4341 L382:									   
                  		      4342 ; - case - 									   
                  		      4343 %%LINE    000685								   
                  		      4344 ;Expr(685): keyCode=0    - continue -					   
                  		      4345 %%SCOPE   init,totalBox							   
00000000 00001864 0010A0E3	      4346 		   mov	     r1,#0						   
00001BF4 00001868 84439FE5	      4347 		   ldr	     r4,S__keyCode					   
00000000 0000186C 001084E5	      4348 		   str	     r1,[r4,#0]						   
                  		      4349 %%LINE    000686								   
0000178C 00001870 C5FFFFEA	      4350 		   b.x	     L360						   
                  		      4351 L387:									   
                  		      4352 ; - endif -									   
                  		      4353 %%LINE    000692								   
                  		      4354 ;Expr(692): btsprintf(boxes,"%s@%s",boxes,boxNo)	   			   
                  		      4355 %%SCOPE   init,totalBox							   
000050F8 00001874 050A8DE2F80080E2    4356 		   adrl	     r0,sp,AS@ArrangeToPalletOS-16			   
         0000187C 01002DE9	      4357 		   stmfd     sp!,{r0}						   
000028FC 00001880 0A1B8DE2FC1081E2    4358 		   adrl	     r1,sp,AS@ArrangeToPalletOS-10256+4			   
         00001888 02002DE9	      4359 		   stmfd     sp!,{r1}						   
00001BCC 0000188C 38239FE5	      4360 		   ldr	     r2,S_S116						   
         00001890 04002DE9	      4361 		   stmfd     sp!,{r2}						   
         00001894 02002DE9	      4362 		   stmfd     sp!,{r1}						   
                  		      4363 %%CALL									   
00000000 00001898 000000EB	    E 4364 		   bl	     @btsprintf						   
                  		      4365 %%LINE    000693								   
                  		      4366 ;Expr(693): totalBox=totalBox+ 1	   					   
00000001 0000189C 01C09CE2	      4367 		   adds	     r12,r12,#1						   
                  		      4368 %%LINE    000694								   
                  		      4369 ;Expr(694): btsprintf(msg,"Tong so Box: %ld",totalBox)  			   
         000018A0 00102DE9	      4370 		   stmfd     sp!,{r12}						   
00001BC8 000018A4 1C039FE5	      4371 		   ldr	     r0,S_S117						   
         000018A8 01002DE9	      4372 		   stmfd     sp!,{r0}						   


   CROSS ASSEMBLER     V10-L41   (8901)  XASS-V                                           Sat 02-Mar-2019 11:01:07      PAGE-0095
											              ARM               0102
Addr     Location Object-Code	   RE Isn  Source Statement  [ ********                       ]				    Error
  		  1 2 3 4 5 6 7 8	   ....*....1....*....2....*....3....*....4....*....5....*....6....*....7....*....8
00001BE8 000018AC 34139FE5	      4373 		   ldr	     r1,S__msg						   
         000018B0 02002DE9	      4374 		   stmfd     sp!,{r1}						   
                  		      4375 %%CALL									   
00000000 000018B4 000000EB	    E 4376 		   bl	     @btsprintf						   
                  		      4377 %%LINE    000695								   
                  		      4378 ;Expr(695): btstrcpy(set.l4,msg)	   					   
00000058 000018B8 580097E2	      4379 		   adds	     r0,r7,#88						   
00001BE8 000018BC 24139FE5	      4380 		   ldr	     r1,S__msg						   
                  		      4381 %%CALL									   
00000000 000018C0 000000EB	    E 4382 		   bl	     @btstrcpy						   
                  		      4383 %%LINE    000696								   
                  		      4384 ;Expr(696): keyCode=StartDisplay("VNN NOK","[Thong tin]",buf,msg,"","","C: Thoat
                  		           ","ENT: Gui")    - if -							   
00001BC4 000018C4 F8029FE5	      4385 		   ldr	     r0,S_S123						   
         000018C8 01002DE9	      4386 		   stmfd     sp!,{r0}						   
00000009 000018CC 091040E2	      4387 		   sub	     r1,r0,#9		   ; ldr r1,S_S122		   
         000018D0 02002DE9	      4388 		   stmfd     sp!,{r1}						   
0000000A 000018D4 0A2040E2	      4389 		   sub	     r2,r0,#10		   ; ldr r2,S_S121		   
         000018D8 04002DE9	      4390 		   stmfd     sp!,{r2}						   
0000000B 000018DC 0B0040E2	      4391 		   sub	     r0,r0,#11		   ; ldr r0,S_S120		   
         000018E0 01002DE9	      4392 		   stmfd     sp!,{r0}						   
00001BE8 000018E4 FC329FE5	      4393 		   ldr	     r3,S__msg						   
00001BF0 000018E8 00239FE5	      4394 		   ldr	     r2,S__buf						   
0000000E 000018EC 0E1041E2	      4395 		   sub	     r1,r1,#14		   ; ldr r1,S_S119		   
00000014 000018F0 140040E2	      4396 		   sub	     r0,r0,#20		   ; ldr r0,S_S118		   
                  		      4397 %%CALL									   
00000000 000018F4 000000EB	    E 4398 		   bl	     @StartDisplay					   
00001BF4 000018F8 F4429FE5	      4399 		   ldr	     r4,S__keyCode					   
00000000 000018FC 000084E5	      4400 		   str	     r0,[r4,#0]						   
                  		      4401 %%LINE    000698								   
                  		      4402 ;Expr(698): keyCode==(0019)	   						   
0000002C 00001900 2CD08DE2	      4403 		   add	     sp,#44						   
00000000 00001904 001094E5	      4404 		   ldr	     r1,[r4,#0]						   
00000019 00001908 190051E3	      4405 		   cmp	     r1,#25						   
00001918 0000190C 0100001A	      4406 		   bne.x     L392						   
                  		      4407 L402:									   
                  		      4408 ;winch object								   
                  		      4409 ;Expr(699): - 2 								   
                  		      4410 %%SCOPE   init								   
00000001 00001910 0100E0E3	      4411 		   mvn	     r0,#1						   
000019A0 00001914 210000EA	      4412 		   b.x	     L400						   
                  		      4413 L392:									   
                  		      4414 %%LINE    000701								   
                  		      4415 ;Expr(701): keyCode!=(000d)	   						   
                  		      4416 %%SCOPE   init,totalBox							   
00001BF4 00001918 D4429FE5	      4417 		   ldr	     r4,S__keyCode					   
00000000 0000191C 000094E5	      4418 		   ldr	     r0,[r4,#0]						   
0000000D 00001920 0D0050E3	      4419 		   cmp	     r0,#13						   
0000178C 00001924 98FFFF1A	      4420 		   bne.x     L360						   
                  		      4421 %%LINE    000703								   
                  		      4422 ;Expr(703): btsprintf(dataSend,"%s%s",pallete,boxes)	   			   
                  		      4423 %%SCOPE   init								   
000028F8 00001928 0A1B8DE2F81081E2    4424 		   adrl	     r1,sp,AS@ArrangeToPalletOS-10256			   
         00001930 02002DE9	      4425 		   stmfd     sp!,{r1}						   


   CROSS ASSEMBLER     V10-L41   (8901)  XASS-V                                           Sat 02-Mar-2019 11:01:07      PAGE-0096
											              ARM               0102
Addr     Location Object-Code	   RE Isn  Source Statement  [ ********                       ]				    Error
  		  1 2 3 4 5 6 7 8	   ....*....1....*....2....*....3....*....4....*....5....*....6....*....7....*....8
000028EC 00001934 0A0B8DE2EC0080E2    4426 		   adrl	     r0,sp,AS@ArrangeToPalletOS-10272+4			   
         0000193C 01002DE9	      4427 		   stmfd     sp!,{r0}						   
00001BD4 00001940 8C229FE5	      4428 		   ldr	     r2,S_S124						   
         00001944 04002DE9	      4429 		   stmfd     sp!,{r2}						   
000000F4 00001948 F4108DE2	      4430 		   adrl	     r1,sp,AS@ArrangeToPalletOS-20512+12		   
         0000194C 02002DE9	      4431 		   stmfd     sp!,{r1}						   
                  		      4432 %%CALL									   
00000000 00001950 000000EB	    E 4433 		   bl	     @btsprintf						   
                  		      4434 %%LINE    000704								   
                  		      4435 ;Expr(704): MakeDataToSend("M302","S02",dataSend,send)  			   
00001B2C 00001954 D0319FE5	      4436 		   ldr	     r3,S__send						   
000000F8 00001958 F8208DE2	      4437 		   adrl	     r2,sp,AS@ArrangeToPalletOS-20512+16		   
00001BD0 0000195C 6C129FE5	      4438 		   ldr	     r1,S_S126						   
00000005 00001960 050041E2	      4439 		   sub	     r0,r1,#5		   ; ldr r0,S_S125		   
                  		      4440 %%CALL									   
00000000 00001964 000000EB	    E 4441 		   bl	     @MakeDataToSend					   
                  		      4442 %%LINE    000705								   
                  		      4443 ;Expr(705): ret=DataSend(send,btstrlen(send),rcv,sizeof(rcv),(0))	    - if - 
00000000 00001968 0000A0E3	      4444 		   mov	     r0,#0						   
         0000196C 01002DE9	      4445 		   stmfd     sp!,{r0}						   
00001B2C 00001970 B4019FE5	      4446 		   ldr	     r0,S__send						   
                  		      4447 %%CALL									   
00000000 00001974 000000EB	    E 4448 		   bl	     @btstrlen						   
         00001978 0060A0E1	      4449 		   mov	     r6,r0						   
00005000 0000197C 053AA0E3	      4450 		   mov	     r3,#20480						   
00001B24 00001980 9C219FE5	      4451 		   ldr	     r2,S__rcv						   
         00001984 0610A0E1	      4452 		   mov	     r1,r6						   
00001B2C 00001988 9C019FE5	      4453 		   ldr	     r0,S__send						   
                  		      4454 %%CALL									   
00000000 0000198C 000000EB	    E 4455 		   bl	     @DataSend						   
                  		      4456 %%LINE    000706								   
                  		      4457 ;Expr(706): ret==1	   							   
00000014 00001990 14D08DE2	      4458 		   add	     sp,#20						   
00000001 00001994 010050E3	      4459 		   cmp	     r0,#1						   
000019A0 00001998 0000001A	      4460 		   bne.x     L400						   
                  		      4461 L401:									   
                  		      4462 ;winch object								   
                  		      4463 ;Expr(708): - 1 								   
                  		      4464 %%SCOPE   init								   
00000000 0000199C 0000E0E3	      4465 		   mvn	     r0,#0						   
                  		      4466 L400:									   
                  		      4467 ; RET									   
                  		      4468 %%LINE    000710								   
                  		      4469 %%SCOPE init									   
                  		      4470 %%EF	     									   
00000108 000019A0 42DF8DE2	      4471 		   add	     sp,#264						   
00005000 000019A4 05DA8DE2	      4472 		   add	     sp,#20480						   
                  		      4473 %%RESTORE	   R6								   
                  		      4474 %%RESTORE	   R7								   
                  		      4475 %%RESTORE	   R10								   
                  		      4476 %%RESTORE	   R12								   
                  		      4477 %%RETURN									   
         000019A8 C09CBDE8	      4478 		   ldmfd     sp!,{r6,r7,r10,r11,r12,pc}				   
         000019AC 		      4479 		   bnd	     4							   


   CROSS ASSEMBLER     V10-L41   (8901)  XASS-V                                           Sat 02-Mar-2019 11:01:07      PAGE-0097
											              ARM               0102
Addr     Location Object-Code	   RE Isn  Source Statement  [ ********                       ]				    Error
  		  1 2 3 4 5 6 7 8	   ....*....1....*....2....*....3....*....4....*....5....*....6....*....7....*....8
                  		      4480 %%FEND    									   
                  		      4481 ;	   totalBox -> regid  13    int						   
                  		      4482 ;	   ret -> regid  7  int							   
                  		      4483 ;	   boxNo -> offset -16	    array					   
                  		      4484 ;	   boxes -> offset -10256   array					   
                  		      4485 ;	   pallete -> offset -10272	    array				   
                  		      4486 ;	   dataSend -> offset -20512	    array				   
                  		      4487 ;	   set -> offset -20744	    struct					   
                  		      4488 %%LINE    000713								   
                  		      4489 %%FUNC    ArrangeToPalletOR,3,cls=2,type=5,ftype=1				   
                  		      4490 %%RVALUE  kind=direct,register=R0,atype=2					   
                  		      4491 @ArrangeToPalletOR: ;entry							   
         000019AC C05C2DE9	      4492 		   stmfd     sp!,{r6,r7,r10,r11,r12,lr}				   
         000019B0 0DB0A0E1	      4493 		   mov	     r11,sp						   
                  		      4494 %%SAVE  R6,kind=direct,base=R11,offset=0,atype=6				   
                  		      4495 %%SAVE  R7,kind=direct,base=R11,offset=4,atype=6				   
                  		      4496 %%SAVE  R10,kind=direct,base=R11,offset=8,atype=6				   
                  		      4497 %%SAVE  R12,kind=direct,base=R11,offset=16,atype=6				   
000001C0 000019B4 07DD4DE2	      4498 		   sub	     sp,#448						   
000001C0          		      4499 AS@ArrangeToPalletOR	   set	   448		   ; stack frame total size	   
                  		      4500 %%BF	     									   
                  		      4501 %%SYM     ret,0,type=5,size=4,cls=6,val=0,delete 				   
                  		      4502 %%SYM     dataSend,0,type=2,cls=6,val=-200,size=200				   
                  		      4503 %%DTY     									   
                  		      4504 %%DAR     1,200								   
                  		      4505 %%ENDD    									   
                  		      4506 %%SYM     boxNo,0,type=2,cls=6,val=-448,size=14				   
                  		      4507 %%DTY     									   
                  		      4508 %%DAR     1,14								   
                  		      4509 %%ENDD    									   
                  		      4510 %%SYM     set,0,sym=89,cls=6,val=-432,size=232				   
                  		      4511 %%SCOPE   init								   
00000000 000019B8 00A08DE2	      4512 		   adrl	     r10,sp,AS@ArrangeToPalletOR-448			   
00000000 000019BC 0070A0E3	      4513 		   mov	     r7,#0						   
00000010 000019C0 10608DE2	      4514 		   adrl	     r6,sp,AS@ArrangeToPalletOR-432			   
                  		      4515 ;Expr(716): 12+ 2								   
                  		      4516 %%LINE    000720								   
                  		      4517 ;Expr(720): btmemset(boxNo,0,sizeof(boxNo))	   				   
                  		      4518 %%SCOPE   init								   
0000000E 000019C4 0E20A0E3	      4519 		   mov	     r2,#14						   
         000019C8 0710A0E1	      4520 		   mov	     r1,r7						   
         000019CC 0A00A0E1	      4521 		   mov	     r0,r10						   
                  		      4522 %%CALL									   
00000000 000019D0 000000EB	    E 4523 		   bl	     @btmemset						   
                  		      4524 %%LINE    000721								   
                  		      4525 ;Expr(721): btmemset(buf,0,sizeof(buf)) 					   
00000200 000019D4 022CA0E3	      4526 		   mov	     r2,#512						   
         000019D8 0710A0E1	      4527 		   mov	     r1,r7						   
00001BF0 000019DC 0C029FE5	      4528 		   ldr	     r0,S__buf						   
                  		      4529 %%CALL									   
00000000 000019E0 000000EB	    E 4530 		   bl	     @btmemset						   
                  		      4531 %%LINE    000722								   
                  		      4532 ;Expr(722): btmemset(&set,0,sizeof(set))	   				   
000000E8 000019E4 E820A0E3	      4533 		   mov	     r2,#232						   


   CROSS ASSEMBLER     V10-L41   (8901)  XASS-V                                           Sat 02-Mar-2019 11:01:07      PAGE-0098
											              ARM               0102
Addr     Location Object-Code	   RE Isn  Source Statement  [ ********                       ]				    Error
  		  1 2 3 4 5 6 7 8	   ....*....1....*....2....*....3....*....4....*....5....*....6....*....7....*....8
         000019E8 0710A0E1	      4534 		   mov	     r1,r7						   
         000019EC 0600A0E1	      4535 		   mov	     r0,r6						   
                  		      4536 %%CALL									   
00000000 000019F0 000000EB	    E 4537 		   bl	     @btmemset						   
                  		      4538 %%LINE    000723								   
                  		      4539 ;Expr(723): btmemset(&msg,0,sizeof(msg))	   				   
00000080 000019F4 8020A0E3	      4540 		   mov	     r2,#128						   
         000019F8 0710A0E1	      4541 		   mov	     r1,r7						   
00001BE8 000019FC E4019FE5	      4542 		   ldr	     r0,S__msg						   
                  		      4543 %%CALL									   
00000000 00001A00 000000EB	    E 4544 		   bl	     @btmemset						   
                  		      4545 %%LINE    000724								   
                  		      4546 ;Expr(724): set.mode=1  							   
00000001 00001A04 0100A0E3	      4547 		   mov	     r0,#1						   
00000000 00001A08 000086E5	      4548 		   str	     r0,[r6,#0]						   
                  		      4549 %%LINE    000725								   
                  		      4550 ;Expr(725): set.buffer=buf	   						   
00001BF0 00001A0C DC119FE5	      4551 		   ldr	     r1,S__buf						   
000000AC 00001A10 AC1086E5	      4552 		   str	     r1,[r6,#172]					   
                  		      4553 %%LINE    000726								   
                  		      4554 ;Expr(726): set.bufsize=sizeof(buf)	   					   
00000200 00001A14 022CA0E3	      4555 		   mov	     r2,#512						   
000000B0 00001A18 B02086E5	      4556 		   str	     r2,[r6,#176]					   
                  		      4557 %%LINE    000728								   
                  		      4558 ;Expr(728): btstrcpy(set.l1,"Quet Box sap xep") 				   
00000019 00001A1C 190096E2	      4559 		   adds	     r0,r6,#25						   
00001BE4 00001A20 BC119FE5	      4560 		   ldr	     r1,S_S127						   
                  		      4561 %%CALL									   
00000000 00001A24 000000EB	    E 4562 		   bl	     @btstrcpy						   
                  		      4563 %%LINE    000729								   
                  		      4564 ;Expr(729): btstrcpy(set.l2,"") 						   
0000002E 00001A28 2E0096E2	      4565 		   adds	     r0,r6,#46						   
00001BE0 00001A2C AC119FE5	      4566 		   ldr	     r1,S_S128						   
                  		      4567 %%CALL									   
00000000 00001A30 000000EB	    E 4568 		   bl	     @btstrcpy						   
                  		      4569 %%LINE    000730								   
                  		      4570 ;Expr(730): btstrcpy(set.l3,"") 						   
00000043 00001A34 430096E2	      4571 		   adds	     r0,r6,#67						   
00001BDC 00001A38 9C119FE5	      4572 		   ldr	     r1,S_S129						   
                  		      4573 %%CALL									   
00000000 00001A3C 000000EB	    E 4574 		   bl	     @btstrcpy						   
                  		      4575 %%LINE    000731								   
                  		      4576 ;Expr(731): btstrcpy(set.l7,"     [L] Thoat")   				   
00000097 00001A40 970096E2	      4577 		   adds	     r0,r6,#151						   
00001BD8 00001A44 8C119FE5	      4578 		   ldr	     r1,S_S130						   
                  		      4579 %%CALL									   
00000000 00001A48 000000EB	    E 4580 		   bl	     @btstrcpy						   
                  		      4581 L407:									   
                  		      4582 ; - do -									   
                  		      4583 %%LINE    000734								   
                  		      4584 ;Expr(734): btmemset(buf,0,sizeof(buf)) 					   
                  		      4585 %%SCOPE   init								   
00000200 00001A4C 022CA0E3	      4586 		   mov	     r2,#512						   
         00001A50 0710A0E1	      4587 		   mov	     r1,r7						   


   CROSS ASSEMBLER     V10-L41   (8901)  XASS-V                                           Sat 02-Mar-2019 11:01:07      PAGE-0099
											              ARM               0102
Addr     Location Object-Code	   RE Isn  Source Statement  [ ********                       ]				    Error
  		  1 2 3 4 5 6 7 8	   ....*....1....*....2....*....3....*....4....*....5....*....6....*....7....*....8
00001BF0 00001A54 94019FE5	      4588 		   ldr	     r0,S__buf						   
                  		      4589 %%CALL									   
00000000 00001A58 000000EB	    E 4590 		   bl	     @btmemset						   
                  		      4591 %%LINE    000735								   
                  		      4592 ;Expr(735): ret=DataInputBt(&set)	    - if -				   
         00001A5C 0600A0E1	      4593 		   mov	     r0,r6						   
                  		      4594 %%CALL									   
00000000 00001A60 000000EB	    E 4595 		   bl	     @DataInputBt					   
                  		      4596 %%LINE    000736								   
                  		      4597 ;Expr(736): ret 								   
00000000 00001A64 000050E3	      4598 		   cmp	     r0,#0						   
                  		      4599 ; - then - - return -							   
                  		      4600 %%LINE    000737								   
                  		      4601 ;Expr(737): (- 1)	   							   
                  		      4602 %%SCOPE   init								   
00000000 00001A68 0000E013	      4603 		   mvnne     r0,#0						   
00001B10 00001A6C 2700001A	      4604 		   bne.x     L424						   
                  		      4605 %%LINE    000738								   
                  		      4606 ;Expr(738): GetBoxNoFromString(buf,boxNo)	   				   
                  		      4607 %%SCOPE   init								   
         00001A70 0A10A0E1	      4608 		   mov	     r1,r10						   
00001BF0 00001A74 74019FE5	      4609 		   ldr	     r0,S__buf						   
                  		      4610 %%CALL									   
00000000 00001A78 000000EB	    E 4611 		   bl	     @GetBoxNoFromString				   
                  		      4612 %%LINE    000739								   
                  		      4613 ;Expr(739): ret=CheckDataByType(loc,boxNo,3)	   				   
00000003 00001A7C 0320A0E3	      4614 		   mov	     r2,#3						   
         00001A80 0A10A0E1	      4615 		   mov	     r1,r10						   
00001BEC 00001A84 60019FE5	      4616 		   ldr	     r0,S__loc						   
                  		      4617 %%CALL									   
00000000 00001A88 000000EB	    E 4618 		   bl	     @CheckDataByType					   
                  		      4619 %%LINE    000740								   
                  		      4620 ;Expr(740): ret 								   
0000000D 00001A8C 0D0050E3	      4621 		   cmp	     r0,#13						   
00001A4C 00001A90 EDFFFF0A	      4622 		   beq.x     L407						   
00000019 00001A94 190050E3	      4623 		   cmp	     r0,#25						   
00001AA0 00001A98 0000000A	      4624 		   beq.x     L413						   
00001AA8 00001A9C 010000EA	      4625 		   b.x	     L420						   
                  		      4626 L413:									   
                  		      4627 ; - case - 									   
                  		      4628 %%LINE    000743								   
                  		      4629 ;Expr(743): - 2 								   
                  		      4630 %%SCOPE   init								   
00000001 00001AA0 0100E0E3	      4631 		   mvn	     r0,#1						   
00001B10 00001AA4 190000EA	      4632 		   b.x	     L424						   
                  		      4633 L420:									   
                  		      4634 %%LINE    000749								   
                  		      4635 ;Expr(749): btsprintf(dataSend,"%s",boxNo)	   				   
                  		      4636 %%SCOPE   init								   
         00001AA8 00042DE9	      4637 		   stmfd     sp!,{r10}						   
00001BFC 00001AAC 48119FE5	      4638 		   ldr	     r1,S_S131						   
         00001AB0 02002DE9	      4639 		   stmfd     sp!,{r1}						   
00000100 00001AB4 010C8DE2	      4640 		   adrl	     r0,sp,AS@ArrangeToPalletOR-200+8			   
         00001AB8 01002DE9	      4641 		   stmfd     sp!,{r0}						   


   CROSS ASSEMBLER     V10-L41   (8901)  XASS-V                                           Sat 02-Mar-2019 11:01:07      PAGE-0100
											              ARM               0102
Addr     Location Object-Code	   RE Isn  Source Statement  [ ********                       ]				    Error
  		  1 2 3 4 5 6 7 8	   ....*....1....*....2....*....3....*....4....*....5....*....6....*....7....*....8
                  		      4642 %%CALL									   
00000000 00001ABC 000000EB	    E 4643 		   bl	     @btsprintf						   
                  		      4644 %%LINE    000750								   
                  		      4645 ;Expr(750): MakeDataToSend("M302","S03",dataSend,send)  			   
00001B2C 00001AC0 64309FE5	      4646 		   ldr	     r3,S__send						   
00000104 00001AC4 412F8DE2	      4647 		   adrl	     r2,sp,AS@ArrangeToPalletOR-200+12			   
00001BF8 00001AC8 28119FE5	      4648 		   ldr	     r1,S_S133						   
00000005 00001ACC 050041E2	      4649 		   sub	     r0,r1,#5		   ; ldr r0,S_S132		   
                  		      4650 %%CALL									   
00000000 00001AD0 000000EB	    E 4651 		   bl	     @MakeDataToSend					   
                  		      4652 %%LINE    000751								   
                  		      4653 ;Expr(751): ret=DataSend(send,btstrlen(send),rcv,sizeof(rcv),(0))	   	   
00000000 00001AD4 0000A0E3	      4654 		   mov	     r0,#0						   
         00001AD8 01002DE9	      4655 		   stmfd     sp!,{r0}						   
00001B2C 00001ADC 48009FE5	      4656 		   ldr	     r0,S__send						   
                  		      4657 %%CALL									   
00000000 00001AE0 000000EB	    E 4658 		   bl	     @btstrlen						   
         00001AE4 00C0A0E1	      4659 		   mov	     r12,r0						   
00005000 00001AE8 053AA0E3	      4660 		   mov	     r3,#20480						   
00001B24 00001AEC 30209FE5	      4661 		   ldr	     r2,S__rcv						   
         00001AF0 0C10A0E1	      4662 		   mov	     r1,r12						   
00001B2C 00001AF4 30009FE5	      4663 		   ldr	     r0,S__send						   
                  		      4664 %%CALL									   
00000000 00001AF8 000000EB	    E 4665 		   bl	     @DataSend						   
                  		      4666 %%LINE    000752								   
                  		      4667 ;Expr(752): keyCode=0   							   
00000000 00001AFC 0000A0E3	      4668 		   mov	     r0,#0						   
00001BF4 00001B00 EC409FE5	      4669 		   ldr	     r4,S__keyCode					   
00000000 00001B04 000084E5	      4670 		   str	     r0,[r4,#0]						   
00000010 00001B08 10D08DE2	      4671 		   add	     sp,#16						   
00001A4C 00001B0C CEFFFFEA	      4672 		   b.x	     L407						   
                  		      4673 L424:									   
                  		      4674 ; RET									   
                  		      4675 %%LINE    000756								   
                  		      4676 %%SCOPE init									   
                  		      4677 %%EF	     									   
000001C0 00001B10 07DD8DE2	      4678 		   add	     sp,#448						   
                  		      4679 %%RESTORE	   R6								   
                  		      4680 %%RESTORE	   R7								   
                  		      4681 %%RESTORE	   R10								   
                  		      4682 %%RESTORE	   R12								   
                  		      4683 %%RETURN									   
         00001B14 C09CBDE8	      4684 		   ldmfd     sp!,{r6,r7,r10,r11,r12,pc}				   
         00001B18 		      4685 		   bnd	     4							   
                  		      4686 %%FEND    									   
                  		      4687 ;	   dataSend -> offset -200  array					   
                  		      4688 ;	   set -> offset -432	    struct					   
                  		      4689 ;	   boxNo -> offset -448	    array					   
                  		      4690 %%EFILE   									   
                  		      4691 		   extnal    cslldiv						   
                  		      4692 ; DATA-LIST before block							   
         00001B18 		      4693 	   bnd	   4								   
         00001B18 72010000	   R  4694 S_S58:  dd	   S58								   
         00001B1C 78010000	   R  4695 S_S60:  dd	   S60								   


   CROSS ASSEMBLER     V10-L41   (8901)  XASS-V                                           Sat 02-Mar-2019 11:01:07      PAGE-0101
											              ARM               0102
Addr     Location Object-Code	   RE Isn  Source Statement  [ ********                       ]				    Error
  		  1 2 3 4 5 6 7 8	   ....*....1....*....2....*....3....*....4....*....5....*....6....*....7....*....8
         00001B20 75010000	   R  4696 S_S59:  dd	   S59								   
         00001B24 00000000	    E 4697 S__rcv: dd	   _rcv								   
         00001B28 82010000	   R  4698 S_S62:  dd	   S62								   
         00001B2C 00000000	    E 4699 S__send:	   dd	   _send						   
         00001B30 86010000	   R  4700 S_S63:  dd	   S63								   
         00001B34 CE010000	   R  4701 S_S73:  dd	   S73								   
         00001B38 9D010000	   R  4702 S_S66:  dd	   S66								   
         00001B3C 9A010000	   R  4703 S_S65:  dd	   S65								   
         00001B40 94010000	   R  4704 S_S64:  dd	   S64								   
         00001B44 E7010000	   R  4705 S_S75:  dd	   S75								   
         00001B48 F9010000	   R  4706 S_S77:  dd	   S77								   
         00001B4C 00000000	    E 4707 S__ret: dd	   _ret								   
         00001B50 FF010000	   R  4708 S_S79:  dd	   S79								   
         00001B54 09020000	   R  4709 S_S81:  dd	   S81								   
         00001B58 00020000	   R  4710 S_S80:  dd	   S80								   
         00001B5C 2F020000	   R  4711 S_S85:  dd	   S85								   
         00001B60 1F020000	   R  4712 S_S84:  dd	   S84								   
         00001B64 17020000	   R  4713 S_S83:  dd	   S83								   
         00001B68 0E020000	   R  4714 S_S82:  dd	   S82								   
         00001B6C 41020000	   R  4715 S_S86:  dd	   S86								   
         00001B70 7E020000	   R  4716 S_S95:  dd	   S95								   
         00001B74 46020000	   R  4717 S_S87:  dd	   S87								   
         00001B78 93020000	   R  4718 S_S97:  dd	   S97								   
         00001B7C A4090000	      4719 S_2468: dd	   2468								   
         00001B80 A2020000	   R  4720 S_S100: dd	   S100								   
         00001B84 A6020000	   R  4721 S_S101: dd	   S101								   
         00001B88 9D020000	   R  4722 S_S99:  dd	   S99								   
         00001B8C 94020000	   R  4723 S_S98:  dd	   S98								   
         00001B90 00000000	    E 4724 S__userId:	   dd	   _userId						   
         00001B94 AA020000	   R  4725 S_S102: dd	   S102								   
         00001B98 AE020000	   R  4726 S_S103: dd	   S103								   
         00001B9C D2020000	   R  4727 S_S105: dd	   S105								   
         00001BA0 FB020000	   R  4728 S_S108: dd	   S108								   
         00001BA4 E8020000	   R  4729 S_S107: dd	   S107								   
         00001BA8 E0020000	   R  4730 S_S106: dd	   S106								   
         00001BAC 04030000	   R  4731 S_S111: dd	   S111								   
         00001BB0 FC020000	   R  4732 S_S109: dd	   S109								   
         00001BB4 1A030000	   R  4733 S_S114: dd	   S114								   
         00001BB8 19030000	   R  4734 S_S113: dd	   S113								   
         00001BBC 08030000	   R  4735 S_S112: dd	   S112								   
         00001BC0 1B030000	   R  4736 S_S115: dd	   S115								   
         00001BC4 62030000	   R  4737 S_S123: dd	   S123								   
         00001BC8 32030000	   R  4738 S_S117: dd	   S117								   
         00001BCC 2C030000	   R  4739 S_S116: dd	   S116								   
         00001BD0 75030000	   R  4740 S_S126: dd	   S126								   
         00001BD4 6B030000	   R  4741 S_S124: dd	   S124								   
         00001BD8 8C030000	   R  4742 S_S130: dd	   S130								   
         00001BDC 8B030000	   R  4743 S_S129: dd	   S129								   
         00001BE0 8A030000	   R  4744 S_S128: dd	   S128								   
         00001BE4 79030000	   R  4745 S_S127: dd	   S127								   
         00001BE8 00000000	    E 4746 S__msg: dd	   _msg								   
         00001BEC 00000000	    E 4747 S__loc: dd	   _loc								   
         00001BF0 00000000	    E 4748 S__buf: dd	   _buf								   
         00001BF4 00000000	    E 4749 S__keyCode:	   dd	   _keyCode						   


   CROSS ASSEMBLER     V10-L41   (8901)  XASS-V                                           Sat 02-Mar-2019 11:01:07      PAGE-0102
											              ARM               0102
Addr     Location Object-Code	   RE Isn  Source Statement  [ ********                       ]				    Error
  		  1 2 3 4 5 6 7 8	   ....*....1....*....2....*....3....*....4....*....5....*....6....*....7....*....8
         00001BF8 A3030000	   R  4750 S_S133: dd	   S133								   
         00001BFC 9B030000	   R  4751 S_S131: dd	   S131								   
         00001C00 		      4752 		   end								   


   CROSS ASSEMBLER     V10-L41   (8901)  XASS-V           PROGRAM INFORMATION             Sat 02-Mar-2019 11:01:07      PAGE-0103
											              ARM               0102


				     +--------------------+
				     | Source Information |
				     +--------------------+

			      Instruction    Comment	    Macro	   Expansion	  Total		 Error

	  Source  Step          2193           2559            0                0          4752              0

	  Include Step             0              0            0                0             0              0

	  Total   Step          2193           2559            0                0          4752              0







				     +--------------------+
				     | Object Information |
				     +--------------------+

	  Section Name           Type		Top Address	    End Address 	Size

	  I_App300               Comm		00000000            000003A8            000003A8 (       936) relocatable
	  C_App300               Code		00000000            00001C00            00001C00 (      7168) relocatable
