

   CROSS ASSEMBLER     V10-L41   (8901)  XASS-V                                           Thu 03-Jan-2019 13:05:27      PAGE-0001
											              ARM               0102
Addr     Location Object-Code	   RE Isn  Source Statement  [ ********                       ]				    Error
  		  1 2 3 4 5 6 7 8	   ....*....1....*....2....*....3....*....4....*....5....*....6....*....7....*....8
                  		      0001 %%TOOL    'xcc-v V10.22  9226' ,190103130527					   
                  		      0002 %%COMPILE language=C , source=Common,mode=0,cps=4,dps=4,newdebug		   
                  		      0003 ;	   Cross C Compiler  XCC-V  V10.22 (9226) -88011100:03FF-		   
                  		      0004 ;		   == ARM/ARM9E (V01.03c) 8b13 ==  				   
                  		      0005 ;		   === arch:V5TE [ARM code] ===					   
                  		      0006 		   extnal    @btstrcpy						   
                  		      0007 		   extnal    @btstrlen						   
                  		      0008 		   extnal    @btmemcpy						   
                  		      0009 		   extnal    @btmemcmp						   
                  		      0010 		   extnal    @btmemset						   
                  		      0011 		   extnal    @btsprintf						   
                  		      0012 		   extnal    @LcdClear						   
                  		      0013 		   extnal    @Beep						   
                  		      0014 		   extnal    @Buzzer						   
                  		      0015 		   extnal    @get_nowtime					   
                  		      0016 		   extnal    @DspMsgBt						   
                  		      0017 		   extnal    @DspMsg						   
                  		      0018 		   extnal    @DataInputBt					   
                  		      0019 		   extnal    @OkNgDisp						   
                  		      0020 		   extnal    @WLAN_sendBt					   
                  		      0021 		   extnal    @MasterFind					   
                  		      0022 		   extnal    @MasterUpd						   
                  		      0023 		   global    @CheckAdminPassword				   
                  		      0024 		   global    @DataSend						   
                  		      0025 		   global    @ShowMessage					   
                  		      0026 		   global    @SetLocation					   
                  		      0027 		   global    @MakeDataToSend					   
                  		      0028 		   global    @CheckDataByType					   
00000000          		      0029 I_Common	   sect	   comm							   
00000000          		      0030 Itop		   set	   $							   
                  		      0031 S1:										   
         00000000 41		      0032 		   db	     041h,075h,074h,068h,065h				   
         00000001 75		     
         00000002 74		     
         00000003 68		     
         00000004 65		     
         00000005 6E		      0033 		   db	     06eh,074h,069h,063h,061h				   
         00000006 74		     
         00000007 69		     
         00000008 63		     
         00000009 61		     
         0000000A 74		      0034 		   db	     074h,069h,06fh,06eh,0				   
         0000000B 69		     
         0000000C 6F		     
         0000000D 6E		     
         0000000E 00		     
                  		      0035 S2:										   
         0000000F 50		      0036 		   db	     050h,06ch,065h,061h,073h				   
         00000010 6C		     
         00000011 65		     
         00000012 61		     
         00000013 73		     
         00000014 65		      0037 		   db	     065h,020h,065h,06eh,074h				   
         00000015 20		     


   CROSS ASSEMBLER     V10-L41   (8901)  XASS-V                                           Thu 03-Jan-2019 13:05:27      PAGE-0002
											              ARM               0102
Addr     Location Object-Code	   RE Isn  Source Statement  [ ********                       ]				    Error
  		  1 2 3 4 5 6 7 8	   ....*....1....*....2....*....3....*....4....*....5....*....6....*....7....*....8
         00000016 65		     
         00000017 6E		     
         00000018 74		     
         00000019 65		      0038 		   db	     065h,072h,0					   
         0000001A 72		     
         0000001B 00		     
                  		      0039 S3:										   
         0000001C 20		      0040 		   db	     020h,020h,041h,064h,06dh				   
         0000001D 20		     
         0000001E 41		     
         0000001F 64		     
         00000020 6D		     
         00000021 69		      0041 		   db	     069h,06eh,020h,070h,061h				   
         00000022 6E		     
         00000023 20		     
         00000024 70		     
         00000025 61		     
         00000026 73		      0042 		   db	     073h,073h,077h,06fh,072h				   
         00000027 73		     
         00000028 77		     
         00000029 6F		     
         0000002A 72		     
         0000002B 64		      0043 		   db	     064h,02eh,0					   
         0000002C 2E		     
         0000002D 00		     
                  		      0044 S4:										   
         0000002E 72		      0045 		   db	     072h,065h,074h,03dh,025h				   
         0000002F 65		     
         00000030 74		     
         00000031 3D		     
         00000032 25		     
         00000033 64		      0046 		   db	     064h,0						   
         00000034 00		     
                  		      0047 S5:										   
         00000035 56		      0048 		   db	     056h,04eh,04eh,020h,04eh				   
         00000036 4E		     
         00000037 4E		     
         00000038 20		     
         00000039 4E		     
         0000003A 4F		      0049 		   db	     04fh,04bh,0					   
         0000003B 4B		     
         0000003C 00		     
                  		      0050 S6:										   
         0000003D 00		      0051 		   db	     0							   
                  		      0052 S7:										   
         0000003E 2A		      0053 		   db	     02ah,02ah,02ah,02ah,02ah				   
         0000003F 2A		     
         00000040 2A		     
         00000041 2A		     
         00000042 2A		     
         00000043 2A		      0054 		   db	     02ah,02ah,02ah,02ah,02ah				   
         00000044 2A		     
         00000045 2A		     
         00000046 2A		     


   CROSS ASSEMBLER     V10-L41   (8901)  XASS-V                                           Thu 03-Jan-2019 13:05:27      PAGE-0003
											              ARM               0102
Addr     Location Object-Code	   RE Isn  Source Statement  [ ********                       ]				    Error
  		  1 2 3 4 5 6 7 8	   ....*....1....*....2....*....3....*....4....*....5....*....6....*....7....*....8
         00000047 2A		     
         00000048 2A		      0055 		   db	     02ah,02ah,02ah,02ah,0				   
         00000049 2A		     
         0000004A 2A		     
         0000004B 2A		     
         0000004C 00		     
                  		      0056 S8:										   
         0000004D 63		      0057 		   db	     063h,06fh,06dh,020h,065h				   
         0000004E 6F		     
         0000004F 6D		     
         00000050 20		     
         00000051 65		     
         00000052 72		      0058 		   db	     072h,072h,06fh,072h,02ch				   
         00000053 72		     
         00000054 6F		     
         00000055 72		     
         00000056 2C		     
         00000057 00		      0059 		   db	     0							   
                  		      0060 S9:										   
         00000058 72		      0061 		   db	     072h,065h,074h,072h,079h				   
         00000059 65		     
         0000005A 74		     
         0000005B 72		     
         0000005C 79		     
         0000005D 3F		      0062 		   db	     03fh,0						   
         0000005E 00		     
                  		      0063 S10:										   
         0000005F 00		      0064 		   db	     0							   
                  		      0065 S11:										   
         00000060 2A		      0066 		   db	     02ah,02ah,02ah,02ah,02ah				   
         00000061 2A		     
         00000062 2A		     
         00000063 2A		     
         00000064 2A		     
         00000065 2A		      0067 		   db	     02ah,02ah,02ah,02ah,02ah				   
         00000066 2A		     
         00000067 2A		     
         00000068 2A		     
         00000069 2A		     
         0000006A 2A		      0068 		   db	     02ah,02ah,02ah,02ah,0				   
         0000006B 2A		     
         0000006C 2A		     
         0000006D 2A		     
         0000006E 00		     
                  		      0069 S12:										   
         0000006F 4E		      0070 		   db	     04eh,047h,0					   
         00000070 47		     
         00000071 00		     
                  		      0071 S13:										   
         00000072 56		      0072 		   db	     056h,04eh,04eh,020h,04eh				   
         00000073 4E		     
         00000074 4E		     
         00000075 20		     
         00000076 4E		     


   CROSS ASSEMBLER     V10-L41   (8901)  XASS-V                                           Thu 03-Jan-2019 13:05:27      PAGE-0004
											              ARM               0102
Addr     Location Object-Code	   RE Isn  Source Statement  [ ********                       ]				    Error
  		  1 2 3 4 5 6 7 8	   ....*....1....*....2....*....3....*....4....*....5....*....6....*....7....*....8
         00000077 4F		      0073 		   db	     04fh,04bh,0					   
         00000078 4B		     
         00000079 00		     
                  		      0074 S14:										   
         0000007A 00		      0075 		   db	     0							   
                  		      0076 S15:										   
         0000007B 4F		      0077 		   db	     04fh,04bh,0					   
         0000007C 4B		     
         0000007D 00		     
                  		      0078 S16:										   
         0000007E 4F		      0079 		   db	     04fh,04bh,0					   
         0000007F 4B		     
         00000080 00		     
                  		      0080 S17:										   
         00000081 56		      0081 		   db	     056h,04eh,04eh,020h,04eh				   
         00000082 4E		     
         00000083 4E		     
         00000084 20		     
         00000085 4E		     
         00000086 4F		      0082 		   db	     04fh,04bh,0					   
         00000087 4B		     
         00000088 00		     
                  		      0083 S18:										   
         00000089 00		      0084 		   db	     0							   
                  		      0085 S19:										   
         0000008A 00		      0086 		   db	     0							   
                  		      0087 S20:										   
         0000008B 6C		      0088 		   db	     06ch,06fh,063h,061h,074h				   
         0000008C 6F		     
         0000008D 63		     
         0000008E 61		     
         0000008F 74		     
         00000090 69		      0089 		   db	     069h,06fh,06eh,0					   
         00000091 6F		     
         00000092 6E		     
         00000093 00		     
                  		      0090 S21:										   
         00000094 49		      0091 		   db	     049h,06eh,070h,075h,074h				   
         00000095 6E		     
         00000096 70		     
         00000097 75		     
         00000098 74		     
         00000099 20		      0092 		   db	     020h,059h,06fh,075h,072h				   
         0000009A 59		     
         0000009B 6F		     
         0000009C 75		     
         0000009D 72		     
         0000009E 20		      0093 		   db	     020h,04ch,06fh,063h,061h				   
         0000009F 4C		     
         000000A0 6F		     
         000000A1 63		     
         000000A2 61		     
         000000A3 74		      0094 		   db	     074h,069h,06fh,06eh,02eh				   
         000000A4 69		     


   CROSS ASSEMBLER     V10-L41   (8901)  XASS-V                                           Thu 03-Jan-2019 13:05:27      PAGE-0005
											              ARM               0102
Addr     Location Object-Code	   RE Isn  Source Statement  [ ********                       ]				    Error
  		  1 2 3 4 5 6 7 8	   ....*....1....*....2....*....3....*....4....*....5....*....6....*....7....*....8
         000000A5 6F		     
         000000A6 6E		     
         000000A7 2E		     
         000000A8 00		      0095 		   db	     0							   
                  		      0096 S22:										   
         000000A9 44		      0097 		   db	     044h,06fh,06eh,027h,074h				   
         000000AA 6F		     
         000000AB 6E		     
         000000AC 27		     
         000000AD 74		     
         000000AE 20		      0098 		   db	     020h,063h,068h,061h,06eh				   
         000000AF 63		     
         000000B0 68		     
         000000B1 61		     
         000000B2 6E		     
         000000B3 67		      0099 		   db	     067h,065h,020h,02dh,03eh				   
         000000B4 65		     
         000000B5 20		     
         000000B6 2D		     
         000000B7 3E		     
         000000B8 20		      0100 		   db	     020h,045h,04eh,054h,0				   
         000000B9 45		     
         000000BA 4E		     
         000000BB 54		     
         000000BC 00		     
                  		      0101 S23:										   
         000000BD 25		      0102 		   db	     025h,073h,0					   
         000000BE 73		     
         000000BF 00		     
                  		      0103 S24:										   
         000000C0 4C		      0104 		   db	     04ch,06fh,063h,061h,074h				   
         000000C1 6F		     
         000000C2 63		     
         000000C3 61		     
         000000C4 74		     
         000000C5 69		      0105 		   db	     069h,06fh,06eh,020h,053h				   
         000000C6 6F		     
         000000C7 6E		     
         000000C8 20		     
         000000C9 53		     
         000000CA 65		      0106 		   db	     065h,074h,074h,069h,06eh				   
         000000CB 74		     
         000000CC 74		     
         000000CD 69		     
         000000CE 6E		     
         000000CF 67		      0107 		   db	     067h,0						   
         000000D0 00		     
                  		      0108 S25:										   
         000000D1 4C		      0109 		   db	     04ch,06fh,063h,061h,074h				   
         000000D2 6F		     
         000000D3 63		     
         000000D4 61		     
         000000D5 74		     
         000000D6 69		      0110 		   db	     069h,06fh,06eh,020h,03dh				   


   CROSS ASSEMBLER     V10-L41   (8901)  XASS-V                                           Thu 03-Jan-2019 13:05:27      PAGE-0006
											              ARM               0102
Addr     Location Object-Code	   RE Isn  Source Statement  [ ********                       ]				    Error
  		  1 2 3 4 5 6 7 8	   ....*....1....*....2....*....3....*....4....*....5....*....6....*....7....*....8
         000000D7 6F		     
         000000D8 6E		     
         000000D9 20		     
         000000DA 3D		     
         000000DB 20		      0111 		   db	     020h,025h,073h,0					   
         000000DC 25		     
         000000DD 73		     
         000000DE 00		     
                  		      0112 S26:										   
         000000DF 20		      0113 		   db	     020h,02ah,02ah,02ah,02ah				   
         000000E0 2A		     
         000000E1 2A		     
         000000E2 2A		     
         000000E3 2A		     
         000000E4 2A		      0114 		   db	     02ah,020h,045h,072h,072h				   
         000000E5 20		     
         000000E6 45		     
         000000E7 72		     
         000000E8 72		     
         000000E9 6F		      0115 		   db	     06fh,072h,020h,02ah,02ah				   
         000000EA 72		     
         000000EB 20		     
         000000EC 2A		     
         000000ED 2A		     
         000000EE 2A		      0116 		   db	     02ah,02ah,02ah,0					   
         000000EF 2A		     
         000000F0 2A		     
         000000F1 00		     
                  		      0117 S27:										   
         000000F2 4C		      0118 		   db	     04ch,06fh,063h,061h,074h				   
         000000F3 6F		     
         000000F4 63		     
         000000F5 61		     
         000000F6 74		     
         000000F7 69		      0119 		   db	     069h,06fh,06eh,020h,069h				   
         000000F8 6F		     
         000000F9 6E		     
         000000FA 20		     
         000000FB 69		     
         000000FC 73		      0120 		   db	     073h,020h,0					   
         000000FD 20		     
         000000FE 00		     
                  		      0121 S28:										   
         000000FF 6E		      0122 		   db	     06eh,06fh,074h,020h,063h				   
         00000100 6F		     
         00000101 74		     
         00000102 20		     
         00000103 63		     
         00000104 6F		      0123 		   db	     06fh,072h,072h,065h,063h				   
         00000105 72		     
         00000106 72		     
         00000107 65		     
         00000108 63		     
         00000109 74		      0124 		   db	     074h,02eh,028h,031h,029h				   


   CROSS ASSEMBLER     V10-L41   (8901)  XASS-V                                           Thu 03-Jan-2019 13:05:27      PAGE-0007
											              ARM               0102
Addr     Location Object-Code	   RE Isn  Source Statement  [ ********                       ]				    Error
  		  1 2 3 4 5 6 7 8	   ....*....1....*....2....*....3....*....4....*....5....*....6....*....7....*....8
         0000010A 2E		     
         0000010B 28		     
         0000010C 31		     
         0000010D 29		     
         0000010E 00		      0125 		   db	     0							   
                  		      0126 S29:										   
         0000010F 00		      0127 		   db	     0							   
                  		      0128 S30:										   
         00000110 00		      0129 		   db	     0							   
                  		      0130 S31:										   
         00000111 6C		      0131 		   db	     06ch,06fh,063h,061h,074h				   
         00000112 6F		     
         00000113 63		     
         00000114 61		     
         00000115 74		     
         00000116 69		      0132 		   db	     069h,06fh,06eh,0					   
         00000117 6F		     
         00000118 6E		     
         00000119 00		     
                  		      0133 S32:										   
         0000011A 6C		      0134 		   db	     06ch,06fh,063h,061h,074h				   
         0000011B 6F		     
         0000011C 63		     
         0000011D 61		     
         0000011E 74		     
         0000011F 69		      0135 		   db	     069h,06fh,06eh,0					   
         00000120 6F		     
         00000121 6E		     
         00000122 00		     
                  		      0136 S33:										   
         00000123 75		      0137 		   db	     075h,073h,065h,072h,0				   
         00000124 73		     
         00000125 65		     
         00000126 72		     
         00000127 00		     
                  		      0138 S34:										   
         00000128 00		      0139 		   db	     0							   
                  		      0140 S35:										   
         00000129 25		      0141 		   db	     025h,073h,024h,025h,073h				   
         0000012A 73		     
         0000012B 24		     
         0000012C 25		     
         0000012D 73		     
         0000012E 24		      0142 		   db	     024h,0						   
         0000012F 00		     
                  		      0143 S36:										   
         00000130 25		      0144 		   db	     025h,073h,025h,073h,024h				   
         00000131 73		     
         00000132 25		     
         00000133 73		     
         00000134 24		     
         00000135 25		      0145 		   db	     025h,073h,024h,025h,073h				   
         00000136 73		     
         00000137 24		     


   CROSS ASSEMBLER     V10-L41   (8901)  XASS-V                                           Thu 03-Jan-2019 13:05:27      PAGE-0008
											              ARM               0102
Addr     Location Object-Code	   RE Isn  Source Statement  [ ********                       ]				    Error
  		  1 2 3 4 5 6 7 8	   ....*....1....*....2....*....3....*....4....*....5....*....6....*....7....*....8
         00000138 25		     
         00000139 73		     
         0000013A 24		      0146 		   db	     024h,025h,073h,024h,0				   
         0000013B 25		     
         0000013C 73		     
         0000013D 24		     
         0000013E 00		     
                  		      0147 S37:										   
         0000013F 4C		      0148 		   db	     04ch,04fh,053h,0					   
         00000140 4F		     
         00000141 53		     
         00000142 00		     
                  		      0149 S38:										   
         00000143 4C		      0150 		   db	     04ch,04fh,052h,0					   
         00000144 4F		     
         00000145 52		     
         00000146 00		     
                  		      0151 S39:										   
         00000147 50		      0152 		   db	     050h,04fh,053h,0					   
         00000148 4F		     
         00000149 53		     
         0000014A 00		     
                  		      0153 S40:										   
         0000014B 50		      0154 		   db	     050h,04fh,052h,0					   
         0000014C 4F		     
         0000014D 52		     
         0000014E 00		     
                  		      0155 S41:										   
         0000014F 56		      0156 		   db	     056h,042h,0					   
         00000150 42		     
         00000151 00		     
                  		      0157 S42:										   
         00000152 56		      0158 		   db	     056h,043h,0					   
         00000153 43		     
         00000154 00		     
                  		      0159 S43:										   
         00000155 54		      0160 		   db	     054h,04fh,053h,0					   
         00000156 4F		     
         00000157 53		     
         00000158 00		     
                  		      0161 S44:										   
         00000159 54		      0162 		   db	     054h,04fh,052h,0					   
         0000015A 4F		     
         0000015B 52		     
         0000015C 00		     
                  		      0163 S45:										   
         0000015D 53		      0164 		   db	     053h,04fh,053h,0					   
         0000015E 4F		     
         0000015F 53		     
         00000160 00		     
                  		      0165 S46:										   
         00000161 53		      0166 		   db	     053h,04fh,052h,0					   
         00000162 4F		     
         00000163 52		     


   CROSS ASSEMBLER     V10-L41   (8901)  XASS-V                                           Thu 03-Jan-2019 13:05:27      PAGE-0009
											              ARM               0102
Addr     Location Object-Code	   RE Isn  Source Statement  [ ********                       ]				    Error
  		  1 2 3 4 5 6 7 8	   ....*....1....*....2....*....3....*....4....*....5....*....6....*....7....*....8
         00000164 00		     
                  		      0167 S47:										   
         00000165 4F		      0168 		   db	     04fh,053h,031h,0					   
         00000166 53		     
         00000167 31		     
         00000168 00		     
                  		      0169 S48:										   
         00000169 4F		      0170 		   db	     04fh,052h,031h,0					   
         0000016A 52		     
         0000016B 31		     
         0000016C 00		     
         0000016D 		      0171 		   ds	     3			       ; bnd 4			   
                  		      0172 %%BFILE   'C:\Users\11709931\Desktop\KEYENC~1\keyence\Common.c' ,181221181333,27
                  		           8										   
00000000          		      0173 C_Common	   sect	   code							   
         00000000 		      0174 		   code32							   
                  		      0175 %%REGPARA R0									   
                  		      0176 %%BFILE   'C:\Users\11709931\Desktop\KEYENC~1\keyence\Common.h' ,181221181143,29
                  		      0177 %%BFILE   'P:\pdrv\barlib\Keyence\nokbt1500.h' ,161112115905,309		   
                  		      0178 %%BFILE   'C:\Users\11709931\Desktop\KEYENC~1\keyence\inc\btlib.h' ,181122094114
                  		           ,1243									   
                  		      0179 %%BFILE   'C:\keyence\CPP\INCLUDE\string.h' ,000112113136,50			   
                  		      0180 %%BFILE   'C:\keyence\CPP\INCLUDE\memory.h' ,000112113136,27			   
                  		      0181 %%TYP     'void'		 ,   0, 0, 0,	11111111b, 0,0,0		   
                  		      0182 %%TYP     'char'		 ,   1, 2, 1,	00111111b, 4,0,2		   
                  		      0183 %%TYP     'unsigned char'	 ,   2, 2, 1,	01111111b, 4,0,2		   
                  		      0184 %%TYP     'short'		 ,   3, 3, 2,	00111111b, 4,0,2		   
                  		      0185 %%TYP     'unsigned short'	 ,   4, 3, 2,	01111111b, 4,0,2		   
                  		      0186 %%TYP     'int'		 ,   5, 3, 4,	00111111b, 4,0,2		   
                  		      0187 %%TYP     'unsigned int'	 ,   6, 3, 4,	01111111b, 4,0,2		   
                  		      0188 %%TYP     'long'		 ,   7, 3, 4,	00111111b, 4,0,2		   
                  		      0189 %%TYP     'unsigned long'	 ,   8, 3, 4,	01111111b, 4,0,2		   
                  		      0190 %%TYP     'float'		 ,   9, 4, 4,	00000000b, 4,0,2		   
                  		      0191 %%TYP     'double'		 ,  10, 4, 8,	00000001b, 8,0,3		   
                  		      0192 %%TYP     'enum'		 ,  11, 8, 4,	00111111b, 4,0,2		   
                  		      0193 %%TYP     'struct'		 ,  12, 9, 0,	11111111b, 0,0,4		   
                  		      0194 %%TYP     'union'		 ,  13,10, 0,	11111111b, 0,0,4		   
                  		      0195 %%TYP     'pointer'		 ,  14,11, 4,	01111111b, 4,0,2		   
                  		      0196 %%EFILE   									   
                  		      0197 %%EFILE   									   
                  		      0198 %%BFILE   'C:\keyence\CPP\INCLUDE\stdlib.h' ,000112113136,58			   
                  		      0199 %%EFILE   									   
                  		      0200 %%EFILE   									   
                  		      0201 %%BFILE   'C:\Users\11709931\Desktop\KEYENC~1\keyence\inc\btext.h' ,150123134216
                  		           ,548										   
                  		      0202 %%EFILE   									   
                  		      0203 %%EFILE   									   
                  		      0204 %%EFILE   									   
                  		      0205 %%SYM     _iobuf,9,type=12,id=1,size=16					   
                  		      0206 %%DDS     									   
                  		      0207 %%SYM     _cnt,7,type=5,val=0,size=4						   
                  		      0208 %%SYM     _ptr,7,type=2,val=4,size=4						   
                  		      0209 %%DTY     									   
                  		      0210 %%DPT     									   


   CROSS ASSEMBLER     V10-L41   (8901)  XASS-V                                           Thu 03-Jan-2019 13:05:27      PAGE-0010
											              ARM               0102
Addr     Location Object-Code	   RE Isn  Source Statement  [ ********                       ]				    Error
  		  1 2 3 4 5 6 7 8	   ....*....1....*....2....*....3....*....4....*....5....*....6....*....7....*....8
                  		      0211 %%ENDD    									   
                  		      0212 %%SYM     _base,7,type=2,val=8,size=4					   
                  		      0213 %%DTY     									   
                  		      0214 %%DPT     									   
                  		      0215 %%ENDD    									   
                  		      0216 %%SYM     _flag,7,type=3,val=12,size=2					   
                  		      0217 %%SYM     _file,7,type=2,val=14,size=1					   
                  		      0218 %%ENDD    									   
                  		      0219 %%SYM     _dateinfo,9,type=12,id=2,size=4					   
                  		      0220 %%DDS     									   
                  		      0221 %%SYM     year,7,type=3,val=0,size=2						   
                  		      0222 %%SYM     month,7,type=2,val=2,size=1					   
                  		      0223 %%SYM     day,7,type=2,val=3,size=1						   
                  		      0224 %%ENDD    									   
                  		      0225 %%SYM     _timeinfo,9,type=12,id=3,size=4					   
                  		      0226 %%DDS     									   
                  		      0227 %%SYM     hour,7,type=2,val=0,size=1						   
                  		      0228 %%SYM     min,7,type=2,val=1,size=1						   
                  		      0229 %%SYM     sec,7,type=2,val=2,size=1						   
                  		      0230 %%SYM     reserve,7,type=2,val=3,size=1					   
                  		      0231 %%ENDD    									   
                  		      0232 %%SYM     _tposition,9,type=12,id=4,size=4					   
                  		      0233 %%DDS     									   
                  		      0234 %%SYM     x,7,type=3,val=0,size=2						   
                  		      0235 %%SYM     y,7,type=3,val=2,size=2						   
                  		      0236 %%ENDD    									   
                  		      0237 %%SYM     _gposition,9,type=12,id=5,size=4					   
                  		      0238 %%DDS     									   
                  		      0239 %%SYM     x,7,type=3,val=0,size=2						   
                  		      0240 %%SYM     y,7,type=3,val=2,size=2						   
                  		      0241 %%ENDD    									   
                  		      0242 %%SYM     _dspattr,9,type=12,id=6,size=12					   
                  		      0243 %%DDS     									   
                  		      0244 %%SYM     tposition,7,sym=4,val=0,size=4					   
                  		      0245 %%SYM     attribute,7,type=3,val=4,size=2					   
                  		      0246 %%SYM     mag,7,type=3,val=6,size=2						   
                  		      0247 %%SYM     fold,7,type=3,val=8,size=2						   
                  		      0248 %%ENDD    									   
                  		      0249 %%SYM     _dspattrg,9,type=12,id=7,size=12					   
                  		      0250 %%DDS     									   
                  		      0251 %%SYM     gposition,7,sym=5,val=0,size=4					   
                  		      0252 %%SYM     attribute,7,type=3,val=4,size=2					   
                  		      0253 %%SYM     mag,7,type=3,val=6,size=2						   
                  		      0254 %%SYM     fold,7,type=3,val=8,size=2						   
                  		      0255 %%ENDD    									   
                  		      0256 %%SYM     _menuinfo,9,type=12,id=8,size=80					   
                  		      0257 %%DDS     									   
                  		      0258 %%SYM     rsv0,7,type=3,val=0,size=2						   
                  		      0259 %%SYM     tenkeydirect,7,type=3,val=2,size=2					   
                  		      0260 %%SYM     totalitem,7,type=3,val=4,size=2					   
                  		      0261 %%SYM     inititem,7,type=3,val=6,size=2					   
                  		      0262 %%SYM     menuitem,7,type=2,val=8,size=64					   
                  		      0263 %%DTY     									   
                  		      0264 %%DPT     									   


   CROSS ASSEMBLER     V10-L41   (8901)  XASS-V                                           Thu 03-Jan-2019 13:05:27      PAGE-0011
											              ARM               0102
Addr     Location Object-Code	   RE Isn  Source Statement  [ ********                       ]				    Error
  		  1 2 3 4 5 6 7 8	   ....*....1....*....2....*....3....*....4....*....5....*....6....*....7....*....8
                  		      0265 %%DAR     4,16								   
                  		      0266 %%ENDD    									   
                  		      0267 %%SYM     rsv1,7,type=3,val=72,size=2					   
                  		      0268 %%SYM     rsv2,7,type=3,val=74,size=2					   
                  		      0269 %%SYM     rsv3,7,type=3,val=76,size=2					   
                  		      0270 %%ENDD    									   
                  		      0271 %%SYM     _keyfunc,9,type=12,id=9,size=12					   
                  		      0272 %%DDS     									   
                  		      0273 %%SYM     F1,7,type=2,val=0,size=1						   
                  		      0274 %%SYM     F2,7,type=2,val=1,size=1						   
                  		      0275 %%SYM     F3,7,type=2,val=2,size=1						   
                  		      0276 %%SYM     L,7,type=2,val=3,size=1						   
                  		      0277 %%SYM     R,7,type=2,val=4,size=1						   
                  		      0278 %%SYM     Trg,7,type=2,val=5,size=1						   
                  		      0279 %%SYM     minus,7,type=2,val=6,size=3					   
                  		      0280 %%DTY     									   
                  		      0281 %%DAR     1,3								   
                  		      0282 %%ENDD    									   
                  		      0283 %%ENDD    									   
                  		      0284 %%SYM     _inputintegerattr,9,type=12,id=10,size=12				   
                  		      0285 %%DDS     									   
                  		      0286 %%SYM     inputtype,7,type=3,val=0,size=2					   
                  		      0287 %%SYM     inputarea,7,type=3,val=2,size=2					   
                  		      0288 %%SYM     minvalue,7,type=7,val=4,size=4					   
                  		      0289 %%SYM     maxvalue,7,type=7,val=8,size=4					   
                  		      0290 %%ENDD    									   
                  		      0291 %%SYM     _inputdecimalattr,9,type=12,id=11,size=16				   
                  		      0292 %%DDS     									   
                  		      0293 %%SYM     inputtype,7,type=3,val=0,size=2					   
                  		      0294 %%SYM     inputarea,7,type=3,val=2,size=2					   
                  		      0295 %%SYM     minvalue,7,type=7,val=4,size=4					   
                  		      0296 %%SYM     maxvalue,7,type=7,val=8,size=4					   
                  		      0297 %%SYM     digit,7,type=3,val=12,size=2					   
                  		      0298 %%ENDD    									   
                  		      0299 %%SYM     _inputstrattr,9,type=12,id=12,size=8				   
                  		      0300 %%DDS     									   
                  		      0301 %%SYM     inputtype,7,type=3,val=0,size=2					   
                  		      0302 %%SYM     inputarea,7,type=3,val=2,size=2					   
                  		      0303 %%SYM     mindigit,7,type=3,val=4,size=2					   
                  		      0304 %%SYM     maxdigit,7,type=3,val=6,size=2					   
                  		      0305 %%ENDD    									   
                  		      0306 %%SYM     _bcrconf,9,type=12,id=13,size=16					   
                  		      0307 %%DDS     									   
                  		      0308 %%SYM     mode,7,type=3,val=0,size=2						   
                  		      0309 %%SYM     trial,7,type=3,val=2,size=2					   
                  		      0310 %%SYM     overlap,7,type=3,val=4,size=2					   
                  		      0311 %%SYM     comparecnt,7,type=3,val=6,size=2					   
                  		      0312 %%SYM     rsv1,7,type=3,val=8,size=2						   
                  		      0313 %%SYM     rsv2,7,type=3,val=10,size=2					   
                  		      0314 %%SYM     rsv3,7,type=3,val=12,size=2					   
                  		      0315 %%SYM     rsv4,7,type=3,val=14,size=2					   
                  		      0316 %%ENDD    									   
                  		      0317 %%SYM     _jancodeset,9,type=12,id=14,size=4					   
                  		      0318 %%DDS     									   


   CROSS ASSEMBLER     V10-L41   (8901)  XASS-V                                           Thu 03-Jan-2019 13:05:27      PAGE-0012
											              ARM               0102
Addr     Location Object-Code	   RE Isn  Source Statement  [ ********                       ]				    Error
  		  1 2 3 4 5 6 7 8	   ....*....1....*....2....*....3....*....4....*....5....*....6....*....7....*....8
                  		      0319 %%SYM     flgset,7,type=4,val=0,size=2					   
                  		      0320 %%SYM     AdGap_min,7,type=2,val=2,size=1					   
                  		      0321 %%SYM     AdGap_max,7,type=2,val=3,size=1					   
                  		      0322 %%ENDD    									   
                  		      0323 %%SYM     _c39codeset,9,type=12,id=15,size=8					   
                  		      0324 %%DDS     									   
                  		      0325 %%SYM     min,7,type=4,val=0,size=2						   
                  		      0326 %%SYM     max,7,type=4,val=2,size=2						   
                  		      0327 %%SYM     flgset,7,type=4,val=4,size=2					   
                  		      0328 %%SYM     rsv1,7,type=3,val=6,size=2						   
                  		      0329 %%ENDD    									   
                  		      0330 %%SYM     _e128codeset,9,type=12,id=16,size=8				   
                  		      0331 %%DDS     									   
                  		      0332 %%SYM     min,7,type=4,val=0,size=2						   
                  		      0333 %%SYM     max,7,type=4,val=2,size=2						   
                  		      0334 %%SYM     flgset,7,type=4,val=4,size=2					   
                  		      0335 %%SYM     separator,7,type=2,val=6,size=1					   
                  		      0336 %%SYM     rsv,7,type=2,val=7,size=1						   
                  		      0337 %%ENDD    									   
                  		      0338 %%SYM     _c128codeset,9,type=12,id=17,size=8				   
                  		      0339 %%DDS     									   
                  		      0340 %%SYM     min,7,type=4,val=0,size=2						   
                  		      0341 %%SYM     max,7,type=4,val=2,size=2						   
                  		      0342 %%SYM     flgset,7,type=4,val=4,size=2					   
                  		      0343 %%SYM     rsv1,7,type=3,val=6,size=2						   
                  		      0344 %%ENDD    									   
                  		      0345 %%SYM     _itfcodeset,9,type=12,id=18,size=8					   
                  		      0346 %%DDS     									   
                  		      0347 %%SYM     min,7,type=4,val=0,size=2						   
                  		      0348 %%SYM     max,7,type=4,val=2,size=2						   
                  		      0349 %%SYM     flgset,7,type=4,val=4,size=2					   
                  		      0350 %%SYM     rsv1,7,type=3,val=6,size=2						   
                  		      0351 %%ENDD    									   
                  		      0352 %%SYM     _nw7codeset,9,type=12,id=19,size=8					   
                  		      0353 %%DDS     									   
                  		      0354 %%SYM     min,7,type=4,val=0,size=2						   
                  		      0355 %%SYM     max,7,type=4,val=2,size=2						   
                  		      0356 %%SYM     flgset,7,type=4,val=4,size=2					   
                  		      0357 %%SYM     rsv1,7,type=3,val=6,size=2						   
                  		      0358 %%ENDD    									   
                  		      0359 %%SYM     _c93codeset,9,type=12,id=20,size=8					   
                  		      0360 %%DDS     									   
                  		      0361 %%SYM     min,7,type=4,val=0,size=2						   
                  		      0362 %%SYM     max,7,type=4,val=2,size=2						   
                  		      0363 %%SYM     flgset,7,type=4,val=4,size=2					   
                  		      0364 %%SYM     rsv1,7,type=3,val=6,size=2						   
                  		      0365 %%ENDD    									   
                  		      0366 %%SYM     _tofcodeset,9,type=12,id=21,size=4					   
                  		      0367 %%DDS     									   
                  		      0368 %%SYM     min,7,type=4,val=0,size=2						   
                  		      0369 %%SYM     max,7,type=4,val=2,size=2						   
                  		      0370 %%ENDD    									   
                  		      0371 %%SYM     _coopcodeset,9,type=12,id=22,size=4				   
                  		      0372 %%DDS     									   


   CROSS ASSEMBLER     V10-L41   (8901)  XASS-V                                           Thu 03-Jan-2019 13:05:27      PAGE-0013
											              ARM               0102
Addr     Location Object-Code	   RE Isn  Source Statement  [ ********                       ]				    Error
  		  1 2 3 4 5 6 7 8	   ....*....1....*....2....*....3....*....4....*....5....*....6....*....7....*....8
                  		      0373 %%SYM     min,7,type=4,val=0,size=2						   
                  		      0374 %%SYM     max,7,type=4,val=2,size=2						   
                  		      0375 %%ENDD    									   
                  		      0376 %%SYM     _qrcodeset,9,type=12,id=23,size=8					   
                  		      0377 %%DDS     									   
                  		      0378 %%SYM     min,7,type=4,val=0,size=2						   
                  		      0379 %%SYM     max,7,type=4,val=2,size=2						   
                  		      0380 %%SYM     flgset,7,type=4,val=4,size=2					   
                  		      0381 %%ENDD    									   
                  		      0382 %%SYM     _pdfcodeset,9,type=12,id=24,size=8					   
                  		      0383 %%DDS     									   
                  		      0384 %%SYM     min,7,type=4,val=0,size=2						   
                  		      0385 %%SYM     max,7,type=4,val=2,size=2						   
                  		      0386 %%SYM     flgset,7,type=4,val=4,size=2					   
                  		      0387 %%ENDD    									   
                  		      0388 %%SYM     _dmcodeset,9,type=12,id=25,size=8					   
                  		      0389 %%DDS     									   
                  		      0390 %%SYM     min,7,type=4,val=0,size=2						   
                  		      0391 %%SYM     max,7,type=4,val=2,size=2						   
                  		      0392 %%SYM     flgset,7,type=4,val=4,size=2					   
                  		      0393 %%ENDD    									   
                  		      0394 %%SYM     _mccodeset,9,type=12,id=26,size=8					   
                  		      0395 %%DDS     									   
                  		      0396 %%SYM     min,7,type=4,val=0,size=2						   
                  		      0397 %%SYM     max,7,type=4,val=2,size=2						   
                  		      0398 %%SYM     flgset,7,type=4,val=4,size=2					   
                  		      0399 %%ENDD    									   
                  		      0400 %%SYM     _rsscodeset,9,type=12,id=27,size=8					   
                  		      0401 %%DDS     									   
                  		      0402 %%SYM     min,7,type=4,val=0,size=2						   
                  		      0403 %%SYM     max,7,type=4,val=2,size=2						   
                  		      0404 %%SYM     flgset,7,type=4,val=4,size=2					   
                  		      0405 %%ENDD    									   
                  		      0406 %%SYM     _compositeset,9,type=12,id=28,size=4				   
                  		      0407 %%DDS     									   
                  		      0408 %%SYM     flgset,7,type=4,val=0,size=2					   
                  		      0409 %%SYM     separator,7,type=2,val=2,size=1					   
                  		      0410 %%SYM     rsv,7,type=2,val=3,size=1						   
                  		      0411 %%ENDD    									   
                  		      0412 %%SYM     _bcrcodeset,9,type=12,id=29,size=60				   
                  		      0413 %%DDS     									   
                  		      0414 %%SYM     JAN,7,sym=14,val=0,size=4						   
                  		      0415 %%SYM     CODE39,7,sym=15,val=4,size=8					   
                  		      0416 %%SYM     EAN128,7,sym=16,val=12,size=8					   
                  		      0417 %%SYM     CODE128,7,sym=17,val=20,size=8					   
                  		      0418 %%SYM     ITF,7,sym=18,val=28,size=8						   
                  		      0419 %%SYM     NW7,7,sym=19,val=36,size=8						   
                  		      0420 %%SYM     CODE93,7,sym=20,val=44,size=8					   
                  		      0421 %%SYM     TOF,7,sym=21,val=52,size=4						   
                  		      0422 %%SYM     COOP,7,sym=22,val=56,size=4					   
                  		      0423 %%ENDD    									   
                  		      0424 %%SYM     _bcrinput,9,type=12,id=30,size=132					   
                  		      0425 %%DDS     									   
                  		      0426 %%SYM     keta,7,type=3,val=0,size=2						   


   CROSS ASSEMBLER     V10-L41   (8901)  XASS-V                                           Thu 03-Jan-2019 13:05:27      PAGE-0014
											              ARM               0102
Addr     Location Object-Code	   RE Isn  Source Statement  [ ********                       ]				    Error
  		  1 2 3 4 5 6 7 8	   ....*....1....*....2....*....3....*....4....*....5....*....6....*....7....*....8
                  		      0427 %%SYM     codetype,7,type=3,val=2,size=2					   
                  		      0428 %%SYM     bcrdata,7,type=2,val=4,size=128					   
                  		      0429 %%DTY     									   
                  		      0430 %%DAR     1,128								   
                  		      0431 %%ENDD    									   
                  		      0432 %%ENDD    									   
                  		      0433 %%SYM     _bcr_result_report,9,type=12,id=31,size=12				   
                  		      0434 %%DDS     									   
                  		      0435 %%SYM     keta,7,type=3,val=0,size=2						   
                  		      0436 %%SYM     codetype,7,type=3,val=2,size=2					   
                  		      0437 %%SYM     composite,7,type=3,val=4,size=2					   
                  		      0438 %%SYM     quality,7,type=3,val=6,size=2					   
                  		      0439 %%SYM     extraType,7,type=2,val=8,size=1					   
                  		      0440 %%SYM     codelink,7,type=2,val=9,size=1					   
                  		      0441 %%ENDD    									   
                  		      0442 %%SYM     _bcr_result_qr_report,9,type=12,id=32,size=8			   
                  		      0443 %%DDS     									   
                  		      0444 %%SYM     pos,7,type=3,val=0,size=2						   
                  		      0445 %%SYM     parity,7,type=3,val=2,size=2					   
                  		      0446 %%SYM     count,7,type=3,val=4,size=2					   
                  		      0447 %%ENDD    									   
                  		      0448 %%SYM     _bcr_fulldetection_column,9,type=12,id=33,size=4			   
                  		      0449 %%DDS     									   
                  		      0450 %%SYM     min,7,type=4,val=0,size=2						   
                  		      0451 %%SYM     max,7,type=4,val=2,size=2						   
                  		      0452 %%ENDD    									   
                  		      0453 %%SYM     _bcr_fulldetection_codeset,9,type=12,id=34,size=20			   
                  		      0454 %%DDS     									   
                  		      0455 %%SYM     type,7,type=3,val=0,size=2						   
                  		      0456 %%SYM     codecount,7,type=3,val=2,size=2					   
                  		      0457 %%SYM     columneset,7,sym=33,val=4,size=16					   
                  		      0458 %%DTY     									   
                  		      0459 %%DAR     4,4								   
                  		      0460 %%ENDD    									   
                  		      0461 %%ENDD    									   
                  		      0462 %%SYM     _bcr_fulldetection_set,9,type=12,id=35,size=84			   
                  		      0463 %%DDS     									   
                  		      0464 %%SYM     typecount,7,type=3,val=0,size=2					   
                  		      0465 %%SYM     rsv1,7,type=3,val=2,size=2						   
                  		      0466 %%SYM     codeset,7,sym=34,val=4,size=80					   
                  		      0467 %%DTY     									   
                  		      0468 %%DAR     20,4								   
                  		      0469 %%ENDD    									   
                  		      0470 %%ENDD    									   
                  		      0471 %%SYM     _bcr_buzzer_action,9,type=12,id=36,size=12				   
                  		      0472 %%DDS     									   
                  		      0473 %%SYM     sw,7,type=3,val=0,size=2						   
                  		      0474 %%SYM     ontime,7,type=3,val=2,size=2					   
                  		      0475 %%SYM     offtime,7,type=3,val=4,size=2					   
                  		      0476 %%SYM     cnt,7,type=3,val=6,size=2						   
                  		      0477 %%SYM     pitch,7,type=3,val=8,size=2					   
                  		      0478 %%SYM     rsv1,7,type=3,val=10,size=2					   
                  		      0479 %%ENDD    									   
                  		      0480 %%SYM     _bcr_led_action,9,type=12,id=37,size=12				   


   CROSS ASSEMBLER     V10-L41   (8901)  XASS-V                                           Thu 03-Jan-2019 13:05:27      PAGE-0015
											              ARM               0102
Addr     Location Object-Code	   RE Isn  Source Statement  [ ********                       ]				    Error
  		  1 2 3 4 5 6 7 8	   ....*....1....*....2....*....3....*....4....*....5....*....6....*....7....*....8
                  		      0481 %%DDS     									   
                  		      0482 %%SYM     sw,7,type=3,val=0,size=2						   
                  		      0483 %%SYM     ontime,7,type=3,val=2,size=2					   
                  		      0484 %%SYM     offtime,7,type=3,val=4,size=2					   
                  		      0485 %%SYM     cnt,7,type=3,val=6,size=2						   
                  		      0486 %%SYM     color,7,type=3,val=8,size=2					   
                  		      0487 %%SYM     rsv1,7,type=3,val=10,size=2					   
                  		      0488 %%ENDD    									   
                  		      0489 %%SYM     _bcr_vibrator_action,9,type=12,id=38,size=12			   
                  		      0490 %%DDS     									   
                  		      0491 %%SYM     sw,7,type=3,val=0,size=2						   
                  		      0492 %%SYM     ontime,7,type=3,val=2,size=2					   
                  		      0493 %%SYM     offtime,7,type=3,val=4,size=2					   
                  		      0494 %%SYM     cnt,7,type=3,val=6,size=2						   
                  		      0495 %%SYM     rsv1,7,type=3,val=8,size=2						   
                  		      0496 %%SYM     rsv2,7,type=3,val=10,size=2					   
                  		      0497 %%ENDD    									   
                  		      0498 %%SYM     _file_info,9,type=12,id=39,size=272				   
                  		      0499 %%DDS     									   
                  		      0500 %%SYM     drive,7,type=2,val=0,size=2					   
                  		      0501 %%DTY     									   
                  		      0502 %%DAR     1,2								   
                  		      0503 %%ENDD    									   
                  		      0504 %%SYM     filename,7,type=2,val=2,size=254					   
                  		      0505 %%DTY     									   
                  		      0506 %%DAR     1,254								   
                  		      0507 %%ENDD    									   
                  		      0508 %%SYM     isDirectory,7,type=2,val=256,size=1				   
                  		      0509 %%SYM     filesize,7,type=7,val=260,size=4					   
                  		      0510 %%SYM     year,7,type=3,val=264,size=2					   
                  		      0511 %%SYM     month,7,type=2,val=266,size=1					   
                  		      0512 %%SYM     day,7,type=2,val=267,size=1					   
                  		      0513 %%SYM     hour,7,type=2,val=268,size=1					   
                  		      0514 %%SYM     min,7,type=2,val=269,size=1					   
                  		      0515 %%SYM     rsv2,7,type=2,val=270,size=1					   
                  		      0516 %%SYM     rsv3,7,type=2,val=271,size=1					   
                  		      0517 %%ENDD    									   
                  		      0518 %%SYM     _drive_info,9,type=12,id=40,size=16				   
                  		      0519 %%DDS     									   
                  		      0520 %%SYM     totalsize,7,type=7,val=0,size=4					   
                  		      0521 %%SYM     freesize,7,type=7,val=4,size=4					   
                  		      0522 %%SYM     invalidsize,7,type=7,val=8,size=4					   
                  		      0523 %%SYM     filecnt,7,type=3,val=12,size=2					   
                  		      0524 %%ENDD    									   
                  		      0525 %%SYM     _master_index,9,type=12,id=41,size=28				   
                  		      0526 %%DDS     									   
                  		      0527 %%SYM     datatype,7,type=3,val=0,size=2					   
                  		      0528 %%SYM     separator,7,type=2,val=2,size=1					   
                  		      0529 %%SYM     fieldcnt,7,type=1,val=3,size=1					   
                  		      0530 %%SYM     fieldlen,7,type=3,val=4,size=20					   
                  		      0531 %%DTY     									   
                  		      0532 %%DAR     2,10								   
                  		      0533 %%ENDD    									   
                  		      0534 %%SYM     rsv1,7,type=2,val=24,size=1					   


   CROSS ASSEMBLER     V10-L41   (8901)  XASS-V                                           Thu 03-Jan-2019 13:05:27      PAGE-0016
											              ARM               0102
Addr     Location Object-Code	   RE Isn  Source Statement  [ ********                       ]				    Error
  		  1 2 3 4 5 6 7 8	   ....*....1....*....2....*....3....*....4....*....5....*....6....*....7....*....8
                  		      0535 %%SYM     rsv2,7,type=2,val=25,size=1					   
                  		      0536 %%ENDD    									   
                  		      0537 %%SYM     _master_search,9,type=12,id=42,size=48				   
                  		      0538 %%DDS     									   
                  		      0539 %%SYM     ope,7,type=2,val=0,size=1						   
                  		      0540 %%SYM     searchdata,7,type=2,val=4,size=40					   
                  		      0541 %%DTY     									   
                  		      0542 %%DPT     									   
                  		      0543 %%DAR     4,10								   
                  		      0544 %%ENDD    									   
                  		      0545 %%SYM     incdeldata,7,type=2,val=44,size=1					   
                  		      0546 %%SYM     rsv1,7,type=2,val=45,size=1					   
                  		      0547 %%ENDD    									   
                  		      0548 %%SYM     _alarm_pattern,9,type=12,id=43,size=76				   
                  		      0549 %%DDS     									   
                  		      0550 %%SYM     ontime,7,type=3,val=0,size=2					   
                  		      0551 %%SYM     offtime,7,type=3,val=2,size=2					   
                  		      0552 %%SYM     swBuzzer,7,type=3,val=4,size=2					   
                  		      0553 %%SYM     swVibration,7,type=3,val=6,size=2					   
                  		      0554 %%SYM     swLed,7,type=3,val=8,size=2					   
                  		      0555 %%SYM     count,7,type=3,val=10,size=2					   
                  		      0556 %%SYM     message,7,type=2,val=12,size=64					   
                  		      0557 %%DTY     									   
                  		      0558 %%DAR     1,64								   
                  		      0559 %%ENDD    									   
                  		      0560 %%ENDD    									   
                  		      0561 %%SYM     _lost_alarm,9,type=12,id=44,size=92				   
                  		      0562 %%DDS     									   
                  		      0563 %%SYM     sw,7,type=3,val=0,size=2						   
                  		      0564 %%SYM     watchtime,7,type=3,val=2,size=2					   
                  		      0565 %%SYM     timestart,7,sym=3,val=4,size=4					   
                  		      0566 %%SYM     timestop,7,sym=3,val=8,size=4					   
                  		      0567 %%SYM     interval,7,type=3,val=12,size=2					   
                  		      0568 %%SYM     crsv1,7,type=2,val=14,size=2					   
                  		      0569 %%DTY     									   
                  		      0570 %%DAR     1,2								   
                  		      0571 %%ENDD    									   
                  		      0572 %%SYM     pattern,7,sym=43,val=16,size=76					   
                  		      0573 %%ENDD    									   
                  		      0574 %%SYM     _alarm,9,type=12,id=45,size=84					   
                  		      0575 %%DDS     									   
                  		      0576 %%SYM     sw,7,type=3,val=0,size=2						   
                  		      0577 %%SYM     crsv1,7,type=2,val=2,size=2					   
                  		      0578 %%DTY     									   
                  		      0579 %%DAR     1,2								   
                  		      0580 %%ENDD    									   
                  		      0581 %%SYM     time,7,sym=3,val=4,size=4						   
                  		      0582 %%SYM     pattern,7,sym=43,val=8,size=76					   
                  		      0583 %%ENDD    									   
                  		      0584 %%SYM     _schedule,9,type=12,id=46,size=268					   
                  		      0585 %%DDS     									   
                  		      0586 %%SYM     sw,7,type=3,val=0,size=2						   
                  		      0587 %%SYM     crsv1,7,type=2,val=2,size=2					   
                  		      0588 %%DTY     									   


   CROSS ASSEMBLER     V10-L41   (8901)  XASS-V                                           Thu 03-Jan-2019 13:05:27      PAGE-0017
											              ARM               0102
Addr     Location Object-Code	   RE Isn  Source Statement  [ ********                       ]				    Error
  		  1 2 3 4 5 6 7 8	   ....*....1....*....2....*....3....*....4....*....5....*....6....*....7....*....8
                  		      0589 %%DAR     1,2								   
                  		      0590 %%ENDD    									   
                  		      0591 %%SYM     time,7,sym=3,val=4,size=4						   
                  		      0592 %%SYM     filename,7,type=2,val=8,size=260					   
                  		      0593 %%DTY     									   
                  		      0594 %%DAR     1,260								   
                  		      0595 %%ENDD    									   
                  		      0596 %%ENDD    									   
                  		      0597 %%SYM     _SEARCH_INDEX,9,type=12,id=47,size=48				   
                  		      0598 %%DDS     									   
                  		      0599 %%SYM     recordFormat,7,type=3,val=0,size=2					   
                  		      0600 %%SYM     recordLength,7,type=3,val=2,size=2					   
                  		      0601 %%SYM     separator,7,type=2,val=4,size=1					   
                  		      0602 %%SYM     dmy,7,type=2,val=5,size=1						   
                  		      0603 %%SYM     sortType,7,type=3,val=6,size=2					   
                  		      0604 %%SYM     indexMode,7,type=3,val=8,size=2					   
                  		      0605 %%SYM     indexNum,7,type=3,val=10,size=2					   
                  		      0606 %%SYM     indexPosition,7,type=3,val=12,size=18				   
                  		      0607 %%DTY     									   
                  		      0608 %%DAR     2,9								   
                  		      0609 %%ENDD    									   
                  		      0610 %%SYM     indexLength,7,type=3,val=30,size=18				   
                  		      0611 %%DTY     									   
                  		      0612 %%DAR     2,9								   
                  		      0613 %%ENDD    									   
                  		      0614 %%ENDD    									   
                  		      0615 %%SYM     WLanParam,8,type=11,id=48						   
                  		      0616 %%DEN     									   
                  		      0617 %%SYM     PRM_TERMINALIP,5,type=5,val='1'					   
                  		      0618 %%SYM     PRM_SUBNETMASK,5,type=5,val='2'					   
                  		      0619 %%SYM     PRM_GATEWAYIP,5,type=5,val='3'					   
                  		      0620 %%SYM     PRM_HOSTIP,5,type=5,val='4'					   
                  		      0621 %%SYM     PRM_DHCPENABLE,5,type=5,val='5'					   
                  		      0622 %%SYM     PRM_TERMINALNAME,5,type=5,val='6'					   
                  		      0623 %%SYM     PRM_PRI_DNS_ADDR,5,type=5,val='7'					   
                  		      0624 %%SYM     PRM_SEC_DNS_ADDR,5,type=5,val='8'					   
                  		      0625 %%SYM     PRM_FTP_PASV,5,type=5,val='9'					   
                  		      0626 %%SYM     PRM_FTP_PORTMODE,5,type=5,val='10'					   
                  		      0627 %%SYM     PRM_USE_FTPS,5,type=5,val='11'					   
                  		      0628 %%SYM     PRM_SOCKET_NOTIFY,5,type=5,val='12'				   
                  		      0629 %%SYM     PRM_FTP_TRANSMODE,5,type=5,val='13'				   
                  		      0630 %%SYM     PRM_FTP_EPHEMERAL_PORT,5,type=5,val='14'				   
                  		      0631 %%SYM     PRM_FTP_SIZECHECK,5,type=5,val='15'				   
                  		      0632 %%SYM     PRM_FTP_TEMPDRIVE,5,type=5,val='16'				   
                  		      0633 %%SYM     PRM_COMM_TRANSMODE,5,type=5,val='17'				   
                  		      0634 %%SYM     PRM_PREAMBLETYPE,5,type=5,val='101'				   
                  		      0635 %%SYM     PRM_RFRATE,5,type=5,val='102'					   
                  		      0636 %%SYM     PRM_WEPAUTHENTICATIONTYPE,5,type=5,val='103'			   
                  		      0637 %%SYM     PRM_WPAAUTHENTICATIONMODE,5,type=5,val='104'			   
                  		      0638 %%SYM     PRM_BEACONLOSTCOUNT,5,type=5,val='105'				   
                  		      0639 %%SYM     PRM_PWMODE,5,type=5,val='106'					   
                  		      0640 %%SYM     PRM_POWERSAVETIME,5,type=5,val='107'				   
                  		      0641 %%SYM     PRM_INFRASSID,5,type=5,val='108'					   
                  		      0642 %%SYM     PRM_INFRAWEPINDEX,5,type=5,val='109'				   


   CROSS ASSEMBLER     V10-L41   (8901)  XASS-V                                           Thu 03-Jan-2019 13:05:27      PAGE-0018
											              ARM               0102
Addr     Location Object-Code	   RE Isn  Source Statement  [ ********                       ]				    Error
  		  1 2 3 4 5 6 7 8	   ....*....1....*....2....*....3....*....4....*....5....*....6....*....7....*....8
                  		      0643 %%SYM     PRM_INFRAWEP_1,5,type=5,val='110'					   
                  		      0644 %%SYM     PRM_INFRAWEP_2,5,type=5,val='111'					   
                  		      0645 %%SYM     PRM_INFRAWEP_3,5,type=5,val='112'					   
                  		      0646 %%SYM     PRM_INFRAWEP_4,5,type=5,val='113'					   
                  		      0647 %%SYM     PRM_ADHOCCHANNEL,5,type=5,val='114'				   
                  		      0648 %%SYM     PRM_ADHOCSSID,5,type=5,val='115'					   
                  		      0649 %%SYM     PRM_ADHOCWEPINDEX,5,type=5,val='116'				   
                  		      0650 %%SYM     PRM_ADHOCWEP_1,5,type=5,val='117'					   
                  		      0651 %%SYM     PRM_ADHOCWEP_2,5,type=5,val='118'					   
                  		      0652 %%SYM     PRM_ADHOCWEP_3,5,type=5,val='119'					   
                  		      0653 %%SYM     PRM_ADHOCWEP_4,5,type=5,val='120'					   
                  		      0654 %%SYM     PRM_WPACIPHERMODE,5,type=5,val='121'				   
                  		      0655 %%SYM     PRM_PRESHAREDKEY,5,type=5,val='122'				   
                  		      0656 %%SYM     PRM_USERNAME,5,type=5,val='123'					   
                  		      0657 %%SYM     PRM_PASSWORD,5,type=5,val='124'					   
                  		      0658 %%SYM     PRM_ROOTCAFILENAME,5,type=5,val='125'				   
                  		      0659 %%SYM     PRM_CERTFILENAME,5,type=5,val='126'				   
                  		      0660 %%SYM     PRM_PRIVATEKEYFILENAME,5,type=5,val='127'				   
                  		      0661 %%SYM     PRM_MAC_ADDR,5,type=5,val='128'					   
                  		      0662 %%SYM     PRM_NETWORKMODE,5,type=5,val='129'					   
                  		      0663 %%SYM     PRM_WLAN_READY,5,type=5,val='130'					   
                  		      0664 %%SYM     PRM_RSSI_THRESH,5,type=5,val='131'					   
                  		      0665 %%SYM     PRM_INFRACHANNEL,5,type=5,val='132'				   
                  		      0666 %%SYM     PRM_RADIUS_LOGOFF,5,type=5,val='133'				   
                  		      0667 %%SYM     PRM_WLAN_INFRA_802d11_MODE,5,type=5,val='134'			   
                  		      0668 %%SYM     PRM_INFRACHANNEL_5G,5,type=5,val='135'				   
                  		      0669 %%SYM     PRM_PINCODE,5,type=5,val='201'					   
                  		      0670 %%SYM     PRM_LOCALDEVICENAME,5,type=5,val='202'				   
                  		      0671 %%SYM     PRM_BD_ADDR,5,type=5,val='203'					   
                  		      0672 %%SYM     PRM_CON_BD_ADDR,5,type=5,val='204'					   
                  		      0673 %%SYM     PRM_SECURITYMODE,5,type=5,val='205'				   
                  		      0674 %%SYM     PRM_BD_DTRMODE,5,type=5,val='206'					   
                  		      0675 %%SYM     PRM_BLUE_SPPMODE,5,type=5,val='207'				   
                  		      0676 %%SYM     PRM_LAST_TARGET_BD_ADDR,5,type=5,val='208'				   
                  		      0677 %%SYM     PRM_TELNUMBER,5,type=5,val='301'					   
                  		      0678 %%SYM     PRM_PPP_USERNAME,5,type=5,val='302'				   
                  		      0679 %%SYM     PRM_PPP_PASSWORD,5,type=5,val='303'				   
                  		      0680 %%SYM     PRM_USE_PAP,5,type=5,val='304'					   
                  		      0681 %%SYM     PRM_USE_CHAP,5,type=5,val='305'					   
                  		      0682 %%SYM     PRM_PPP_TIMEOUT,5,type=5,val='306'					   
                  		      0683 %%SYM     PRM_PPP_HANGUP,5,type=5,val='307'					   
                  		      0684 %%SYM     PRM_MODEM_ATCOMMAND,5,type=5,val='401'				   
                  		      0685 %%SYM     PRM_MODEM_TELNUMBER,5,type=5,val='402'				   
                  		      0686 %%SYM     PRM_MODEM_DIALTYPE,5,type=5,val='403'				   
                  		      0687 %%SYM     PRM_MODEM_DIALTIMEOUT,5,type=5,val='404'				   
                  		      0688 %%SYM     PRM_MODEM_REDIALCOUNT,5,type=5,val='405'				   
                  		      0689 %%SYM     PRM_MODEM_REDIALINTERVAL,5,type=5,val='406'			   
                  		      0690 %%SYM     PRM_MODEM_CRADLERATE,5,type=5,val='407'				   
                  		      0691 %%ENDD    									   
                  		      0692 %%SYM     _st_rf_configset,9,type=12,id=49,size=8				   
                  		      0693 %%DDS     									   
                  		      0694 %%SYM     NetworkMode,7,type=2,val=0,size=1					   
                  		      0695 %%SYM     AdhocCh,7,type=2,val=1,size=1					   
                  		      0696 %%SYM     Preamble,7,type=2,val=2,size=1					   


   CROSS ASSEMBLER     V10-L41   (8901)  XASS-V                                           Thu 03-Jan-2019 13:05:27      PAGE-0019
											              ARM               0102
Addr     Location Object-Code	   RE Isn  Source Statement  [ ********                       ]				    Error
  		  1 2 3 4 5 6 7 8	   ....*....1....*....2....*....3....*....4....*....5....*....6....*....7....*....8
                  		      0697 %%SYM     WepAuthtype,7,type=2,val=3,size=1					   
                  		      0698 %%SYM     rate,7,type=2,val=4,size=1						   
                  		      0699 %%SYM     PwMode,7,type=2,val=5,size=1					   
                  		      0700 %%SYM     PowerSavetime,7,type=2,val=6,size=1				   
                  		      0701 %%SYM     BeaconLostcount,7,type=2,val=7,size=1				   
                  		      0702 %%ENDD    									   
                  		      0703 %%SYM     _st_rf_connectioninfo,9,type=12,id=50,size=12			   
                  		      0704 %%DDS     									   
                  		      0705 %%SYM     AuthStatus,7,type=2,val=0,size=1					   
                  		      0706 %%SYM     Ch,7,type=2,val=1,size=1						   
                  		      0707 %%SYM     MacAddress,7,type=2,val=2,size=6					   
                  		      0708 %%DTY     									   
                  		      0709 %%DAR     1,6								   
                  		      0710 %%ENDD    									   
                  		      0711 %%SYM     Rssi,7,type=2,val=8,size=1						   
                  		      0712 %%ENDD    									   
                  		      0713 %%SYM     _st_wep_info,9,type=12,id=51,size=20				   
                  		      0714 %%DDS     									   
                  		      0715 %%SYM     size,7,type=7,val=0,size=4						   
                  		      0716 %%SYM     wep,7,type=2,val=4,size=14						   
                  		      0717 %%DTY     									   
                  		      0718 %%DAR     1,14								   
                  		      0719 %%ENDD    									   
                  		      0720 %%ENDD    									   
                  		      0721 %%SYM     _st_rf_securityinfoset,9,type=12,id=52,size=96			   
                  		      0722 %%DDS     									   
                  		      0723 %%SYM     ssid,7,type=2,val=0,size=33					   
                  		      0724 %%DTY     									   
                  		      0725 %%DAR     1,33								   
                  		      0726 %%ENDD    									   
                  		      0727 %%SYM     ssid_size,7,type=2,val=33,size=1					   
                  		      0728 %%SYM     wep_selected,7,type=2,val=34,size=1				   
                  		      0729 %%SYM     wep_size,7,type=2,val=35,size=4					   
                  		      0730 %%DTY     									   
                  		      0731 %%DAR     1,4								   
                  		      0732 %%ENDD    									   
                  		      0733 %%SYM     wep,7,type=2,val=39,size=56					   
                  		      0734 %%DTY     									   
                  		      0735 %%DAR     1,4,14								   
                  		      0736 %%ENDD    									   
                  		      0737 %%ENDD    									   
                  		      0738 %%SYM     _st_rf_securityauthset,9,type=12,id=53,size=908			   
                  		      0739 %%DDS     									   
                  		      0740 %%SYM     psk_len,7,type=3,val=0,size=2					   
                  		      0741 %%SYM     psk,7,type=2,val=2,size=64						   
                  		      0742 %%DTY     									   
                  		      0743 %%DAR     1,64								   
                  		      0744 %%ENDD    									   
                  		      0745 %%SYM     usr_id_len,7,type=3,val=66,size=2					   
                  		      0746 %%SYM     usr_id,7,type=2,val=68,size=33					   
                  		      0747 %%DTY     									   
                  		      0748 %%DAR     1,33								   
                  		      0749 %%ENDD    									   
                  		      0750 %%SYM     usr_pass_len,7,type=3,val=102,size=2				   


   CROSS ASSEMBLER     V10-L41   (8901)  XASS-V                                           Thu 03-Jan-2019 13:05:27      PAGE-0020
											              ARM               0102
Addr     Location Object-Code	   RE Isn  Source Statement  [ ********                       ]				    Error
  		  1 2 3 4 5 6 7 8	   ....*....1....*....2....*....3....*....4....*....5....*....6....*....7....*....8
                  		      0751 %%SYM     usr_pass,7,type=2,val=104,size=33					   
                  		      0752 %%DTY     									   
                  		      0753 %%DAR     1,33								   
                  		      0754 %%ENDD    									   
                  		      0755 %%SYM     rootca_filename,7,type=2,val=137,size=256				   
                  		      0756 %%DTY     									   
                  		      0757 %%DAR     1,256								   
                  		      0758 %%ENDD    									   
                  		      0759 %%SYM     cert_filename,7,type=2,val=393,size=256				   
                  		      0760 %%DTY     									   
                  		      0761 %%DAR     1,256								   
                  		      0762 %%ENDD    									   
                  		      0763 %%SYM     prvkey_filename,7,type=2,val=649,size=256				   
                  		      0764 %%DTY     									   
                  		      0765 %%DAR     1,256								   
                  		      0766 %%ENDD    									   
                  		      0767 %%ENDD    									   
                  		      0768 %%SYM     btsockaddr,9,type=12,id=54,size=16					   
                  		      0769 %%DDS     									   
                  		      0770 %%SYM     sa_family,7,type=4,val=0,size=2					   
                  		      0771 %%SYM     sa_data,7,type=2,val=2,size=14					   
                  		      0772 %%DTY     									   
                  		      0773 %%DAR     1,14								   
                  		      0774 %%ENDD    									   
                  		      0775 %%ENDD    									   
                  		      0776 %%SYM     btin_addr,9,type=12,id=55,size=4					   
                  		      0777 %%DDS     									   
                  		      0778 %%SYM     ,10,type=13,id=56,size=4						   
                  		      0779 %%DDS     									   
                  		      0780 %%SYM     ,9,type=12,id=57,size=4						   
                  		      0781 %%DDS     									   
                  		      0782 %%SYM     s_b1,7,type=2,val=0,size=1						   
                  		      0783 %%SYM     s_b2,7,type=2,val=1,size=1						   
                  		      0784 %%SYM     s_b3,7,type=2,val=2,size=1						   
                  		      0785 %%SYM     s_b4,7,type=2,val=3,size=1						   
                  		      0786 %%ENDD    									   
                  		      0787 %%SYM     S_un_b,7,sym=57,val=0,size=4					   
                  		      0788 %%SYM     ,9,type=12,id=58,size=4						   
                  		      0789 %%DDS     									   
                  		      0790 %%SYM     s_w1,7,type=4,val=0,size=2						   
                  		      0791 %%SYM     s_w2,7,type=4,val=2,size=2						   
                  		      0792 %%ENDD    									   
                  		      0793 %%SYM     S_un_w,7,sym=58,val=0,size=4					   
                  		      0794 %%SYM     S_addr,7,type=8,val=0,size=4					   
                  		      0795 %%ENDD    									   
                  		      0796 %%SYM     S_un,7,sym=56,val=0,size=4						   
                  		      0797 %%ENDD    									   
                  		      0798 %%SYM     btsockaddr_in,9,type=12,id=59,size=16				   
                  		      0799 %%DDS     									   
                  		      0800 %%SYM     sin_family,7,type=3,val=0,size=2					   
                  		      0801 %%SYM     sin_port,7,type=4,val=2,size=2					   
                  		      0802 %%SYM     sin_addr,7,sym=55,val=4,size=4					   
                  		      0803 %%SYM     sin_zero,7,type=2,val=8,size=8					   
                  		      0804 %%DTY     									   


   CROSS ASSEMBLER     V10-L41   (8901)  XASS-V                                           Thu 03-Jan-2019 13:05:27      PAGE-0021
											              ARM               0102
Addr     Location Object-Code	   RE Isn  Source Statement  [ ********                       ]				    Error
  		  1 2 3 4 5 6 7 8	   ....*....1....*....2....*....3....*....4....*....5....*....6....*....7....*....8
                  		      0805 %%DAR     1,8								   
                  		      0806 %%ENDD    									   
                  		      0807 %%ENDD    									   
                  		      0808 %%SYM     btfd_set,9,type=12,id=60,size=260					   
                  		      0809 %%DDS     									   
                  		      0810 %%SYM     fd_count,7,type=6,val=0,size=4					   
                  		      0811 %%SYM     fd_array,7,type=5,val=4,size=256					   
                  		      0812 %%DTY     									   
                  		      0813 %%DAR     4,64								   
                  		      0814 %%ENDD    									   
                  		      0815 %%ENDD    									   
                  		      0816 %%SYM     bttimeval,9,type=12,id=61,size=8					   
                  		      0817 %%DDS     									   
                  		      0818 %%SYM     tv_sec,7,type=7,val=0,size=4					   
                  		      0819 %%SYM     tv_usec,7,type=7,val=4,size=4					   
                  		      0820 %%ENDD    									   
                  		      0821 %%SYM     bthostent,9,type=12,id=62,size=24					   
                  		      0822 %%DDS     									   
                  		      0823 %%SYM     h_name,7,type=2,val=0,size=4					   
                  		      0824 %%DTY     									   
                  		      0825 %%DPT     									   
                  		      0826 %%ENDD    									   
                  		      0827 %%SYM     h_aliases,7,type=2,val=4,size=4					   
                  		      0828 %%DTY     									   
                  		      0829 %%DPT     									   
                  		      0830 %%DAR     4,1								   
                  		      0831 %%ENDD    									   
                  		      0832 %%SYM     h_addrtype,7,type=4,val=8,size=2					   
                  		      0833 %%SYM     h_length,7,type=4,val=10,size=2					   
                  		      0834 %%SYM     h_addr_list,7,type=2,val=12,size=12				   
                  		      0835 %%DTY     									   
                  		      0836 %%DPT     									   
                  		      0837 %%DAR     4,3								   
                  		      0838 %%ENDD    									   
                  		      0839 %%ENDD    									   
                  		      0840 %%SYM     _st_ftpconfig,9,type=12,id=63,size=404				   
                  		      0841 %%DDS     									   
                  		      0842 %%SYM     timeout,7,type=7,val=0,size=4					   
                  		      0843 %%SYM     cancelkey,7,type=7,val=4,size=4					   
                  		      0844 %%SYM     target_ip,7,type=8,val=8,size=4					   
                  		      0845 %%SYM     ftp_portnum,7,type=4,val=12,size=2					   
                  		      0846 %%SYM     rsv1,7,type=4,val=14,size=2					   
                  		      0847 %%SYM     usrname,7,type=2,val=16,size=65					   
                  		      0848 %%DTY     									   
                  		      0849 %%DAR     1,65								   
                  		      0850 %%ENDD    									   
                  		      0851 %%SYM     password,7,type=2,val=81,size=65					   
                  		      0852 %%DTY     									   
                  		      0853 %%DAR     1,65								   
                  		      0854 %%ENDD    									   
                  		      0855 %%SYM     logfilename,7,type=2,val=146,size=256				   
                  		      0856 %%DTY     									   
                  		      0857 %%DAR     1,256								   
                  		      0858 %%ENDD    									   


   CROSS ASSEMBLER     V10-L41   (8901)  XASS-V                                           Thu 03-Jan-2019 13:05:27      PAGE-0022
											              ARM               0102
Addr     Location Object-Code	   RE Isn  Source Statement  [ ********                       ]				    Error
  		  1 2 3 4 5 6 7 8	   ....*....1....*....2....*....3....*....4....*....5....*....6....*....7....*....8
                  		      0859 %%ENDD    									   
                  		      0860 %%SYM     _st_ftpsconfig,9,type=12,id=64,size=268				   
                  		      0861 %%DDS     									   
                  		      0862 %%SYM     ftps_protocol,7,type=5,val=0,size=4				   
                  		      0863 %%SYM     ftps_data_encrypt,7,type=5,val=4,size=4				   
                  		      0864 %%SYM     ftps_verify,7,type=5,val=8,size=4					   
                  		      0865 %%SYM     ftps_certfile,7,type=2,val=12,size=256				   
                  		      0866 %%DTY     									   
                  		      0867 %%DAR     1,256								   
                  		      0868 %%ENDD    									   
                  		      0869 %%ENDD    									   
                  		      0870 %%SYM     _rfstatus,9,type=12,id=65,size=12					   
                  		      0871 %%DDS     									   
                  		      0872 %%SYM     ip_adr,7,type=2,val=0,size=4					   
                  		      0873 %%DTY     									   
                  		      0874 %%DAR     1,4								   
                  		      0875 %%ENDD    									   
                  		      0876 %%SYM     subnet,7,type=2,val=4,size=4					   
                  		      0877 %%DTY     									   
                  		      0878 %%DAR     1,4								   
                  		      0879 %%ENDD    									   
                  		      0880 %%SYM     defgate,7,type=2,val=8,size=4					   
                  		      0881 %%DTY     									   
                  		      0882 %%DAR     1,4								   
                  		      0883 %%ENDD    									   
                  		      0884 %%ENDD    									   
                  		      0885 %%SYM     _host_status,9,type=12,id=66,size=4				   
                  		      0886 %%DDS     									   
                  		      0887 %%SYM     ip_adr,7,type=2,val=0,size=4					   
                  		      0888 %%DTY     									   
                  		      0889 %%DAR     1,4								   
                  		      0890 %%ENDD    									   
                  		      0891 %%ENDD    									   
                  		      0892 %%SYM     _rfdatif,9,type=12,id=67,size=12					   
                  		      0893 %%DDS     									   
                  		      0894 %%SYM     ip,7,type=2,val=0,size=4						   
                  		      0895 %%DTY     									   
                  		      0896 %%DAR     1,4								   
                  		      0897 %%ENDD    									   
                  		      0898 %%SYM     cnt,7,type=8,val=4,size=4						   
                  		      0899 %%SYM     buf,7,type=2,val=8,size=4						   
                  		      0900 %%DTY     									   
                  		      0901 %%DPT     									   
                  		      0902 %%ENDD    									   
                  		      0903 %%ENDD    									   
                  		      0904 %%SYM     _fileup_status,9,type=12,id=68,size=8				   
                  		      0905 %%DDS     									   
                  		      0906 %%SYM     len,7,type=8,val=0,size=4						   
                  		      0907 %%SYM     ip_adr,7,type=2,val=4,size=4					   
                  		      0908 %%DTY     									   
                  		      0909 %%DAR     1,4								   
                  		      0910 %%ENDD    									   
                  		      0911 %%ENDD    									   
                  		      0912 %%SYM     _ess_status,9,type=12,id=69,size=36				   


   CROSS ASSEMBLER     V10-L41   (8901)  XASS-V                                           Thu 03-Jan-2019 13:05:27      PAGE-0023
											              ARM               0102
Addr     Location Object-Code	   RE Isn  Source Statement  [ ********                       ]				    Error
  		  1 2 3 4 5 6 7 8	   ....*....1....*....2....*....3....*....4....*....5....*....6....*....7....*....8
                  		      0913 %%DDS     									   
                  		      0914 %%SYM     ess_len,7,type=8,val=0,size=4					   
                  		      0915 %%SYM     ess_dat,7,type=2,val=4,size=32					   
                  		      0916 %%DTY     									   
                  		      0917 %%DAR     1,32								   
                  		      0918 %%ENDD    									   
                  		      0919 %%ENDD    									   
                  		      0920 %%SYM     _retry_status,9,type=12,id=70,size=4				   
                  		      0921 %%DDS     									   
                  		      0922 %%SYM     retry_count_max,7,type=2,val=0,size=1				   
                  		      0923 %%SYM     retry_timer_init,7,type=2,val=1,size=1				   
                  		      0924 %%ENDD    									   
                  		      0925 %%SYM     ,9,type=12,id=71,size=324						   
                  		      0926 %%DDS     									   
                  		      0927 %%SYM     major_version,7,type=2,val=0,size=1				   
                  		      0928 %%SYM     minor_version,7,type=2,val=1,size=1				   
                  		      0929 %%SYM     comment,7,type=2,val=2,size=62					   
                  		      0930 %%DTY     									   
                  		      0931 %%DAR     1,62								   
                  		      0932 %%ENDD    									   
                  		      0933 %%SYM     filepath,7,type=2,val=64,size=260					   
                  		      0934 %%DTY     									   
                  		      0935 %%DAR     1,260								   
                  		      0936 %%ENDD    									   
                  		      0937 %%ENDD    									   
                  		      0938 %%SYM     _st_zgnconfig,9,type=12,id=72,size=152				   
                  		      0939 %%DDS     									   
                  		      0940 %%SYM     MaxTextSize,7,type=4,val=0,size=2					   
                  		      0941 %%SYM     Timeout,7,type=4,val=2,size=2					   
                  		      0942 %%SYM     DestIP,7,type=2,val=4,size=80					   
                  		      0943 %%DTY     									   
                  		      0944 %%DAR     1,80								   
                  		      0945 %%ENDD    									   
                  		      0946 %%SYM     DestPortNo,7,type=4,val=84,size=2					   
                  		      0947 %%SYM     LocalPortNo,7,type=4,val=86,size=2					   
                  		      0948 %%SYM     TcpConnectRetry,7,type=4,val=88,size=2				   
                  		      0949 %%SYM     TtcRoundupInit,7,type=4,val=90,size=2				   
                  		      0950 %%SYM     DefineMN,7,type=2,val=92,size=1					   
                  		      0951 %%SYM     ZeroByteFile,7,type=2,val=93,size=1				   
                  		      0952 %%SYM     TransDateCheck,7,type=2,val=94,size=1				   
                  		      0953 %%SYM     TtcBranch,7,type=2,val=95,size=1					   
                  		      0954 %%SYM     Hostcord,7,type=2,val=96,size=7					   
                  		      0955 %%DTY     									   
                  		      0956 %%DAR     1,7								   
                  		      0957 %%ENDD    									   
                  		      0958 %%SYM     Termcord,7,type=2,val=103,size=7					   
                  		      0959 %%DTY     									   
                  		      0960 %%DAR     1,7								   
                  		      0961 %%ENDD    									   
                  		      0962 %%SYM     Password,7,type=2,val=110,size=6					   
                  		      0963 %%DTY     									   
                  		      0964 %%DAR     1,6								   
                  		      0965 %%ENDD    									   
                  		      0966 %%SYM     Ext,7,type=2,val=116,size=34					   


   CROSS ASSEMBLER     V10-L41   (8901)  XASS-V                                           Thu 03-Jan-2019 13:05:27      PAGE-0024
											              ARM               0102
Addr     Location Object-Code	   RE Isn  Source Statement  [ ********                       ]				    Error
  		  1 2 3 4 5 6 7 8	   ....*....1....*....2....*....3....*....4....*....5....*....6....*....7....*....8
                  		      0967 %%DTY     									   
                  		      0968 %%DAR     1,34								   
                  		      0969 %%ENDD    									   
                  		      0970 %%ENDD    									   
                  		      0971 %%SYM     _st_zgnfconfig,9,type=12,id=73,size=316				   
                  		      0972 %%DDS     									   
                  		      0973 %%SYM     FileName,7,type=2,val=0,size=256					   
                  		      0974 %%DTY     									   
                  		      0975 %%DAR     1,256								   
                  		      0976 %%ENDD    									   
                  		      0977 %%SYM     Mode,7,type=2,val=256,size=1					   
                  		      0978 %%SYM     Branch,7,type=2,val=257,size=1					   
                  		      0979 %%SYM     Pack,7,type=2,val=258,size=1					   
                  		      0980 %%SYM     Derimita,7,type=2,val=259,size=1					   
                  		      0981 %%SYM     Blocking,7,type=2,val=260,size=1					   
                  		      0982 %%SYM     ChangeCodePtn,7,type=2,val=261,size=1				   
                  		      0983 %%SYM     Cycle,7,type=2,val=262,size=1					   
                  		      0984 %%SYM     VLRec,7,type=2,val=263,size=1					   
                  		      0985 %%SYM     RecSize,7,type=4,val=264,size=2					   
                  		      0986 %%SYM     ZFileName,7,type=2,val=266,size=12					   
                  		      0987 %%DTY     									   
                  		      0988 %%DAR     1,12								   
                  		      0989 %%ENDD    									   
                  		      0990 %%SYM     FileAccessKey,7,type=2,val=278,size=6				   
                  		      0991 %%DTY     									   
                  		      0992 %%DAR     1,6								   
                  		      0993 %%ENDD    									   
                  		      0994 %%SYM     FileSub,7,type=2,val=284,size=17					   
                  		      0995 %%DTY     									   
                  		      0996 %%DAR     1,17								   
                  		      0997 %%ENDD    									   
                  		      0998 %%SYM     FileExt,7,type=2,val=301,size=14					   
                  		      0999 %%DTY     									   
                  		      1000 %%DAR     1,14								   
                  		      1001 %%ENDD    									   
                  		      1002 %%ENDD    									   
                  		      1003 %%SYM     _apli_updateinfo,9,type=12,id=74,size=328				   
                  		      1004 %%DDS     									   
                  		      1005 %%SYM     apptype,7,type=2,val=0,size=1					   
                  		      1006 %%SYM     filename,7,type=2,val=1,size=256					   
                  		      1007 %%DTY     									   
                  		      1008 %%DAR     1,256								   
                  		      1009 %%ENDD    									   
                  		      1010 %%SYM     title,7,type=2,val=257,size=65					   
                  		      1011 %%DTY     									   
                  		      1012 %%DAR     1,65								   
                  		      1013 %%ENDD    									   
                  		      1014 %%SYM     version,7,type=2,val=322,size=2					   
                  		      1015 %%DTY     									   
                  		      1016 %%DAR     1,2								   
                  		      1017 %%ENDD    									   
                  		      1018 %%SYM     priority,7,type=2,val=324,size=1					   
                  		      1019 %%ENDD    									   
                  		      1020 %%SYM     _st_comenv,9,type=12,id=75,size=12					   


   CROSS ASSEMBLER     V10-L41   (8901)  XASS-V                                           Thu 03-Jan-2019 13:05:27      PAGE-0025
											              ARM               0102
Addr     Location Object-Code	   RE Isn  Source Statement  [ ********                       ]				    Error
  		  1 2 3 4 5 6 7 8	   ....*....1....*....2....*....3....*....4....*....5....*....6....*....7....*....8
                  		      1021 %%DDS     									   
                  		      1022 %%SYM     baudRate,7,type=8,val=0,size=4					   
                  		      1023 %%SYM     stopBits,7,type=3,val=4,size=2					   
                  		      1024 %%SYM     parity,7,type=3,val=6,size=2					   
                  		      1025 %%SYM     dataLen,7,type=3,val=8,size=2					   
                  		      1026 %%ENDD    									   
                  		      1027 %%SYM     ,9,type=12,id=76,size=44						   
                  		      1028 %%DDS     									   
                  		      1029 %%SYM     ch,7,type=2,val=0,size=1						   
                  		      1030 %%SYM     signallevel,7,type=2,val=1,size=1					   
                  		      1031 %%SYM     macaddr,7,type=2,val=2,size=6					   
                  		      1032 %%DTY     									   
                  		      1033 %%DAR     1,6								   
                  		      1034 %%ENDD    									   
                  		      1035 %%SYM     ssidlen,7,type=2,val=8,size=1					   
                  		      1036 %%SYM     ssid,7,type=2,val=9,size=32					   
                  		      1037 %%DTY     									   
                  		      1038 %%DAR     1,32								   
                  		      1039 %%ENDD    									   
                  		      1040 %%SYM     rsv1,7,type=2,val=41,size=3					   
                  		      1041 %%DTY     									   
                  		      1042 %%DAR     1,3								   
                  		      1043 %%ENDD    									   
                  		      1044 %%ENDD    									   
                  		      1045 %%SYM     ,9,type=12,id=77,size=528						   
                  		      1046 %%DDS     									   
                  		      1047 %%SYM     apinfo,7,sym=76,val=0,size=528					   
                  		      1048 %%DTY     									   
                  		      1049 %%DAR     44,12								   
                  		      1050 %%ENDD    									   
                  		      1051 %%ENDD    									   
                  		      1052 %%SYM     ,9,type=12,id=78,size=44						   
                  		      1053 %%DDS     									   
                  		      1054 %%SYM     devicename,7,type=2,val=0,size=32					   
                  		      1055 %%DTY     									   
                  		      1056 %%DAR     1,32								   
                  		      1057 %%ENDD    									   
                  		      1058 %%SYM     bd_address,7,type=2,val=32,size=12					   
                  		      1059 %%DTY     									   
                  		      1060 %%DAR     1,12								   
                  		      1061 %%ENDD    									   
                  		      1062 %%ENDD    									   
                  		      1063 %%SYM     ,9,type=12,id=79,size=396						   
                  		      1064 %%DDS     									   
                  		      1065 %%SYM     bluetoothinfo,7,sym=78,val=0,size=396				   
                  		      1066 %%DTY     									   
                  		      1067 %%DAR     44,9								   
                  		      1068 %%ENDD    									   
                  		      1069 %%ENDD    									   
                  		      1070 %%SYM     ,8,type=11,id=80							   
                  		      1071 %%DEN     									   
                  		      1072 %%SYM     BT_GUI_WT_CANVAS,5,type=5,val='0'					   
                  		      1073 %%SYM     BT_GUI_WT_EDIT_FIELD,5,type=5,val='1'				   
                  		      1074 %%SYM     BT_GUI_WT_ML_EDIT,5,type=5,val='2'					   


   CROSS ASSEMBLER     V10-L41   (8901)  XASS-V                                           Thu 03-Jan-2019 13:05:27      PAGE-0026
											              ARM               0102
Addr     Location Object-Code	   RE Isn  Source Statement  [ ********                       ]				    Error
  		  1 2 3 4 5 6 7 8	   ....*....1....*....2....*....3....*....4....*....5....*....6....*....7....*....8
                  		      1075 %%SYM     BT_GUI_WT_TEXTBOX,5,type=5,val='3'					   
                  		      1076 %%SYM     BT_GUI_WT_GROUPBOX,5,type=5,val='4'				   
                  		      1077 %%SYM     BT_GUI_WT_LISTBOX,5,type=5,val='5'					   
                  		      1078 %%SYM     BT_GUI_WT_COMBOBOX,5,type=5,val='6'				   
                  		      1079 %%SYM     BT_GUI_WT_CHECKBOX,5,type=5,val='7'				   
                  		      1080 %%SYM     BT_GUI_WT_RADIOBUTTON,5,type=5,val='8'				   
                  		      1081 %%SYM     BT_GUI_WT_BUTTON,5,type=5,val='9'					   
                  		      1082 %%SYM     BT_GUI_WT_WINDOW,5,type=5,val='10'					   
                  		      1083 %%ENDD    									   
                  		      1084 %%SYM     ,8,type=11,id=81							   
                  		      1085 %%DEN     									   
                  		      1086 %%SYM     BT_GUI_PT_VISIBLE,5,type=5,val='0'					   
                  		      1087 %%SYM     BT_GUI_PT_ENABLE,5,type=5,val='1'					   
                  		      1088 %%SYM     BT_GUI_PT_FRAME,5,type=5,val='2'					   
                  		      1089 %%SYM     BT_GUI_PT_BGCOLOR,5,type=5,val='3'					   
                  		      1090 %%SYM     BT_GUI_PT_TEXTCOLOR,5,type=5,val='4'				   
                  		      1091 %%SYM     BT_GUI_PT_SEL_BGCOLOR,5,type=5,val='5'				   
                  		      1092 %%SYM     BT_GUI_PT_SEL_TEXTCOLOR,5,type=5,val='6'				   
                  		      1093 %%SYM     BT_GUI_PT_EXCLUSIVE,5,type=5,val='7'				   
                  		      1094 %%SYM     BT_GUI_PT_TEXTDATA,5,type=5,val='8'				   
                  		      1095 %%SYM     BT_GUI_PT_IMAGE_FILE,5,type=5,val='9'				   
                  		      1096 %%SYM     BT_GUI_PT_FONTSIZE,5,type=5,val='10'				   
                  		      1097 %%SYM     BT_GUI_PT_TEXTALIGN,5,type=5,val='11'				   
                  		      1098 %%SYM     BT_GUI_PT_HSCROLLBAR,5,type=5,val='12'				   
                  		      1099 %%SYM     BT_GUI_PT_VSCROLLBAR,5,type=5,val='13'				   
                  		      1100 %%SYM     BT_GUI_PT_STRLEN,5,type=5,val='14'					   
                  		      1101 %%SYM     BT_GUI_PT_CHECKED,5,type=5,val='15'				   
                  		      1102 %%SYM     BT_GUI_PT_INPUTMAX,5,type=5,val='16'				   
                  		      1103 %%SYM     BT_GUI_PT_TRG_MODE,5,type=5,val='17'				   
                  		      1104 %%SYM     BT_GUI_PT_F3KEY_MODE,5,type=5,val='18'				   
                  		      1105 %%SYM     BT_GUI_PT_FOCUSIN_EDIT,5,type=5,val='19'				   
                  		      1106 %%SYM     BT_GUI_PT_AUTOREAD_ENABLE,5,type=5,val='20'			   
                  		      1107 %%SYM     BT_GUI_PT_KEYINPUT_ENABLE,5,type=5,val='21'			   
                  		      1108 %%SYM     BT_GUI_PT_FOCUSINDICATOR,5,type=5,val='22'				   
                  		      1109 %%ENDD    									   
                  		      1110 %%SYM     _bt_gui_fontinfo,9,type=12,id=82,size=12				   
                  		      1111 %%DDS     									   
                  		      1112 %%SYM     sFontSize,7,type=3,val=0,size=2					   
                  		      1113 %%SYM     sReserve1,7,type=3,val=2,size=2					   
                  		      1114 %%SYM     ulTextColor,7,type=8,val=4,size=4					   
                  		      1115 %%SYM     ulBkgColor,7,type=8,val=8,size=4					   
                  		      1116 %%ENDD    									   
                  		      1117 %%SYM     _bt_gui_drawex,9,type=12,id=83,size=32				   
                  		      1118 %%DDS     									   
                  		      1119 %%SYM     fontinfo,7,sym=82,val=0,size=12					   
                  		      1120 %%SYM     gapx,7,type=3,val=12,size=2					   
                  		      1121 %%SYM     gapy,7,type=3,val=14,size=2					   
                  		      1122 %%SYM     type,7,type=3,val=16,size=2					   
                  		      1123 %%SYM     sReserve1,7,type=3,val=18,size=2					   
                  		      1124 %%SYM     attrg,7,sym=7,val=20,size=12					   
                  		      1125 %%ENDD    									   
                  		      1126 %%SYM     ,9,type=12,id=84,size=76						   
                  		      1127 %%DDS     									   
                  		      1128 %%SYM     anykey,7,type=5,val=0,size=4					   


   CROSS ASSEMBLER     V10-L41   (8901)  XASS-V                                           Thu 03-Jan-2019 13:05:27      PAGE-0027
											              ARM               0102
Addr     Location Object-Code	   RE Isn  Source Statement  [ ********                       ]				    Error
  		  1 2 3 4 5 6 7 8	   ....*....1....*....2....*....3....*....4....*....5....*....6....*....7....*....8
                  		      1129 %%SYM     key0,7,type=5,val=4,size=4						   
                  		      1130 %%SYM     key1,7,type=5,val=8,size=4						   
                  		      1131 %%SYM     key2,7,type=5,val=12,size=4					   
                  		      1132 %%SYM     key3,7,type=5,val=16,size=4					   
                  		      1133 %%SYM     key4,7,type=5,val=20,size=4					   
                  		      1134 %%SYM     key5,7,type=5,val=24,size=4					   
                  		      1135 %%SYM     key6,7,type=5,val=28,size=4					   
                  		      1136 %%SYM     key7,7,type=5,val=32,size=4					   
                  		      1137 %%SYM     key8,7,type=5,val=36,size=4					   
                  		      1138 %%SYM     key9,7,type=5,val=40,size=4					   
                  		      1139 %%SYM     keyEnt,7,type=5,val=44,size=4					   
                  		      1140 %%SYM     keyEsc,7,type=5,val=48,size=4					   
                  		      1141 %%SYM     keyFnUp,7,type=5,val=52,size=4					   
                  		      1142 %%SYM     keyClr,7,type=5,val=56,size=4					   
                  		      1143 %%SYM     keyL,7,type=5,val=60,size=4					   
                  		      1144 %%SYM     keyR,7,type=5,val=64,size=4					   
                  		      1145 %%SYM     keyUp,7,type=5,val=68,size=4					   
                  		      1146 %%SYM     keyDown,7,type=5,val=72,size=4					   
                  		      1147 %%ENDD    									   
                  		      1148 %%SYM     ,9,type=12,id=85,size=244						   
                  		      1149 %%DDS     									   
                  		      1150 %%SYM     data,7,type=2,val=0,size=242					   
                  		      1151 %%DTY     									   
                  		      1152 %%DAR     1,11,22								   
                  		      1153 %%ENDD    									   
                  		      1154 %%ENDD    									   
                  		      1155 %%SYM     ,9,type=12,id=86,size=24						   
                  		      1156 %%DDS     									   
                  		      1157 %%SYM     name,7,type=2,val=0,size=21					   
                  		      1158 %%DTY     									   
                  		      1159 %%DAR     1,21								   
                  		      1160 %%ENDD    									   
                  		      1161 %%ENDD    									   
                  		      1162 %%SYM     ,9,type=12,id=87,size=384						   
                  		      1163 %%DDS     									   
                  		      1164 %%SYM     item,7,sym=86,val=0,size=384					   
                  		      1165 %%DTY     									   
                  		      1166 %%DAR     24,16								   
                  		      1167 %%ENDD    									   
                  		      1168 %%ENDD    									   
                  		      1169 %%SYM     ,9,type=12,id=88,size=12						   
                  		      1170 %%DDS     									   
                  		      1171 %%SYM     year,7,type=3,val=0,size=2						   
                  		      1172 %%SYM     month,7,type=3,val=2,size=2					   
                  		      1173 %%SYM     day,7,type=3,val=4,size=2						   
                  		      1174 %%SYM     hour,7,type=3,val=6,size=2						   
                  		      1175 %%SYM     min,7,type=3,val=8,size=2						   
                  		      1176 %%SYM     sec,7,type=3,val=10,size=2						   
                  		      1177 %%ENDD    									   
                  		      1178 %%SYM     ,9,type=12,id=89,size=232						   
                  		      1179 %%DDS     									   
                  		      1180 %%SYM     mode,7,type=5,val=0,size=4						   
                  		      1181 %%SYM     title,7,type=2,val=4,size=21					   
                  		      1182 %%DTY     									   


   CROSS ASSEMBLER     V10-L41   (8901)  XASS-V                                           Thu 03-Jan-2019 13:05:27      PAGE-0028
											              ARM               0102
Addr     Location Object-Code	   RE Isn  Source Statement  [ ********                       ]				    Error
  		  1 2 3 4 5 6 7 8	   ....*....1....*....2....*....3....*....4....*....5....*....6....*....7....*....8
                  		      1183 %%DAR     1,21								   
                  		      1184 %%ENDD    									   
                  		      1185 %%SYM     l1,7,type=2,val=25,size=21						   
                  		      1186 %%DTY     									   
                  		      1187 %%DAR     1,21								   
                  		      1188 %%ENDD    									   
                  		      1189 %%SYM     l2,7,type=2,val=46,size=21						   
                  		      1190 %%DTY     									   
                  		      1191 %%DAR     1,21								   
                  		      1192 %%ENDD    									   
                  		      1193 %%SYM     l3,7,type=2,val=67,size=21						   
                  		      1194 %%DTY     									   
                  		      1195 %%DAR     1,21								   
                  		      1196 %%ENDD    									   
                  		      1197 %%SYM     l4,7,type=2,val=88,size=21						   
                  		      1198 %%DTY     									   
                  		      1199 %%DAR     1,21								   
                  		      1200 %%ENDD    									   
                  		      1201 %%SYM     l5,7,type=2,val=109,size=21					   
                  		      1202 %%DTY     									   
                  		      1203 %%DAR     1,21								   
                  		      1204 %%ENDD    									   
                  		      1205 %%SYM     l6,7,type=2,val=130,size=21					   
                  		      1206 %%DTY     									   
                  		      1207 %%DAR     1,21								   
                  		      1208 %%ENDD    									   
                  		      1209 %%SYM     l7,7,type=2,val=151,size=21					   
                  		      1210 %%DTY     									   
                  		      1211 %%DAR     1,21								   
                  		      1212 %%ENDD    									   
                  		      1213 %%SYM     buffer,7,type=2,val=172,size=4					   
                  		      1214 %%DTY     									   
                  		      1215 %%DPT     									   
                  		      1216 %%ENDD    									   
                  		      1217 %%SYM     bufsize,7,type=6,val=176,size=4					   
                  		      1218 %%SYM     emptyOK,7,type=5,val=180,size=4					   
                  		      1219 %%SYM     upkey,7,type=5,val=184,size=4					   
                  		      1220 %%SYM     downkey,7,type=5,val=188,size=4					   
                  		      1221 %%SYM     bar_read,7,type=5,val=192,size=4					   
                  		      1222 %%SYM     keychange,7,type=5,val=196,size=4					   
                  		      1223 %%SYM     defdata,7,type=2,val=200,size=21					   
                  		      1224 %%DTY     									   
                  		      1225 %%DAR     1,21								   
                  		      1226 %%ENDD    									   
                  		      1227 %%SYM     alpha,7,type=2,val=221,size=1					   
                  		      1228 %%SYM     c1,7,type=2,val=222,size=1						   
                  		      1229 %%SYM     c2,7,type=2,val=223,size=1						   
                  		      1230 %%SYM     c3,7,type=2,val=224,size=1						   
                  		      1231 %%SYM     c4,7,type=2,val=225,size=1						   
                  		      1232 %%SYM     c5,7,type=2,val=226,size=1						   
                  		      1233 %%SYM     c6,7,type=2,val=227,size=1						   
                  		      1234 %%SYM     c7,7,type=2,val=228,size=1						   
                  		      1235 %%ENDD    									   
                  		      1236 %%SYM     ,9,type=12,id=90,size=48						   


   CROSS ASSEMBLER     V10-L41   (8901)  XASS-V                                           Thu 03-Jan-2019 13:05:27      PAGE-0029
											              ARM               0102
Addr     Location Object-Code	   RE Isn  Source Statement  [ ********                       ]				    Error
  		  1 2 3 4 5 6 7 8	   ....*....1....*....2....*....3....*....4....*....5....*....6....*....7....*....8
                  		      1237 %%DDS     									   
                  		      1238 %%SYM     Name,7,type=2,val=0,size=30					   
                  		      1239 %%DTY     									   
                  		      1240 %%DAR     1,30								   
                  		      1241 %%ENDD    									   
                  		      1242 %%SYM     AdminSign,7,type=2,val=30,size=1					   
                  		      1243 %%SYM     Location,7,type=2,val=31,size=3					   
                  		      1244 %%DTY     									   
                  		      1245 %%DAR     1,3								   
                  		      1246 %%ENDD    									   
                  		      1247 %%SYM     UserId,7,type=2,val=34,size=10					   
                  		      1248 %%DTY     									   
                  		      1249 %%DAR     1,10								   
                  		      1250 %%ENDD    									   
                  		      1251 %%SYM     None,7,type=2,val=44,size=1					   
                  		      1252 %%ENDD    									   
                  		      1253 %%SYM     ,9,type=12,id=91,size=100						   
                  		      1254 %%DDS     									   
                  		      1255 %%SYM     msg1,7,type=2,val=0,size=20					   
                  		      1256 %%DTY     									   
                  		      1257 %%DAR     1,20								   
                  		      1258 %%ENDD    									   
                  		      1259 %%SYM     msg2,7,type=2,val=20,size=20					   
                  		      1260 %%DTY     									   
                  		      1261 %%DAR     1,20								   
                  		      1262 %%ENDD    									   
                  		      1263 %%SYM     msg3,7,type=2,val=40,size=20					   
                  		      1264 %%DTY     									   
                  		      1265 %%DAR     1,20								   
                  		      1266 %%ENDD    									   
                  		      1267 %%SYM     msg4,7,type=2,val=60,size=20					   
                  		      1268 %%DTY     									   
                  		      1269 %%DAR     1,20								   
                  		      1270 %%ENDD    									   
                  		      1271 %%SYM     msg5,7,type=2,val=80,size=20					   
                  		      1272 %%DTY     									   
                  		      1273 %%DAR     1,20								   
                  		      1274 %%ENDD    									   
                  		      1275 %%ENDD    									   
                  		      1276 %%LINE    000004								   
                  		      1277 %%FUNC    CheckAdminPassword,3,cls=2,type=5,ftype=1				   
                  		      1278 %%RVALUE  kind=direct,register=R0,atype=2					   
                  		      1279 @CheckAdminPassword: ;entry							   
         00000000 C05C2DE9	      1280 		   stmfd     sp!,{r6,r7,r10,r11,r12,lr}				   
         00000004 0DB0A0E1	      1281 		   mov	     r11,sp						   
                  		      1282 %%SAVE  R6,kind=direct,base=R11,offset=0,atype=6				   
                  		      1283 %%SAVE  R7,kind=direct,base=R11,offset=4,atype=6				   
                  		      1284 %%SAVE  R10,kind=direct,base=R11,offset=8,atype=6				   
                  		      1285 %%SAVE  R12,kind=direct,base=R11,offset=16,atype=6				   
00000194 00000008 65DF4DE2	      1286 		   sub	     sp,#404						   
00000194          		      1287 AS@CheckAdminPassword   set	   404		   ; stack frame total size	   
                  		      1288 %%BF	     									   
                  		      1289 %%SYM     set,0,sym=89,cls=6,val=-276,size=232				   
                  		      1290 %%SYM     ret,0,type=5,size=4,cls=6,val=0,delete 				   


   CROSS ASSEMBLER     V10-L41   (8901)  XASS-V                                           Thu 03-Jan-2019 13:05:27      PAGE-0030
											              ARM               0102
Addr     Location Object-Code	   RE Isn  Source Statement  [ ********                       ]				    Error
  		  1 2 3 4 5 6 7 8	   ....*....1....*....2....*....3....*....4....*....5....*....6....*....7....*....8
                  		      1291 %%SYM     buf,0,type=2,cls=6,val=-404,size=128				   
                  		      1292 %%DTY     									   
                  		      1293 %%DAR     1,128								   
                  		      1294 %%ENDD    									   
                  		      1295 %%SYM     sday,0,type=2,cls=6,val=-44,size=30				   
                  		      1296 %%DTY     									   
                  		      1297 %%DAR     1,30								   
                  		      1298 %%ENDD    									   
                  		      1299 %%SYM     now,0,type=2,cls=6,val=-12,size=10					   
                  		      1300 %%DTY     									   
                  		      1301 %%DAR     1,10								   
                  		      1302 %%ENDD    									   
                  		      1303 %%SCOPE   init								   
00000000 0000000C 00708DE2	      1304 		   adrl	     r7,sp,AS@CheckAdminPassword-404			   
                  		      1305 ;Expr(9): 10									   
                  		      1306 %%SCOPE   init								   
00000000 00000010 00A0A0E3	      1307 		   mov	     r10,#0						   
00000080 00000014 80608DE2	      1308 		   adrl	     r6,sp,AS@CheckAdminPassword-276			   
                  		      1309 %%LINE    000011								   
                  		      1310 ;Expr(11): get_nowtime(now,8)   						   
00000008 00000018 0810A0E3	      1311 		   mov	     r1,#8						   
00000188 0000001C 620F8DE2	      1312 		   adrl	     r0,sp,AS@CheckAdminPassword-12			   
                  		      1313 %%CALL									   
00000000 00000020 000000EB	    E 1314 		   bl	     @get_nowtime					   
                  		      1315 %%LINE    000012								   
                  		      1316 ;Expr(12): btmemset(sday,0,sizeof(sday))	   				   
0000001E 00000024 1E20A0E3	      1317 		   mov	     r2,#30						   
         00000028 0A10A0E1	      1318 		   mov	     r1,r10						   
00000168 0000002C 5A0F8DE2	      1319 		   adrl	     r0,sp,AS@CheckAdminPassword-44			   
                  		      1320 %%CALL									   
00000000 00000030 000000EB	    E 1321 		   bl	     @btmemset						   
                  		      1322 %%LINE    000013								   
                  		      1323 ;Expr(13): btmemcpy(sday,now+ 4,4)	   					   
0000018C 00000034 631F8DE2	      1324 		   adrl	     r1,sp,AS@CheckAdminPassword-8			   
00000004 00000038 0420A0E3	      1325 		   mov	     r2,#4						   
00000168 0000003C 5A0F8DE2	      1326 		   adrl	     r0,sp,AS@CheckAdminPassword-44			   
                  		      1327 %%CALL									   
00000000 00000040 000000EB	    E 1328 		   bl	     @btmemcpy						   
                  		      1329 %%LINE    000016								   
                  		      1330 ;Expr(16): btmemset(&set,0,sizeof(set)) 					   
000000E8 00000044 E820A0E3	      1331 		   mov	     r2,#232						   
         00000048 0A10A0E1	      1332 		   mov	     r1,r10						   
         0000004C 0600A0E1	      1333 		   mov	     r0,r6						   
                  		      1334 %%CALL									   
00000000 00000050 000000EB	    E 1335 		   bl	     @btmemset						   
                  		      1336 %%LINE    000017								   
                  		      1337 ;Expr(17): set.mode=0   							   
00000000 00000054 00A086E5	      1338 		   str	     r10,[r6,#0]					   
                  		      1339 %%LINE    000018								   
                  		      1340 ;Expr(18): set.buffer=buf	   						   
000000AC 00000058 AC7086E5	      1341 		   str	     r7,[r6,#172]					   
                  		      1342 %%LINE    000019								   
                  		      1343 ;Expr(19): set.bufsize=sizeof(buf)	   					   
00000080 0000005C 8000A0E3	      1344 		   mov	     r0,#128						   


   CROSS ASSEMBLER     V10-L41   (8901)  XASS-V                                           Thu 03-Jan-2019 13:05:27      PAGE-0031
											              ARM               0102
Addr     Location Object-Code	   RE Isn  Source Statement  [ ********                       ]				    Error
  		  1 2 3 4 5 6 7 8	   ....*....1....*....2....*....3....*....4....*....5....*....6....*....7....*....8
000000B0 00000060 B00086E5	      1345 		   str	     r0,[r6,#176]					   
                  		      1346 %%LINE    000020								   
                  		      1347 ;Expr(20): btstrcpy(set.l1,"Authentication")	   				   
00000019 00000064 190096E2	      1348 		   adds	     r0,r6,#25						   
00000810 00000068 A0179FE5	      1349 		   ldr	     r1,S_S1						   
                  		      1350 %%CALL									   
00000000 0000006C 000000EB	    E 1351 		   bl	     @btstrcpy						   
                  		      1352 %%LINE    000021								   
                  		      1353 ;Expr(21): btstrcpy(set.l2,"Please enter")	   				   
0000002E 00000070 2E0096E2	      1354 		   adds	     r0,r6,#46						   
0000080C 00000074 90179FE5	      1355 		   ldr	     r1,S_S2						   
                  		      1356 %%CALL									   
00000000 00000078 000000EB	    E 1357 		   bl	     @btstrcpy						   
                  		      1358 %%LINE    000022								   
                  		      1359 ;Expr(22): btstrcpy(set.l2,"  Admin password.") 				   
0000002E 0000007C 2E0096E2	      1360 		   adds	     r0,r6,#46						   
00000808 00000080 80179FE5	      1361 		   ldr	     r1,S_S3						   
                  		      1362 %%CALL									   
00000000 00000084 000000EB	    E 1363 		   bl	     @btstrcpy						   
                  		      1364 %%LINE    000023								   
                  		      1365 ;Expr(23): set.c2=1	   							   
00000001 00000088 0100A0E3	      1366 		   mov	     r0,#1						   
000000DF 0000008C DF00C6E5	      1367 		   strb	     r0,[r6,#223]					   
                  		      1368 %%LINE    000024								   
                  		      1369 ;Expr(24): set.alpha=1  							   
000000DD 00000090 DD00C6E5	      1370 		   strb	     r0,[r6,#221]					   
                  		      1371 %%LINE    000027								   
                  		      1372 ;Expr(27): btmemset(buf,0,sizeof(buf))  					   
00000080 00000094 8020A0E3	      1373 		   mov	     r2,#128						   
         00000098 0A10A0E1	      1374 		   mov	     r1,r10						   
         0000009C 0700A0E1	      1375 		   mov	     r0,r7						   
                  		      1376 %%CALL									   
00000000 000000A0 000000EB	    E 1377 		   bl	     @btmemset						   
                  		      1378 %%LINE    000028								   
                  		      1379 ;Expr(28): ret=DataInputBt(&set)	    - if -				   
         000000A4 0600A0E1	      1380 		   mov	     r0,r6						   
                  		      1381 %%CALL									   
00000000 000000A8 000000EB	    E 1382 		   bl	     @DataInputBt					   
                  		      1383 %%LINE    000030								   
                  		      1384 ;Expr(30): ret  								   
00000000 000000AC 000050E3	      1385 		   cmp	     r0,#0						   
                  		      1386 ; - then - - return -							   
                  		      1387 %%LINE    000031								   
                  		      1388 ;Expr(31): (- 1)	   							   
                  		      1389 %%SCOPE   init								   
00000000 000000B0 0000E013	      1390 		   mvnne     r0,#0						   
000000EC 000000B4 0C00001A	      1391 		   bne.x     L13						   
                  		      1392 ; - endif - - if -								   
                  		      1393 %%LINE    000036								   
                  		      1394 ;Expr(36): btmemcmp(buf,sday,4)||btstrlen(buf)!=4	   			   
                  		      1395 %%SCOPE   init								   
00000004 000000B8 0420A0E3	      1396 		   mov	     r2,#4						   
00000168 000000BC 5A1F8DE2	      1397 		   adrl	     r1,sp,AS@CheckAdminPassword-44			   
         000000C0 0700A0E1	      1398 		   mov	     r0,r7						   


   CROSS ASSEMBLER     V10-L41   (8901)  XASS-V                                           Thu 03-Jan-2019 13:05:27      PAGE-0032
											              ARM               0102
Addr     Location Object-Code	   RE Isn  Source Statement  [ ********                       ]				    Error
  		  1 2 3 4 5 6 7 8	   ....*....1....*....2....*....3....*....4....*....5....*....6....*....7....*....8
                  		      1399 %%CALL									   
00000000 000000C4 000000EB	    E 1400 		   bl	     @btmemcmp						   
00000000 000000C8 000050E3	      1401 		   cmp	     r0,#0						   
000000E0 000000CC 0300001A	      1402 		   bne.x     L8							   
                  		      1403 %%SCOPE   init								   
         000000D0 0700A0E1	      1404 		   mov	     r0,r7						   
                  		      1405 %%CALL									   
00000000 000000D4 000000EB	    E 1406 		   bl	     @btstrlen						   
00000004 000000D8 040050E3	      1407 		   cmp	     r0,#4						   
000000E8 000000DC 0100000A	      1408 		   beq.x     L11						   
                  		      1409 L8:										   
                  		      1410 ; - then - - return -							   
                  		      1411 %%LINE    000037								   
                  		      1412 ;Expr(37): (- 2)	   							   
                  		      1413 %%SCOPE   init								   
00000001 000000E0 0100E0E3	      1414 		   mvn	     r0,#1						   
000000EC 000000E4 000000EA	      1415 		   b.x	     L13						   
                  		      1416 L11:										   
                  		      1417 ; - endif - - return -							   
                  		      1418 %%LINE    000040								   
                  		      1419 ;Expr(40): (0)  								   
                  		      1420 %%SCOPE   init								   
00000000 000000E8 0000A0E3	      1421 		   mov	     r0,#0						   
                  		      1422 L13:										   
                  		      1423 ; RET									   
                  		      1424 %%LINE    000041								   
                  		      1425 %%SCOPE init									   
                  		      1426 %%EF	     									   
00000194 000000EC 65DF8DE2	      1427 		   add	     sp,#404						   
                  		      1428 %%RESTORE	   R6								   
                  		      1429 %%RESTORE	   R7								   
                  		      1430 %%RESTORE	   R10								   
                  		      1431 %%RESTORE	   R12								   
                  		      1432 %%RETURN									   
         000000F0 C09CBDE8	      1433 		   ldmfd     sp!,{r6,r7,r10,r11,r12,pc}				   
         000000F4 		      1434 		   bnd	     4							   
                  		      1435 %%FEND    									   
                  		      1436 ;	   now -> offset -12	    array					   
                  		      1437 ;	   sday -> offset -44	    array					   
                  		      1438 ;	   set -> offset -276	    struct					   
                  		      1439 ;	   buf -> offset -404	    array					   
                  		      1440 %%LINE    000054								   
                  		      1441 %%FUNC    DataSend,3,cls=2,type=5,ftype=1					   
                  		      1442 %%RVALUE  kind=direct,register=R0,atype=2					   
                  		      1443 @DataSend: ;entry								   
         000000F4 C05C2DE9	      1444 		   stmfd     sp!,{r6,r7,r10,r11,r12,lr}				   
         000000F8 0DB0A0E1	      1445 		   mov	     r11,sp						   
                  		      1446 %%SAVE  R6,kind=direct,base=R11,offset=0,atype=6				   
                  		      1447 %%SAVE  R7,kind=direct,base=R11,offset=4,atype=6				   
                  		      1448 %%SAVE  R10,kind=direct,base=R11,offset=8,atype=6				   
                  		      1449 %%SAVE  R12,kind=direct,base=R11,offset=16,atype=6				   
00000068 000000FC 68D04DE2	      1450 		   sub	     sp,#104						   
00000068          		      1451 AS@DataSend	   set	   104		   ; stack frame total size		   
00000068          		      1452 AP@DataSend	   set	   AS@DataSend+0   ; argment offset adjust		   


   CROSS ASSEMBLER     V10-L41   (8901)  XASS-V                                           Thu 03-Jan-2019 13:05:27      PAGE-0033
											              ARM               0102
Addr     Location Object-Code	   RE Isn  Source Statement  [ ********                       ]				    Error
  		  1 2 3 4 5 6 7 8	   ....*....1....*....2....*....3....*....4....*....5....*....6....*....7....*....8
                  		      1453 %%DFP     5									   
                  		      1454 %%SYM     data,14,type=2,cls=1,reg=R6,val=0,size=4				   
                  		      1455 %%DTY     									   
                  		      1456 %%DPT     									   
                  		      1457 %%ENDD    									   
                  		      1458 %%SYM     size,14,type=5,cls=1,reg=R7,val=0,size=4				   
                  		      1459 %%SYM     rcv,14,type=2,cls=1,reg=R10,val=0,size=4				   
                  		      1460 %%DTY     									   
                  		      1461 %%DPT     									   
                  		      1462 %%ENDD    									   
                  		      1463 %%SYM     rsize,14,type=5,cls=1,reg=R12,val=0,size=4				   
                  		      1464 %%SYM     ok_disp,14,type=5,cls=6,val=24,size=4				   
                  		      1465 %%ENDD    									   
                  		      1466 %%BF	     									   
                  		      1467 %%SYM     key,0,sym=84,cls=6,val=-84,size=76					   
                  		      1468 %%SYM     ret,0,type=5,cls=6,val=-4,size=4					   
                  		      1469 %%SYM     buf,0,type=2,cls=6,val=-104,size=20				   
                  		      1470 %%DTY     									   
                  		      1471 %%DAR     1,20								   
                  		      1472 %%ENDD    									   
                  		      1473 %%SCOPE   init								   
         00000100 0060A0E1	      1474 		   mov	     r6,r0						   
                  		      1475 %%SCOPE   on,data								   
         00000104 0170A0E1	      1476 		   mov	     r7,r1						   
                  		      1477 %%SCOPE   on,size								   
         00000108 02A0A0E1	      1478 		   mov	     r10,r2						   
                  		      1479 %%SCOPE   on,rcv								   
         0000010C 03C0A0E1	      1480 		   mov	     r12,r3						   
                  		      1481 ;Expr(57): 20								   
                  		      1482 %%LINE    000059								   
                  		      1483 ;Expr(59): btmemset(&key,0,sizeof(ENABLE_WAITKEYS))	   			   
                  		      1484 %%SCOPE   init,rsize,rcv,size,data						   
0000004C 00000110 4C20A0E3	      1485 		   mov	     r2,#76						   
00000000 00000114 0010A0E3	      1486 		   mov	     r1,#0						   
00000014 00000118 14008DE2	      1487 		   adrl	     r0,sp,AS@DataSend-84				   
                  		      1488 %%CALL									   
00000000 0000011C 000000EB	    E 1489 		   bl	     @btmemset						   
                  		      1490 %%LINE    000060								   
                  		      1491 ;Expr(60): key.keyL=(1) 							   
00000001 00000120 0100A0E3	      1492 		   mov	     r0,#1						   
00000050 00000124 50008DE5	      1493 		   str	     r0,[sp,#AS@DataSend-24]				   
                  		      1494 %%LINE    000061								   
                  		      1495 ;Expr(61): key.keyR=(1) 							   
00000054 00000128 54008DE5	      1496 		   str	     r0,[sp,#AS@DataSend-20]				   
                  		      1497 %%LINE    000063								   
                  		      1498 ;Expr(63): btmemset(rcv,0,rsize)	   					   
         0000012C 0C20A0E1	      1499 		   mov	     r2,r12						   
00000000 00000130 0010A0E3	      1500 		   mov	     r1,#0						   
         00000134 0A00A0E1	      1501 		   mov	     r0,r10						   
                  		      1502 %%CALL									   
00000000 00000138 000000EB	    E 1503 		   bl	     @btmemset						   
                  		      1504 L18:										   
                  		      1505 ; - do -									   
                  		      1506 %%LINE    000071								   


   CROSS ASSEMBLER     V10-L41   (8901)  XASS-V                                           Thu 03-Jan-2019 13:05:27      PAGE-0034
											              ARM               0102
Addr     Location Object-Code	   RE Isn  Source Statement  [ ********                       ]				    Error
  		  1 2 3 4 5 6 7 8	   ....*....1....*....2....*....3....*....4....*....5....*....6....*....7....*....8
                  		      1507 ;Expr(71): 0	   								   
                  		      1508 %%BB	     line=67								   
                  		      1509 %%SYM     len,0,type=5,cls=6,val=-8,size=4					   
                  		      1510 %%SCOPE   init,rsize,rcv,size,data						   
00000000 0000013C 0000A0E3	      1511 		   mov	     r0,#0						   
00000060 00000140 60008DE5	      1512 		   str	     r0,[sp,#AS@DataSend-8]				   
                  		      1513 %%LINE    000072								   
                  		      1514 ;Expr(72): ret=WLAN_sendBt(data,size,rcv,rsize,&len,10,180)	    - if -	   
000000B4 00000144 B410A0E3	      1515 		   mov	     r1,#180						   
         00000148 02002DE9	      1516 		   stmfd     sp!,{r1}						   
0000000A 0000014C 0A20A0E3	      1517 		   mov	     r2,#10						   
         00000150 04002DE9	      1518 		   stmfd     sp!,{r2}						   
00000068 00000154 68008DE2	      1519 		   adrl	     r0,sp,AS@DataSend-8+8				   
         00000158 01002DE9	      1520 		   stmfd     sp!,{r0}						   
         0000015C 0C30A0E1	      1521 		   mov	     r3,r12						   
         00000160 0A20A0E1	      1522 		   mov	     r2,r10						   
         00000164 0710A0E1	      1523 		   mov	     r1,r7						   
         00000168 0600A0E1	      1524 		   mov	     r0,r6						   
                  		      1525 %%CALL									   
00000000 0000016C 000000EB	    E 1526 		   bl	     @WLAN_sendBt					   
00000070 00000170 70008DE5	      1527 		   str	     r0,[sp,#AS@DataSend-4+12]				   
                  		      1528 %%LINE    000075								   
                  		      1529 ;Expr(75): ret  								   
0000000C 00000174 0CD08DE2	      1530 		   add	     sp,#12						   
00000000 00000178 000050E3	      1531 		   cmp	     r0,#0						   
000001F0 0000017C 1B00000A	      1532 		   beq.x     L26						   
                  		      1533 ; - then -									   
                  		      1534 %%LINE    000077								   
                  		      1535 ;Expr(77): btsprintf(buf,"ret=%d",ret)  					   
                  		      1536 %%SCOPE   init,rsize,rcv,size,data						   
         00000180 01002DE9	      1537 		   stmfd     sp!,{r0}						   
00000818 00000184 8C169FE5	      1538 		   ldr	     r1,S_S4						   
         00000188 02002DE9	      1539 		   stmfd     sp!,{r1}						   
00000008 0000018C 08208DE2	      1540 		   adrl	     r2,sp,AS@DataSend-104+8				   
         00000190 04002DE9	      1541 		   stmfd     sp!,{r2}						   
                  		      1542 %%CALL									   
00000000 00000194 000000EB	    E 1543 		   bl	     @btsprintf						   
                  		      1544 %%LINE    000078								   
                  		      1545 ;Expr(78): Buzzer()	    - if -						   
                  		      1546 %%CALL									   
00000000 00000198 000000EB	    E 1547 		   bl	     @Buzzer						   
                  		      1548 %%LINE    000080								   
                  		      1549 ;Expr(80): DspMsgBt("VNN NOK",3,"","**************","com error,","retry?","","**
                  		           ************",buf,&key) 							   
00000020 0000019C 20008DE2	      1550 		   adrl	     r0,sp,AS@DataSend-84+12				   
         000001A0 01002DE9	      1551 		   stmfd     sp!,{r0}						   
00000010 000001A4 10108DE2	      1552 		   adrl	     r1,sp,AS@DataSend-104+16				   
         000001A8 02002DE9	      1553 		   stmfd     sp!,{r1}						   
00000814 000001AC 60269FE5	      1554 		   ldr	     r2,S_S11						   
         000001B0 04002DE9	      1555 		   stmfd     sp!,{r2}						   
00000001 000001B4 010042E2	      1556 		   sub	     r0,r2,#1		   ; ldr r0,S_S10		   
         000001B8 01002DE9	      1557 		   stmfd     sp!,{r0}						   
00000008 000001BC 081042E2	      1558 		   sub	     r1,r2,#8		   ; ldr r1,S_S9		   
         000001C0 02002DE9	      1559 		   stmfd     sp!,{r1}						   


   CROSS ASSEMBLER     V10-L41   (8901)  XASS-V                                           Thu 03-Jan-2019 13:05:27      PAGE-0035
											              ARM               0102
Addr     Location Object-Code	   RE Isn  Source Statement  [ ********                       ]				    Error
  		  1 2 3 4 5 6 7 8	   ....*....1....*....2....*....3....*....4....*....5....*....6....*....7....*....8
00000013 000001C4 132042E2	      1560 		   sub	     r2,r2,#19		   ; ldr r2,S_S8		   
         000001C8 04002DE9	      1561 		   stmfd     sp!,{r2}						   
00000021 000001CC 213040E2	      1562 		   sub	     r3,r0,#33		   ; ldr r3,S_S7		   
00000010 000001D0 102042E2	      1563 		   sub	     r2,r2,#16		   ; ldr r2,S_S6		   
00000003 000001D4 0310A0E3	      1564 		   mov	     r1,#3						   
0000002A 000001D8 2A0040E2	      1565 		   sub	     r0,r0,#42		   ; ldr r0,S_S5		   
                  		      1566 %%CALL									   
00000000 000001DC 000000EB	    E 1567 		   bl	     @DspMsgBt						   
00000024 000001E0 24D08DE2	      1568 		   add	     sp,#36						   
00000000 000001E4 000050E3	      1569 		   cmp	     r0,#0						   
                  		      1570 ; - then - - return -							   
                  		      1571 %%LINE    000082								   
                  		      1572 ;Expr(82): (- 1)	   							   
                  		      1573 %%SCOPE   init								   
00000000 000001E8 0000E013	      1574 		   mvnne     r0,#0						   
000002AC 000001EC 2E00001A	      1575 		   bne.x     L46						   
                  		      1576 L26:										   
                  		      1577 %%LINE    000085								   
                  		      1578 ;Expr(85): ret  								   
                  		      1579 %%SCOPE   init,rsize,rcv,size,data						   
00000064 000001F0 64109DE5	      1580 		   ldr	     r1,[sp,#AS@DataSend-4]				   
00000000 000001F4 000051E3	      1581 		   cmp	     r1,#0						   
0000013C 000001F8 CFFFFF1A	      1582 		   bne.x     L18						   
                  		      1583 ; - if -									   
                  		      1584 %%LINE    000088								   
                  		      1585 ;Expr(88): !btmemcmp(rcv,"NG",2)	   					   
                  		      1586 %%EB	     									   
                  		      1587 %%SCOPE   init,rcv								   
00000002 000001FC 0220A0E3	      1588 		   mov	     r2,#2						   
0000081C 00000200 14169FE5	      1589 		   ldr	     r1,S_S12						   
         00000204 0A00A0E1	      1590 		   mov	     r0,r10						   
                  		      1591 %%CALL									   
00000000 00000208 000000EB	    E 1592 		   bl	     @btmemcmp						   
00000000 0000020C 000050E3	      1593 		   cmp	     r0,#0						   
0000023C 00000210 0900001A	      1594 		   bne.x     L33						   
                  		      1595 ; - then -									   
                  		      1596 %%LINE    000091								   
                  		      1597 ;Expr(91): ShowMessage("VNN NOK",(BCR_MSG*)&rcv[2],"",(1),2)	    - return -	   
                  		      1598 %%SCOPE   init,rcv								   
00000002 00000214 0210A0E3	      1599 		   mov	     r1,#2						   
         00000218 02002DE9	      1600 		   stmfd     sp!,{r1}						   
00000002 0000021C 02109AE2	      1601 		   adds	     r1,r10,#2						   
                  		      1602 %%SCOPE   off,rcv								   
00000001 00000220 0130A0E3	      1603 		   mov	     r3,#1						   
00000820 00000224 F4259FE5	      1604 		   ldr	     r2,S_S14						   
00000008 00000228 080042E2	      1605 		   sub	     r0,r2,#8		   ; ldr r0,S_S13		   
                  		      1606 %%CALL									   
000002B4 0000022C 200000EB	      1607 		   bl	     @ShowMessage					   
                  		      1608 %%LINE    000092								   
                  		      1609 ;Expr(92): (1)  								   
00000004 00000230 04D08DE2	      1610 		   add	     sp,#4						   
00000001 00000234 0100A0E3	      1611 		   mov	     r0,#1						   
000002AC 00000238 1B0000EA	      1612 		   b.x	     L46						   
                  		      1613 L33:										   


   CROSS ASSEMBLER     V10-L41   (8901)  XASS-V                                           Thu 03-Jan-2019 13:05:27      PAGE-0036
											              ARM               0102
Addr     Location Object-Code	   RE Isn  Source Statement  [ ********                       ]				    Error
  		  1 2 3 4 5 6 7 8	   ....*....1....*....2....*....3....*....4....*....5....*....6....*....7....*....8
                  		      1614 ; - endif - - if -								   
                  		      1615 %%LINE    000096								   
                  		      1616 ;Expr(96): btmemcmp(rcv,"OK",2) 						   
                  		      1617 %%SCOPE   init,rcv								   
00000002 0000023C 0220A0E3	      1618 		   mov	     r2,#2						   
00000824 00000240 DC159FE5	      1619 		   ldr	     r1,S_S15						   
         00000244 0A00A0E1	      1620 		   mov	     r0,r10						   
                  		      1621 %%CALL									   
00000000 00000248 000000EB	    E 1622 		   bl	     @btmemcmp						   
00000000 0000024C 000050E3	      1623 		   cmp	     r0,#0						   
                  		      1624 ; - then - - return -							   
                  		      1625 %%LINE    000098								   
                  		      1626 ;Expr(98): (2)  								   
                  		      1627 %%SCOPE   init								   
00000002 00000250 0200A013	      1628 		   movne     r0,#2						   
000002AC 00000254 1400001A	      1629 		   bne.x     L46						   
                  		      1630 ; - endif - - if -								   
                  		      1631 %%LINE    000102								   
                  		      1632 ;Expr(102): !btmemcmp(rcv,"OK",2)	   					   
                  		      1633 %%SCOPE   init,rcv								   
00000002 00000258 0220A0E3	      1634 		   mov	     r2,#2						   
00000828 0000025C C4159FE5	      1635 		   ldr	     r1,S_S16						   
         00000260 0A00A0E1	      1636 		   mov	     r0,r10						   
                  		      1637 %%CALL									   
00000000 00000264 000000EB	    E 1638 		   bl	     @btmemcmp						   
00000000 00000268 000050E3	      1639 		   cmp	     r0,#0						   
00000294 0000026C 0800001A	      1640 		   bne.x     L41						   
                  		      1641 ; - then -									   
                  		      1642 %%LINE    000104								   
                  		      1643 ;Expr(104): ShowMessage("VNN NOK",(BCR_MSG*)&rcv[2],"",(1),0)    - return -	   
                  		      1644 %%SCOPE   init,rcv								   
00000000 00000270 0010A0E3	      1645 		   mov	     r1,#0						   
         00000274 02002DE9	      1646 		   stmfd     sp!,{r1}						   
00000002 00000278 02109AE2	      1647 		   adds	     r1,r10,#2						   
                  		      1648 %%SCOPE   off,rcv								   
00000001 0000027C 0130A0E3	      1649 		   mov	     r3,#1						   
0000082C 00000280 A4259FE5	      1650 		   ldr	     r2,S_S18						   
00000008 00000284 080042E2	      1651 		   sub	     r0,r2,#8		   ; ldr r0,S_S17		   
                  		      1652 %%CALL									   
000002B4 00000288 090000EB	      1653 		   bl	     @ShowMessage					   
                  		      1654 %%LINE    000105								   
00000004 0000028C 04D08DE2	      1655 		   add	     sp,#4						   
000002A8 00000290 040000EA	      1656 		   b.x	     L47						   
                  		      1657 L41:										   
                  		      1658 ; - endif - - if -								   
                  		      1659 %%LINE    000110								   
                  		      1660 ;Expr(110): ok_disp	   							   
                  		      1661 %%SCOPE   init								   
00000080 00000294 80009DE5	      1662 		   ldr	     r0,[sp,#AP@DataSend+24]				   
00000000 00000298 000050E3	      1663 		   cmp	     r0,#0						   
                  		      1664 ; - then -									   
                  		      1665 %%LINE    000111								   
                  		      1666 ;Expr(111): OkNgDisp((1),3000)  						   
                  		      1667 %%SCOPE   init								   


   CROSS ASSEMBLER     V10-L41   (8901)  XASS-V                                           Thu 03-Jan-2019 13:05:27      PAGE-0037
											              ARM               0102
Addr     Location Object-Code	   RE Isn  Source Statement  [ ********                       ]				    Error
  		  1 2 3 4 5 6 7 8	   ....*....1....*....2....*....3....*....4....*....5....*....6....*....7....*....8
00000830 0000029C 8C159F15	      1668 		   ldrne     r1,S_3000						   
00000001 000002A0 0100A013	      1669 		   movne     r0,#1						   
                  		      1670 %%CALL									   
00000000 000002A4 0000001B	    E 1671 		   blne	     @OkNgDisp						   
                  		      1672 L47:										   
                  		      1673 ;winch object								   
                  		      1674 ;Expr(113): (0) 								   
                  		      1675 %%SCOPE   init								   
00000000 000002A8 0000A0E3	      1676 		   mov	     r0,#0						   
                  		      1677 L46:										   
                  		      1678 ; RET									   
                  		      1679 %%LINE    000115								   
                  		      1680 %%SCOPE init									   
                  		      1681 %%EF	     									   
00000068 000002AC 68D08DE2	      1682 		   add	     sp,#104						   
                  		      1683 %%RESTORE	   R6								   
                  		      1684 %%RESTORE	   R7								   
                  		      1685 %%RESTORE	   R10								   
                  		      1686 %%RESTORE	   R12								   
                  		      1687 %%RETURN									   
         000002B0 C09CBDE8	      1688 		   ldmfd     sp!,{r6,r7,r10,r11,r12,pc}				   
         000002B4 		      1689 		   bnd	     4							   
                  		      1690 %%FEND    									   
                  		      1691 ;	   rsize -> regid  13	    int						   
                  		      1692 ;	   rcv -> regid  11	    pointer					   
                  		      1693 ;	   len -> offset -8	    int						   
                  		      1694 ;	   size -> regid  8	    int						   
                  		      1695 ;	   data -> regid  7	    pointer					   
                  		      1696 ;	   ret -> offset -4	    int						   
                  		      1697 ;	   ok_disp -> offset 24	    int						   
                  		      1698 ;	   key -> offset -84	    struct					   
                  		      1699 ;	   buf -> offset -104	    array					   
                  		      1700 %%LINE    000118								   
                  		      1701 %%FUNC    ShowMessage,3,cls=2,type=0,ftype=1					   
                  		      1702 @ShowMessage: ;entry								   
         000002B4 C05C2DE9	      1703 		   stmfd     sp!,{r6,r7,r10,r11,r12,lr}				   
         000002B8 0DB0A0E1	      1704 		   mov	     r11,sp						   
                  		      1705 %%SAVE  R6,kind=direct,base=R11,offset=0,atype=6				   
                  		      1706 %%SAVE  R7,kind=direct,base=R11,offset=4,atype=6				   
                  		      1707 %%SAVE  R10,kind=direct,base=R11,offset=8,atype=6				   
                  		      1708 %%SAVE  R12,kind=direct,base=R11,offset=16,atype=6				   
000000C4 000002BC C4D04DE2	      1709 		   sub	     sp,#196						   
000000C4          		      1710 AS@ShowMessage  set	   196		   ; stack frame total size		   
000000C4          		      1711 AP@ShowMessage  set	   AS@ShowMessage+0	   ; argment offset adjust	   
                  		      1712 %%DFP     5									   
                  		      1713 %%SYM     title,14,type=2,cls=1,reg=R6,val=0,size=4				   
                  		      1714 %%DTY     									   
                  		      1715 %%DPT     									   
                  		      1716 %%ENDD    									   
                  		      1717 %%SYM     hmsg,14,sym=91,cls=1,reg=R7,val=0,size=4				   
                  		      1718 %%DTY     									   
                  		      1719 %%DPT     									   
                  		      1720 %%ENDD    									   
                  		      1721 %%SYM     line5,14,type=2,cls=1,reg=R10,val=0,size=4				   


   CROSS ASSEMBLER     V10-L41   (8901)  XASS-V                                           Thu 03-Jan-2019 13:05:27      PAGE-0038
											              ARM               0102
Addr     Location Object-Code	   RE Isn  Source Statement  [ ********                       ]				    Error
  		  1 2 3 4 5 6 7 8	   ....*....1....*....2....*....3....*....4....*....5....*....6....*....7....*....8
                  		      1722 %%DTY     									   
                  		      1723 %%DPT     									   
                  		      1724 %%ENDD    									   
                  		      1725 %%SYM     buzzer,14,type=5,cls=1,reg=R12,val=0,size=4			   
                  		      1726 %%SYM     beepMode,14,type=5,cls=6,val=24,size=4				   
                  		      1727 %%ENDD    									   
                  		      1728 %%BF	     									   
                  		      1729 %%SYM     l1,0,type=2,cls=6,val=-100,size=21					   
                  		      1730 %%DTY     									   
                  		      1731 %%DAR     1,21								   
                  		      1732 %%ENDD    									   
                  		      1733 %%SYM     l2,0,type=2,cls=6,val=-124,size=21					   
                  		      1734 %%DTY     									   
                  		      1735 %%DAR     1,21								   
                  		      1736 %%ENDD    									   
                  		      1737 %%SYM     l3,0,type=2,cls=6,val=-148,size=21					   
                  		      1738 %%DTY     									   
                  		      1739 %%DAR     1,21								   
                  		      1740 %%ENDD    									   
                  		      1741 %%SYM     l4,0,type=2,cls=6,val=-172,size=21					   
                  		      1742 %%DTY     									   
                  		      1743 %%DAR     1,21								   
                  		      1744 %%ENDD    									   
                  		      1745 %%SYM     l5,0,type=2,cls=6,val=-196,size=21					   
                  		      1746 %%DTY     									   
                  		      1747 %%DAR     1,21								   
                  		      1748 %%ENDD    									   
                  		      1749 %%SYM     key,0,sym=84,cls=6,val=-76,size=76					   
                  		      1750 %%SCOPE   init								   
         000002C0 0060A0E1	      1751 		   mov	     r6,r0						   
                  		      1752 %%SCOPE   on,title								   
         000002C4 0170A0E1	      1753 		   mov	     r7,r1						   
                  		      1754 %%SCOPE   on,hmsg								   
         000002C8 02A0A0E1	      1755 		   mov	     r10,r2						   
                  		      1756 %%SCOPE   on,line5								   
         000002CC 03C0A0E1	      1757 		   mov	     r12,r3						   
                  		      1758 ;Expr(119): 20+ 1								   
                  		      1759 %%LINE    000122								   
                  		      1760 ;Expr(122): btmemset(&key,0,sizeof(ENABLE_WAITKEYS))	   			   
                  		      1761 %%SCOPE   init,hmsg,buzzer,line5,title					   
0000004C 000002D0 4C20A0E3	      1762 		   mov	     r2,#76						   
00000000 000002D4 0010A0E3	      1763 		   mov	     r1,#0						   
00000078 000002D8 78008DE2	      1764 		   adrl	     r0,sp,AS@ShowMessage-76				   
                  		      1765 %%CALL									   
00000000 000002DC 000000EB	    E 1766 		   bl	     @btmemset						   
                  		      1767 %%LINE    000123								   
                  		      1768 ;Expr(123): key.key1=(1)	   						   
00000001 000002E0 0100A0E3	      1769 		   mov	     r0,#1						   
00000080 000002E4 80008DE5	      1770 		   str	     r0,[sp,#AS@ShowMessage-68]				   
                  		      1771 %%LINE    000125								   
                  		      1772 ;Expr(125): btmemset(l1,0,sizeof(l1))   					   
00000015 000002E8 1520A0E3	      1773 		   mov	     r2,#21						   
00000000 000002EC 0010A0E3	      1774 		   mov	     r1,#0						   
00000060 000002F0 60008DE2	      1775 		   adrl	     r0,sp,AS@ShowMessage-100				   


   CROSS ASSEMBLER     V10-L41   (8901)  XASS-V                                           Thu 03-Jan-2019 13:05:27      PAGE-0039
											              ARM               0102
Addr     Location Object-Code	   RE Isn  Source Statement  [ ********                       ]				    Error
  		  1 2 3 4 5 6 7 8	   ....*....1....*....2....*....3....*....4....*....5....*....6....*....7....*....8
                  		      1776 %%CALL									   
00000000 000002F4 000000EB	    E 1777 		   bl	     @btmemset						   
                  		      1778 %%LINE    000126								   
                  		      1779 ;Expr(126): btmemcpy(l1,hmsg->msg1,20)  					   
00000014 000002F8 1420A0E3	      1780 		   mov	     r2,#20						   
         000002FC 0710A0E1	      1781 		   mov	     r1,r7						   
00000060 00000300 60008DE2	      1782 		   adrl	     r0,sp,AS@ShowMessage-100				   
                  		      1783 %%CALL									   
00000000 00000304 000000EB	    E 1784 		   bl	     @btmemcpy						   
                  		      1785 %%LINE    000128								   
                  		      1786 ;Expr(128): btmemset(l2,0,sizeof(l2))   					   
00000015 00000308 1520A0E3	      1787 		   mov	     r2,#21						   
00000000 0000030C 0010A0E3	      1788 		   mov	     r1,#0						   
00000048 00000310 48008DE2	      1789 		   adrl	     r0,sp,AS@ShowMessage-124				   
                  		      1790 %%CALL									   
00000000 00000314 000000EB	    E 1791 		   bl	     @btmemset						   
                  		      1792 %%LINE    000129								   
                  		      1793 ;Expr(129): btmemcpy(l2,hmsg->msg2,20)  					   
00000014 00000318 141097E2	      1794 		   adds	     r1,r7,#20						   
00000014 0000031C 1420A0E3	      1795 		   mov	     r2,#20						   
00000048 00000320 48008DE2	      1796 		   adrl	     r0,sp,AS@ShowMessage-124				   
                  		      1797 %%CALL									   
00000000 00000324 000000EB	    E 1798 		   bl	     @btmemcpy						   
                  		      1799 %%LINE    000131								   
                  		      1800 ;Expr(131): btmemset(l3,0,sizeof(l3))   					   
00000015 00000328 1520A0E3	      1801 		   mov	     r2,#21						   
00000000 0000032C 0010A0E3	      1802 		   mov	     r1,#0						   
00000030 00000330 30008DE2	      1803 		   adrl	     r0,sp,AS@ShowMessage-148				   
                  		      1804 %%CALL									   
00000000 00000334 000000EB	    E 1805 		   bl	     @btmemset						   
                  		      1806 %%LINE    000132								   
                  		      1807 ;Expr(132): btmemcpy(l3,hmsg->msg3,20)  					   
00000028 00000338 281097E2	      1808 		   adds	     r1,r7,#40						   
00000014 0000033C 1420A0E3	      1809 		   mov	     r2,#20						   
00000030 00000340 30008DE2	      1810 		   adrl	     r0,sp,AS@ShowMessage-148				   
                  		      1811 %%CALL									   
00000000 00000344 000000EB	    E 1812 		   bl	     @btmemcpy						   
                  		      1813 %%LINE    000134								   
                  		      1814 ;Expr(134): btmemset(l4,0,sizeof(l4))   					   
00000015 00000348 1520A0E3	      1815 		   mov	     r2,#21						   
00000000 0000034C 0010A0E3	      1816 		   mov	     r1,#0						   
00000018 00000350 18008DE2	      1817 		   adrl	     r0,sp,AS@ShowMessage-172				   
                  		      1818 %%CALL									   
00000000 00000354 000000EB	    E 1819 		   bl	     @btmemset						   
                  		      1820 %%LINE    000135								   
                  		      1821 ;Expr(135): btmemcpy(l4,hmsg->msg4,20)  					   
0000003C 00000358 3C1097E2	      1822 		   adds	     r1,r7,#60						   
00000014 0000035C 1420A0E3	      1823 		   mov	     r2,#20						   
00000018 00000360 18008DE2	      1824 		   adrl	     r0,sp,AS@ShowMessage-172				   
                  		      1825 %%CALL									   
00000000 00000364 000000EB	    E 1826 		   bl	     @btmemcpy						   
                  		      1827 %%LINE    000137								   
                  		      1828 ;Expr(137): btmemset(l5,0,sizeof(l5))   					   
00000015 00000368 1520A0E3	      1829 		   mov	     r2,#21						   


   CROSS ASSEMBLER     V10-L41   (8901)  XASS-V                                           Thu 03-Jan-2019 13:05:27      PAGE-0040
											              ARM               0102
Addr     Location Object-Code	   RE Isn  Source Statement  [ ********                       ]				    Error
  		  1 2 3 4 5 6 7 8	   ....*....1....*....2....*....3....*....4....*....5....*....6....*....7....*....8
00000000 0000036C 0010A0E3	      1830 		   mov	     r1,#0						   
00000000 00000370 00008DE2	      1831 		   adrl	     r0,sp,AS@ShowMessage-196				   
                  		      1832 %%CALL									   
00000000 00000374 000000EB	    E 1833 		   bl	     @btmemset						   
                  		      1834 %%LINE    000138								   
                  		      1835 ;Expr(138): btmemcpy(l5,hmsg->msg5,20)   - if -				   
00000050 00000378 501097E2	      1836 		   adds	     r1,r7,#80						   
                  		      1837 %%SCOPE   off,hmsg								   
00000014 0000037C 1420A0E3	      1838 		   mov	     r2,#20						   
00000000 00000380 00008DE2	      1839 		   adrl	     r0,sp,AS@ShowMessage-196				   
                  		      1840 %%CALL									   
00000000 00000384 000000EB	    E 1841 		   bl	     @btmemcpy						   
                  		      1842 %%LINE    000140								   
                  		      1843 ;Expr(140): buzzer	   							   
00000000 00000388 00005CE3	      1844 		   cmp	     r12,#0						   
                  		      1845 ; - then -									   
                  		      1846 %%LINE    000141								   
                  		      1847 ;Expr(141): Beep(beepMode)	   						   
                  		      1848 %%SCOPE   init,line5,title							   
000000DC 0000038C DC009D15	      1849 		   ldrne     r0,[sp,#AP@ShowMessage+24]				   
                  		      1850 %%CALL									   
00000000 00000390 0000001B	    E 1851 		   blne	     @Beep						   
                  		      1852 ; - endif -									   
                  		      1853 %%LINE    000143								   
                  		      1854 ;Expr(143): DspMsgBt(title,5,l1,l2,l3,l4,l5,"",line5,&key)	   		   
                  		      1855 %%SCOPE   init,line5,title							   
00000078 00000394 78008DE2	      1856 		   adrl	     r0,sp,AS@ShowMessage-76				   
         00000398 01002DE9	      1857 		   stmfd     sp!,{r0}						   
         0000039C 00042DE9	      1858 		   stmfd     sp!,{r10}						   
                  		      1859 %%SCOPE   off,line5								   
00000834 000003A0 8C149FE5	      1860 		   ldr	     r1,S_S19						   
         000003A4 02002DE9	      1861 		   stmfd     sp!,{r1}						   
0000000C 000003A8 0C208DE2	      1862 		   adrl	     r2,sp,AS@ShowMessage-196+12			   
         000003AC 04002DE9	      1863 		   stmfd     sp!,{r2}						   
00000028 000003B0 28008DE2	      1864 		   adrl	     r0,sp,AS@ShowMessage-172+16			   
         000003B4 01002DE9	      1865 		   stmfd     sp!,{r0}						   
00000044 000003B8 44108DE2	      1866 		   adrl	     r1,sp,AS@ShowMessage-148+20			   
         000003BC 02002DE9	      1867 		   stmfd     sp!,{r1}						   
00000060 000003C0 60308DE2	      1868 		   adrl	     r3,sp,AS@ShowMessage-124+24			   
00000078 000003C4 78208DE2	      1869 		   adrl	     r2,sp,AS@ShowMessage-100+24			   
00000005 000003C8 0510A0E3	      1870 		   mov	     r1,#5						   
         000003CC 0600A0E1	      1871 		   mov	     r0,r6						   
                  		      1872 %%SCOPE   off,title								   
                  		      1873 %%CALL									   
00000000 000003D0 000000EB	    E 1874 		   bl	     @DspMsgBt						   
                  		      1875 %%LINE    000144								   
                  		      1876 %%SCOPE init									   
                  		      1877 %%EF	     									   
000000DC 000003D4 DCD08DE2	      1878 		   add	     sp,#220						   
                  		      1879 %%RESTORE	   R6								   
                  		      1880 %%RESTORE	   R7								   
                  		      1881 %%RESTORE	   R10								   
                  		      1882 %%RESTORE	   R12								   
                  		      1883 %%RETURN									   


   CROSS ASSEMBLER     V10-L41   (8901)  XASS-V                                           Thu 03-Jan-2019 13:05:27      PAGE-0041
											              ARM               0102
Addr     Location Object-Code	   RE Isn  Source Statement  [ ********                       ]				    Error
  		  1 2 3 4 5 6 7 8	   ....*....1....*....2....*....3....*....4....*....5....*....6....*....7....*....8
         000003D8 C09CBDE8	      1884 		   ldmfd     sp!,{r6,r7,r10,r11,r12,pc}				   
         000003DC 		      1885 		   bnd	     4							   
                  		      1886 %%FEND    									   
                  		      1887 ;	   hmsg -> regid  8	    pointer					   
                  		      1888 ;	   buzzer -> regid  13	    int						   
                  		      1889 ;	   beepMode -> offset 24    int						   
                  		      1890 ;	   line5 -> regid  11	    pointer					   
                  		      1891 ;	   title -> regid  7	    pointer					   
                  		      1892 ;	   key -> offset -76	    struct					   
                  		      1893 ;	   l1 -> offset -100	    array					   
                  		      1894 ;	   l2 -> offset -124	    array					   
                  		      1895 ;	   l3 -> offset -148	    array					   
                  		      1896 ;	   l4 -> offset -172	    array					   
                  		      1897 ;	   l5 -> offset -196	    array					   
                  		      1898 %%LINE    000149								   
                  		      1899 %%FUNC    SetLocation,3,cls=2,type=5,ftype=1					   
                  		      1900 %%RVALUE  kind=direct,register=R0,atype=2					   
                  		      1901 @SetLocation: ;entry								   
         000003DC C05C2DE9	      1902 		   stmfd     sp!,{r6,r7,r10,r11,r12,lr}				   
         000003E0 0DB0A0E1	      1903 		   mov	     r11,sp						   
                  		      1904 %%SAVE  R6,kind=direct,base=R11,offset=0,atype=6				   
                  		      1905 %%SAVE  R7,kind=direct,base=R11,offset=4,atype=6				   
                  		      1906 %%SAVE  R10,kind=direct,base=R11,offset=8,atype=6				   
                  		      1907 %%SAVE  R12,kind=direct,base=R11,offset=16,atype=6				   
00000120 000003E4 12DE4DE2	      1908 		   sub	     sp,#288						   
00000120          		      1909 AS@SetLocation  set	   288		   ; stack frame total size		   
                  		      1910 %%BF	     									   
                  		      1911 %%SYM     loc,0,type=2,cls=6,val=-4,size=4					   
                  		      1912 %%DTY     									   
                  		      1913 %%DAR     1,4								   
                  		      1914 %%ENDD    									   
                  		      1915 %%SYM     dat,0,type=2,cls=6,val=-288,size=50				   
                  		      1916 %%DTY     									   
                  		      1917 %%DAR     1,50								   
                  		      1918 %%ENDD    									   
                  		      1919 %%SYM     ret,0,type=5,cls=1,reg=R6,val=0,size=4				   
                  		      1920 %%SYM     st,0,sym=89,cls=6,val=-236,size=232				   
                  		      1921 %%SCOPE   init								   
0000011C 000003E8 47CF8DE2	      1922 		   adrl	     r12,sp,AS@SetLocation-4				   
00000000 000003EC 00A08DE2	      1923 		   adrl	     r10,sp,AS@SetLocation-288				   
00000034 000003F0 34708DE2	      1924 		   adrl	     r7,sp,AS@SetLocation-236				   
                  		      1925 ;Expr(150): 50								   
                  		      1926 %%LINE    000155								   
                  		      1927 ;Expr(155): btmemset(loc,0,sizeof(loc)) 					   
                  		      1928 %%SCOPE   init								   
00000004 000003F4 0420A0E3	      1929 		   mov	     r2,#4						   
00000000 000003F8 0010A0E3	      1930 		   mov	     r1,#0						   
         000003FC 0C00A0E1	      1931 		   mov	     r0,r12						   
                  		      1932 %%CALL									   
00000000 00000400 000000EB	    E 1933 		   bl	     @btmemset						   
                  		      1934 %%LINE    000156								   
                  		      1935 ;Expr(156): MasterFind("location",loc)  					   
         00000404 0C10A0E1	      1936 		   mov	     r1,r12						   
0000083C 00000408 2C049FE5	      1937 		   ldr	     r0,S_S20						   


   CROSS ASSEMBLER     V10-L41   (8901)  XASS-V                                           Thu 03-Jan-2019 13:05:27      PAGE-0042
											              ARM               0102
Addr     Location Object-Code	   RE Isn  Source Statement  [ ********                       ]				    Error
  		  1 2 3 4 5 6 7 8	   ....*....1....*....2....*....3....*....4....*....5....*....6....*....7....*....8
                  		      1938 %%CALL									   
00000000 0000040C 000000EB	    E 1939 		   bl	     @MasterFind					   
                  		      1940 %%LINE    000158								   
                  		      1941 ;Expr(158): LcdClear()  							   
                  		      1942 %%CALL									   
00000000 00000410 000000EB	    E 1943 		   bl	     @LcdClear						   
                  		      1944 %%LINE    000159								   
                  		      1945 ;Expr(159): btmemset(&st,0,sizeof(st))  					   
000000E8 00000414 E820A0E3	      1946 		   mov	     r2,#232						   
00000000 00000418 0010A0E3	      1947 		   mov	     r1,#0						   
         0000041C 0700A0E1	      1948 		   mov	     r0,r7						   
                  		      1949 %%CALL									   
00000000 00000420 000000EB	    E 1950 		   bl	     @btmemset						   
                  		      1951 %%LINE    000160								   
                  		      1952 ;Expr(160): st.mode=0   							   
00000000 00000424 0000A0E3	      1953 		   mov	     r0,#0						   
00000000 00000428 000087E5	      1954 		   str	     r0,[r7,#0]						   
                  		      1955 %%LINE    000161								   
                  		      1956 ;Expr(161): st.alpha=1  							   
00000001 0000042C 0110A0E3	      1957 		   mov	     r1,#1						   
000000DD 00000430 DD10C7E5	      1958 		   strb	     r1,[r7,#221]					   
                  		      1959 %%LINE    000162								   
                  		      1960 ;Expr(162): btstrcpy(st.title,"Input Your Location.")    - if -		   
00000004 00000434 040097E2	      1961 		   adds	     r0,r7,#4						   
00000838 00000438 F8139FE5	      1962 		   ldr	     r1,S_S21						   
                  		      1963 %%CALL									   
00000000 0000043C 000000EB	    E 1964 		   bl	     @btstrcpy						   
                  		      1965 %%LINE    000164								   
                  		      1966 ;Expr(164): btstrlen(loc)	   						   
         00000440 0C00A0E1	      1967 		   mov	     r0,r12						   
                  		      1968 %%CALL									   
00000000 00000444 000000EB	    E 1969 		   bl	     @btstrlen						   
00000000 00000448 000050E3	      1970 		   cmp	     r0,#0						   
0000045C 0000044C 0200000A	      1971 		   beq.x     L60						   
                  		      1972 ; - then -									   
                  		      1973 %%LINE    000165								   
                  		      1974 ;Expr(165): btstrcpy(st.l5,"Don't change -> ENT")	   			   
                  		      1975 %%SCOPE   init								   
0000006D 00000450 6D0097E2	      1976 		   adds	     r0,r7,#109						   
00000840 00000454 E4139FE5	      1977 		   ldr	     r1,S_S22						   
                  		      1978 %%CALL									   
00000000 00000458 000000EB	    E 1979 		   bl	     @btstrcpy						   
                  		      1980 L60:										   
                  		      1981 %%LINE    000167								   
                  		      1982 ;Expr(167): btsprintf(st.l1,"%s","Location Setting")	   			   
                  		      1983 %%SCOPE   init								   
00000848 0000045C E4039FE5	      1984 		   ldr	     r0,S_S24						   
         00000460 01002DE9	      1985 		   stmfd     sp!,{r0}						   
00000003 00000464 031040E2	      1986 		   sub	     r1,r0,#3		   ; ldr r1,S_S23		   
         00000468 02002DE9	      1987 		   stmfd     sp!,{r1}						   
00000019 0000046C 192097E2	      1988 		   adds	     r2,r7,#25						   
         00000470 04002DE9	      1989 		   stmfd     sp!,{r2}						   
                  		      1990 %%CALL									   
00000000 00000474 000000EB	    E 1991 		   bl	     @btsprintf						   


   CROSS ASSEMBLER     V10-L41   (8901)  XASS-V                                           Thu 03-Jan-2019 13:05:27      PAGE-0043
											              ARM               0102
Addr     Location Object-Code	   RE Isn  Source Statement  [ ********                       ]				    Error
  		  1 2 3 4 5 6 7 8	   ....*....1....*....2....*....3....*....4....*....5....*....6....*....7....*....8
                  		      1992 %%LINE    000168								   
                  		      1993 ;Expr(168): btsprintf(st.l2,"Location = %s",loc)	   			   
         00000478 00102DE9	      1994 		   stmfd     sp!,{r12}						   
00000844 0000047C C0039FE5	      1995 		   ldr	     r0,S_S25						   
         00000480 01002DE9	      1996 		   stmfd     sp!,{r0}						   
0000002E 00000484 2E1097E2	      1997 		   adds	     r1,r7,#46						   
         00000488 02002DE9	      1998 		   stmfd     sp!,{r1}						   
                  		      1999 %%CALL									   
00000000 0000048C 000000EB	    E 2000 		   bl	     @btsprintf						   
                  		      2001 %%LINE    000169								   
                  		      2002 ;Expr(169): st.c2=1	   							   
00000001 00000490 0100A0E3	      2003 		   mov	     r0,#1						   
000000DF 00000494 DF00C7E5	      2004 		   strb	     r0,[r7,#223]					   
                  		      2005 %%LINE    000172								   
                  		      2006 ;Expr(172): st.buffer=dat	   						   
000000AC 00000498 ACA087E5	      2007 		   str	     r10,[r7,#172]					   
                  		      2008 %%LINE    000173								   
                  		      2009 ;Expr(173): st.bufsize=sizeof(dat)- 1   					   
00000031 0000049C 3110A0E3	      2010 		   mov	     r1,#49						   
000000B0 000004A0 B01087E5	      2011 		   str	     r1,[r7,#176]					   
                  		      2012 %%LINE    000174								   
                  		      2013 ;Expr(174): st.emptyOK=(1)	   						   
000000B4 000004A4 B40087E5	      2014 		   str	     r0,[r7,#180]					   
                  		      2015 %%LINE    000176								   
                  		      2016 ;Expr(176): btmemset(dat,0,sizeof(dat)) 					   
00000032 000004A8 3220A0E3	      2017 		   mov	     r2,#50						   
00000000 000004AC 0010A0E3	      2018 		   mov	     r1,#0						   
         000004B0 0A00A0E1	      2019 		   mov	     r0,r10						   
                  		      2020 %%CALL									   
00000000 000004B4 000000EB	    E 2021 		   bl	     @btmemset						   
00000018 000004B8 18D08DE2	      2022 		   add	     sp,#24						   
                  		      2023 L62:										   
                  		      2024 %%LINE    000180								   
                  		      2025 ;Expr(180): ret=DataInputBt(&st)	    - if -				   
                  		      2026 %%SCOPE   init								   
         000004BC 0700A0E1	      2027 		   mov	     r0,r7						   
                  		      2028 %%CALL									   
00000000 000004C0 000000EB	    E 2029 		   bl	     @DataInputBt					   
         000004C4 0060A0E1	      2030 		   mov	     r6,r0						   
                  		      2031 %%LINE    000182								   
                  		      2032 ;Expr(182): btstrlen(loc)&&ret==- 101   					   
                  		      2033 %%SCOPE   on,ret								   
         000004C8 0C00A0E1	      2034 		   mov	     r0,r12						   
                  		      2035 %%CALL									   
00000000 000004CC 000000EB	    E 2036 		   bl	     @btstrlen						   
00000000 000004D0 000050E3	      2037 		   cmp	     r0,#0						   
000004F0 000004D4 0500000A	      2038 		   beq.x     L66						   
                  		      2039 %%SCOPE   init,ret								   
00000064 000004D8 6410E0E3	      2040 		   mvn	     r1,#100						   
         000004DC 010056E1	      2041 		   cmp	     r6,r1						   
000004F0 000004E0 0200001A	      2042 		   bne.x     L66						   
                  		      2043 ; - then -									   
                  		      2044 %%LINE    000183								   
                  		      2045 ;Expr(183): btstrcpy(dat,loc)   						   


   CROSS ASSEMBLER     V10-L41   (8901)  XASS-V                                           Thu 03-Jan-2019 13:05:27      PAGE-0044
											              ARM               0102
Addr     Location Object-Code	   RE Isn  Source Statement  [ ********                       ]				    Error
  		  1 2 3 4 5 6 7 8	   ....*....1....*....2....*....3....*....4....*....5....*....6....*....7....*....8
                  		      2046 %%SCOPE   init								   
         000004E4 0C10A0E1	      2047 		   mov	     r1,r12						   
         000004E8 0A00A0E1	      2048 		   mov	     r0,r10						   
                  		      2049 %%CALL									   
00000000 000004EC 000000EB	    E 2050 		   bl	     @btstrcpy						   
                  		      2051 L66:										   
                  		      2052 ; - endif - - if -								   
                  		      2053 %%LINE    000185								   
                  		      2054 ;Expr(185): !btstrlen(dat)	   						   
                  		      2055 %%SCOPE   init								   
         000004F0 0A00A0E1	      2056 		   mov	     r0,r10						   
                  		      2057 %%CALL									   
00000000 000004F4 000000EB	    E 2058 		   bl	     @btstrlen						   
00000000 000004F8 000050E3	      2059 		   cmp	     r0,#0						   
000004BC 000004FC EEFFFF0A	      2060 		   beq.x     L62						   
                  		      2061 ; - endif - - if -								   
                  		      2062 %%LINE    000188								   
                  		      2063 ;Expr(188): btstrlen(dat)!=3	   						   
                  		      2064 %%SCOPE   init								   
         00000500 0A00A0E1	      2065 		   mov	     r0,r10						   
                  		      2066 %%CALL									   
00000000 00000504 000000EB	    E 2067 		   bl	     @btstrlen						   
00000003 00000508 030050E3	      2068 		   cmp	     r0,#3						   
00000548 0000050C 0D00000A	      2069 		   beq.x     L74						   
                  		      2070 ; - then -									   
                  		      2071 %%LINE    000190								   
                  		      2072 ;Expr(190): DspMsg(" ***** Error *****",0,"Location is ","not correct.(1)",dat,"
                  		           ","",0)  - continue -							   
                  		      2073 %%SCOPE   init								   
00000000 00000510 0010A0E3	      2074 		   mov	     r1,#0						   
         00000514 02002DE9	      2075 		   stmfd     sp!,{r1}						   
0000084C 00000518 2C039FE5	      2076 		   ldr	     r0,S_S30						   
         0000051C 01002DE9	      2077 		   stmfd     sp!,{r0}						   
00000001 00000520 012040E2	      2078 		   sub	     r2,r0,#1		   ; ldr r2,S_S29		   
         00000524 04002DE9	      2079 		   stmfd     sp!,{r2}						   
         00000528 00042DE9	      2080 		   stmfd     sp!,{r10}						   
00000011 0000052C 113040E2	      2081 		   sub	     r3,r0,#17		   ; ldr r3,S_S28		   
0000001D 00000530 1D2042E2	      2082 		   sub	     r2,r2,#29		   ; ldr r2,S_S27		   
00000000 00000534 0010A0E3	      2083 		   mov	     r1,#0						   
00000031 00000538 310040E2	      2084 		   sub	     r0,r0,#49		   ; ldr r0,S_S26		   
                  		      2085 %%CALL									   
00000000 0000053C 000000EB	    E 2086 		   bl	     @DspMsg						   
                  		      2087 %%LINE    000191								   
00000010 00000540 10D08DE2	      2088 		   add	     sp,#16						   
000004BC 00000544 DCFFFFEA	      2089 		   b.x	     L62						   
                  		      2090 L74:										   
                  		      2091 ; - else -									   
                  		      2092 %%LINE    000195								   
                  		      2093 ;Expr(195): MasterUpd("location",dat)    - break -				   
                  		      2094 %%SCOPE   init								   
         00000548 0A10A0E1	      2095 		   mov	     r1,r10						   
00000850 0000054C FC029FE5	      2096 		   ldr	     r0,S_S31						   
                  		      2097 %%CALL									   
00000000 00000550 000000EB	    E 2098 		   bl	     @MasterUpd						   


   CROSS ASSEMBLER     V10-L41   (8901)  XASS-V                                           Thu 03-Jan-2019 13:05:27      PAGE-0045
											              ARM               0102
Addr     Location Object-Code	   RE Isn  Source Statement  [ ********                       ]				    Error
  		  1 2 3 4 5 6 7 8	   ....*....1....*....2....*....3....*....4....*....5....*....6....*....7....*....8
                  		      2099 ; RET									   
                  		      2100 %%LINE    000200								   
                  		      2101 ;Expr(200): 0   								   
                  		      2102 %%SCOPE   init								   
00000000 00000554 0000A0E3	      2103 		   mov	     r0,#0						   
                  		      2104 %%LINE    000201								   
                  		      2105 %%SCOPE init									   
                  		      2106 %%EF	     									   
00000120 00000558 12DE8DE2	      2107 		   add	     sp,#288						   
                  		      2108 %%RESTORE	   R6								   
                  		      2109 %%RESTORE	   R7								   
                  		      2110 %%RESTORE	   R10								   
                  		      2111 %%RESTORE	   R12								   
                  		      2112 %%RETURN									   
         0000055C C09CBDE8	      2113 		   ldmfd     sp!,{r6,r7,r10,r11,r12,pc}				   
         00000560 		      2114 		   bnd	     4							   
                  		      2115 %%FEND    									   
                  		      2116 ;	   ret -> regid  7  int							   
                  		      2117 ;	   loc -> offset -4	    array					   
                  		      2118 ;	   st -> offset -236	    struct					   
                  		      2119 ;	   dat -> offset -288	    array					   
                  		      2120 %%LINE    000204								   
                  		      2121 %%FUNC    MakeDataToSend,3,cls=2,type=5,ftype=1				   
                  		      2122 %%RVALUE  kind=direct,register=R0,atype=2					   
                  		      2123 @MakeDataToSend: ;entry							   
         00000560 C05C2DE9	      2124 		   stmfd     sp!,{r6,r7,r10,r11,r12,lr}				   
         00000564 0DB0A0E1	      2125 		   mov	     r11,sp						   
                  		      2126 %%SAVE  R6,kind=direct,base=R11,offset=0,atype=6				   
                  		      2127 %%SAVE  R7,kind=direct,base=R11,offset=4,atype=6				   
                  		      2128 %%SAVE  R10,kind=direct,base=R11,offset=8,atype=6				   
                  		      2129 %%SAVE  R12,kind=direct,base=R11,offset=16,atype=6				   
00000010 00000568 10D04DE2	      2130 		   sub	     sp,#16						   
00005000 0000056C 05DA4DE2	      2131 		   sub	     sp,#20480						   
00005010          		      2132 AS@MakeDataToSend	   set	   20496	   ; stack frame total size	   
                  		      2133 %%DFP     4									   
                  		      2134 %%SYM     cmd,14,type=2,cls=1,reg=R6,val=0,size=4				   
                  		      2135 %%DTY     									   
                  		      2136 %%DPT     									   
                  		      2137 %%ENDD    									   
                  		      2138 %%SYM     sub,14,type=2,cls=1,reg=R7,val=0,size=4				   
                  		      2139 %%DTY     									   
                  		      2140 %%DPT     									   
                  		      2141 %%ENDD    									   
                  		      2142 %%SYM     data,14,type=2,cls=1,reg=R10,val=0,size=4				   
                  		      2143 %%DTY     									   
                  		      2144 %%DPT     									   
                  		      2145 %%ENDD    									   
                  		      2146 %%SYM     sendData,14,type=2,cls=1,reg=R12,val=0,size=4			   
                  		      2147 %%DTY     									   
                  		      2148 %%DPT     									   
                  		      2149 %%ENDD    									   
                  		      2150 %%ENDD    									   
                  		      2151 %%BF	     									   
                  		      2152 %%SYM     loc,0,type=2,cls=6,val=-4,size=4					   


   CROSS ASSEMBLER     V10-L41   (8901)  XASS-V                                           Thu 03-Jan-2019 13:05:27      PAGE-0046
											              ARM               0102
Addr     Location Object-Code	   RE Isn  Source Statement  [ ********                       ]				    Error
  		  1 2 3 4 5 6 7 8	   ....*....1....*....2....*....3....*....4....*....5....*....6....*....7....*....8
                  		      2153 %%DTY     									   
                  		      2154 %%DAR     1,4								   
                  		      2155 %%ENDD    									   
                  		      2156 %%SYM     userId,0,type=2,cls=6,val=-16,size=10				   
                  		      2157 %%DTY     									   
                  		      2158 %%DAR     1,10								   
                  		      2159 %%ENDD    									   
                  		      2160 %%SYM     send,0,type=2,cls=6,val=-20496,size=20480				   
                  		      2161 %%DTY     									   
                  		      2162 %%DAR     1,20480								   
                  		      2163 %%ENDD    									   
                  		      2164 %%SCOPE   init								   
         00000570 0060A0E1	      2165 		   mov	     r6,r0						   
                  		      2166 %%SCOPE   on,cmd								   
         00000574 0170A0E1	      2167 		   mov	     r7,r1						   
                  		      2168 %%SCOPE   on,sub								   
         00000578 02A0A0E1	      2169 		   mov	     r10,r2						   
                  		      2170 %%SCOPE   on,data								   
         0000057C 03C0A0E1	      2171 		   mov	     r12,r3						   
                  		      2172 ;Expr(206): 20480								   
                  		      2173 %%LINE    000208								   
                  		      2174 ;Expr(208): btmemset(loc,0,sizeof(loc)) 					   
                  		      2175 %%SCOPE   init,data,cmd,sub,sendData						   
00000004 00000580 0420A0E3	      2176 		   mov	     r2,#4						   
00000000 00000584 0010A0E3	      2177 		   mov	     r1,#0						   
0000500C 00000588 050A8DE20C0080E2    2178 		   adrl	     r0,sp,AS@MakeDataToSend-4				   
                  		      2179 %%CALL									   
00000000 00000590 000000EB	    E 2180 		   bl	     @btmemset						   
                  		      2181 %%LINE    000209								   
                  		      2182 ;Expr(209): btmemset(userId,0,sizeof(userId))   				   
0000000A 00000594 0A20A0E3	      2183 		   mov	     r2,#10						   
00000000 00000598 0010A0E3	      2184 		   mov	     r1,#0						   
00005000 0000059C 050A8DE2	      2185 		   adrl	     r0,sp,AS@MakeDataToSend-16				   
                  		      2186 %%CALL									   
00000000 000005A0 000000EB	    E 2187 		   bl	     @btmemset						   
                  		      2188 %%LINE    000211								   
                  		      2189 ;Expr(211): MasterFind("location",loc)  					   
0000500C 000005A4 051A8DE20C1081E2    2190 		   adrl	     r1,sp,AS@MakeDataToSend-4				   
0000085C 000005AC A8029FE5	      2191 		   ldr	     r0,S_S32						   
                  		      2192 %%CALL									   
00000000 000005B0 000000EB	    E 2193 		   bl	     @MasterFind					   
                  		      2194 %%LINE    000212								   
                  		      2195 ;Expr(212): MasterFind("user",userId)    - if -				   
00005000 000005B4 051A8DE2	      2196 		   adrl	     r1,sp,AS@MakeDataToSend-16				   
00000858 000005B8 98029FE5	      2197 		   ldr	     r0,S_S33						   
                  		      2198 %%CALL									   
00000000 000005BC 000000EB	    E 2199 		   bl	     @MasterFind					   
                  		      2200 %%LINE    000214								   
                  		      2201 ;Expr(214): !btmemcmp(data,"",1)	   					   
00000001 000005C0 0120A0E3	      2202 		   mov	     r2,#1						   
00000854 000005C4 88129FE5	      2203 		   ldr	     r1,S_S34						   
         000005C8 0A00A0E1	      2204 		   mov	     r0,r10						   
                  		      2205 %%CALL									   
00000000 000005CC 000000EB	    E 2206 		   bl	     @btmemcmp						   


   CROSS ASSEMBLER     V10-L41   (8901)  XASS-V                                           Thu 03-Jan-2019 13:05:27      PAGE-0047
											              ARM               0102
Addr     Location Object-Code	   RE Isn  Source Statement  [ ********                       ]				    Error
  		  1 2 3 4 5 6 7 8	   ....*....1....*....2....*....3....*....4....*....5....*....6....*....7....*....8
00000000 000005D0 000050E3	      2207 		   cmp	     r0,#0						   
00000600 000005D4 0900001A	      2208 		   bne.x     L86						   
                  		      2209 ; - then -									   
                  		      2210 %%LINE    000215								   
                  		      2211 ;Expr(215): btsprintf(send,"%s$%s$",cmd,userId) 				   
                  		      2212 %%SCOPE   init,cmd,sendData							   
00005000 000005D8 051A8DE2	      2213 		   adrl	     r1,sp,AS@MakeDataToSend-16				   
         000005DC 02002DE9	      2214 		   stmfd     sp!,{r1}						   
         000005E0 40002DE9	      2215 		   stmfd     sp!,{r6}						   
                  		      2216 %%SCOPE   off,cmd								   
00000860 000005E4 74029FE5	      2217 		   ldr	     r0,S_S35						   
         000005E8 01002DE9	      2218 		   stmfd     sp!,{r0}						   
0000000C 000005EC 0C208DE2	      2219 		   adrl	     r2,sp,AS@MakeDataToSend-20496+12			   
         000005F0 04002DE9	      2220 		   stmfd     sp!,{r2}						   
                  		      2221 %%CALL									   
00000000 000005F4 000000EB	    E 2222 		   bl	     @btsprintf						   
00000010 000005F8 10D08DE2	      2223 		   add	     sp,#16						   
0000063C 000005FC 0E0000EA	      2224 		   b.x	     L89						   
                  		      2225 L86:										   
                  		      2226 ; - else -									   
                  		      2227 %%LINE    000217								   
                  		      2228 ;Expr(217): btsprintf(send,"%s%s$%s$%s$%s$",cmd,sub,loc,userId,data)	   	   
                  		      2229 %%SCOPE   init,data,cmd,sub,sendData						   
         00000600 00042DE9	      2230 		   stmfd     sp!,{r10}						   
                  		      2231 %%SCOPE   off,data								   
00005004 00000604 050A8DE2040080E2    2232 		   adrl	     r0,sp,AS@MakeDataToSend-16+4			   
         0000060C 01002DE9	      2233 		   stmfd     sp!,{r0}						   
00005014 00000610 051A8DE2141081E2    2234 		   adrl	     r1,sp,AS@MakeDataToSend-4+8			   
         00000618 02002DE9	      2235 		   stmfd     sp!,{r1}						   
         0000061C 80002DE9	      2236 		   stmfd     sp!,{r7}						   
                  		      2237 %%SCOPE   off,sub								   
         00000620 40002DE9	      2238 		   stmfd     sp!,{r6}						   
                  		      2239 %%SCOPE   off,cmd								   
00000864 00000624 38229FE5	      2240 		   ldr	     r2,S_S36						   
         00000628 04002DE9	      2241 		   stmfd     sp!,{r2}						   
00000018 0000062C 18008DE2	      2242 		   adrl	     r0,sp,AS@MakeDataToSend-20496+24			   
         00000630 01002DE9	      2243 		   stmfd     sp!,{r0}						   
                  		      2244 %%CALL									   
00000000 00000634 000000EB	    E 2245 		   bl	     @btsprintf						   
0000001C 00000638 1CD08DE2	      2246 		   add	     sp,#28						   
                  		      2247 L89:										   
                  		      2248 ; RET									   
                  		      2249 %%LINE    000219								   
                  		      2250 ;Expr(219): btmemcpy(sendData,send,btstrlen(send))	    - return -		   
                  		      2251 %%SCOPE   init,sendData							   
00000000 0000063C 00008DE2	      2252 		   adrl	     r0,sp,AS@MakeDataToSend-20496			   
                  		      2253 %%CALL									   
00000000 00000640 000000EB	    E 2254 		   bl	     @btstrlen						   
         00000644 0020A0E1	      2255 		   mov	     r2,r0						   
00000000 00000648 00108DE2	      2256 		   adrl	     r1,sp,AS@MakeDataToSend-20496			   
         0000064C 0C00A0E1	      2257 		   mov	     r0,r12						   
                  		      2258 %%SCOPE   off,sendData							   
                  		      2259 %%CALL									   
00000000 00000650 000000EB	    E 2260 		   bl	     @btmemcpy						   


   CROSS ASSEMBLER     V10-L41   (8901)  XASS-V                                           Thu 03-Jan-2019 13:05:27      PAGE-0048
											              ARM               0102
Addr     Location Object-Code	   RE Isn  Source Statement  [ ********                       ]				    Error
  		  1 2 3 4 5 6 7 8	   ....*....1....*....2....*....3....*....4....*....5....*....6....*....7....*....8
                  		      2261 %%LINE    000221								   
                  		      2262 ;Expr(221): 0   								   
00000000 00000654 0000A0E3	      2263 		   mov	     r0,#0						   
                  		      2264 %%LINE    000222								   
                  		      2265 %%SCOPE init									   
                  		      2266 %%EF	     									   
00000010 00000658 10D08DE2	      2267 		   add	     sp,#16						   
00005000 0000065C 05DA8DE2	      2268 		   add	     sp,#20480						   
                  		      2269 %%RESTORE	   R6								   
                  		      2270 %%RESTORE	   R7								   
                  		      2271 %%RESTORE	   R10								   
                  		      2272 %%RESTORE	   R12								   
                  		      2273 %%RETURN									   
         00000660 C09CBDE8	      2274 		   ldmfd     sp!,{r6,r7,r10,r11,r12,pc}				   
         00000664 		      2275 		   bnd	     4							   
                  		      2276 %%FEND    									   
                  		      2277 ;	   loc -> offset -4	    array					   
                  		      2278 ;	   data -> regid  11	    pointer					   
                  		      2279 ;	   cmd -> regid  7  pointer						   
                  		      2280 ;	   sub -> regid  8  pointer						   
                  		      2281 ;	   sendData -> regid  13    pointer					   
                  		      2282 ;	   userId -> offset -16	    array					   
                  		      2283 ;	   send -> offset -20496    array					   
                  		      2284 %%LINE    000225								   
                  		      2285 %%FUNC    CheckDataByType,3,cls=2,type=5,ftype=1				   
                  		      2286 %%RVALUE  kind=direct,register=R0,atype=2					   
                  		      2287 @CheckDataByType: ;entry							   
         00000664 C05C2DE9	      2288 		   stmfd     sp!,{r6,r7,r10,r11,r12,lr}				   
         00000668 0DB0A0E1	      2289 		   mov	     r11,sp						   
                  		      2290 %%SAVE  R6,kind=direct,base=R11,offset=0,atype=6				   
                  		      2291 %%SAVE  R7,kind=direct,base=R11,offset=4,atype=6				   
                  		      2292 %%SAVE  R10,kind=direct,base=R11,offset=8,atype=6				   
                  		      2293 %%SAVE  R12,kind=direct,base=R11,offset=16,atype=6				   
0000001C 0000066C 1CD04DE2	      2294 		   sub	     sp,#28						   
0000001C          		      2295 AS@CheckDataByType	   set	   28		   ; stack frame total size	   
                  		      2296 %%DFP     3									   
                  		      2297 %%SYM     loc,14,type=2,cls=1,reg=R6,val=0,size=4				   
                  		      2298 %%DTY     									   
                  		      2299 %%DPT     									   
                  		      2300 %%ENDD    									   
                  		      2301 %%SYM     val,14,type=2,cls=1,reg=R7,val=0,size=4				   
                  		      2302 %%DTY     									   
                  		      2303 %%DPT     									   
                  		      2304 %%ENDD    									   
                  		      2305 %%SYM     type,14,type=5,cls=1,reg=R10,val=0,size=4				   
                  		      2306 %%ENDD    									   
                  		      2307 %%BF	     									   
                  		      2308 %%SYM     cmp1,0,type=2,cls=6,val=-28,size=10				   
                  		      2309 %%DTY     									   
                  		      2310 %%DAR     1,10								   
                  		      2311 %%ENDD    									   
                  		      2312 %%SYM     cmp2,0,type=2,cls=6,val=-16,size=10				   
                  		      2313 %%DTY     									   
                  		      2314 %%DAR     1,10								   


   CROSS ASSEMBLER     V10-L41   (8901)  XASS-V                                           Thu 03-Jan-2019 13:05:27      PAGE-0049
											              ARM               0102
Addr     Location Object-Code	   RE Isn  Source Statement  [ ********                       ]				    Error
  		  1 2 3 4 5 6 7 8	   ....*....1....*....2....*....3....*....4....*....5....*....6....*....7....*....8
                  		      2315 %%ENDD    									   
                  		      2316 %%SYM     size,0,type=5,cls=6,val=-4,size=4					   
                  		      2317 %%SCOPE   init								   
         00000670 0060A0E1	      2318 		   mov	     r6,r0						   
                  		      2319 %%SCOPE   on,loc								   
         00000674 0170A0E1	      2320 		   mov	     r7,r1						   
                  		      2321 %%SCOPE   on,val								   
         00000678 02A0A0E1	      2322 		   mov	     r10,r2						   
                  		      2323 %%SCOPE   on,type								   
00000000 0000067C 00C08DE2	      2324 		   adrl	     r12,sp,AS@CheckDataByType-28			   
                  		      2325 ;Expr(226): 10								   
                  		      2326 %%LINE    000229								   
                  		      2327 ;Expr(229): btmemset(cmp1,0,sizeof(cmp1))	   				   
                  		      2328 %%SCOPE   init,type,loc,val							   
0000000A 00000680 0A20A0E3	      2329 		   mov	     r2,#10						   
00000000 00000684 0010A0E3	      2330 		   mov	     r1,#0						   
         00000688 0C00A0E1	      2331 		   mov	     r0,r12						   
                  		      2332 %%CALL									   
00000000 0000068C 000000EB	    E 2333 		   bl	     @btmemset						   
                  		      2334 %%LINE    000230								   
                  		      2335 ;Expr(230): btmemset(cmp2,0,sizeof(cmp2))	   				   
0000000A 00000690 0A20A0E3	      2336 		   mov	     r2,#10						   
00000000 00000694 0010A0E3	      2337 		   mov	     r1,#0						   
0000000C 00000698 0C008DE2	      2338 		   adrl	     r0,sp,AS@CheckDataByType-16			   
                  		      2339 %%CALL									   
00000000 0000069C 000000EB	    E 2340 		   bl	     @btmemset						   
                  		      2341 %%LINE    000232								   
                  		      2342 ;Expr(232): type	   							   
         000006A0 0A00A0E1	      2343 		   mov	     r0,r10						   
00000001 000006A4 010040E2	      2344 		   sub	     r0,#1						   
00000004 000006A8 040050E3	      2345 		   cmp	     r0,#4						   
00000790 000006AC 3700008A	      2346 		   bhi.x     L105						   
         000006B0 8000A0E1	      2347 		   mov	     r0,r0,lsl #1					   
         000006B4 F0009FE1	      2348 		   ldrsh     r0,[pc,r0]						   
         000006B8 00F18FE0	      2349 		   add	     pc,pc,r0,lsl #2					   
                  		      2350 L00126:									   
         000006BC 0200		      2351 		   dw	     (L94-L00126-4)>2					   
         000006BE 0A00		      2352 		   dw	     (L96-L00126-4)>2					   
         000006C0 1200		      2353 		   dw	     (L98-L00126-4)>2					   
         000006C2 1F00		      2354 		   dw	     (L100-L00126-4)>2					   
         000006C4 2700		      2355 		   dw	     (L102-L00126-4)>2					   
         000006C6 		      2356 		   bnd	     4							   
                  		      2357 L94:										   
                  		      2358 ; - case - 									   
                  		      2359 %%LINE    000236								   
                  		      2360 ;Expr(236): btsprintf(cmp1,"LOS")	   					   
                  		      2361 %%SCOPE   init,loc,val							   
0000086C 000006C8 9C119FE5	      2362 		   ldr	     r1,S_S37						   
         000006CC 02002DE9	      2363 		   stmfd     sp!,{r1}						   
         000006D0 00102DE9	      2364 		   stmfd     sp!,{r12}						   
                  		      2365 %%CALL									   
00000000 000006D4 000000EB	    E 2366 		   bl	     @btsprintf						   
                  		      2367 %%LINE    000237								   
                  		      2368 ;Expr(237): btsprintf(cmp2,"LOR")	   					   


   CROSS ASSEMBLER     V10-L41   (8901)  XASS-V                                           Thu 03-Jan-2019 13:05:27      PAGE-0050
											              ARM               0102
Addr     Location Object-Code	   RE Isn  Source Statement  [ ********                       ]				    Error
  		  1 2 3 4 5 6 7 8	   ....*....1....*....2....*....3....*....4....*....5....*....6....*....7....*....8
00000008 000006D8 08D08DE2	      2369 		   add	     sp,#8						   
00000868 000006DC 84019FE5	      2370 		   ldr	     r0,S_S38						   
         000006E0 01002DE9	      2371 		   stmfd     sp!,{r0}						   
                  		      2372 %%LINE    000239								   
00000778 000006E4 230000EA	      2373 		   b.x	     L123						   
                  		      2374 L96:										   
                  		      2375 ; - case - 									   
                  		      2376 %%LINE    000241								   
                  		      2377 ;Expr(241): btsprintf(cmp1,"POS")	   					   
                  		      2378 %%SCOPE   init,loc,val							   
00000874 000006E8 84119FE5	      2379 		   ldr	     r1,S_S39						   
         000006EC 02002DE9	      2380 		   stmfd     sp!,{r1}						   
         000006F0 00102DE9	      2381 		   stmfd     sp!,{r12}						   
                  		      2382 %%CALL									   
00000000 000006F4 000000EB	    E 2383 		   bl	     @btsprintf						   
                  		      2384 %%LINE    000242								   
                  		      2385 ;Expr(242): btsprintf(cmp2,"POR")	   					   
00000008 000006F8 08D08DE2	      2386 		   add	     sp,#8						   
00000870 000006FC 6C019FE5	      2387 		   ldr	     r0,S_S40						   
         00000700 01002DE9	      2388 		   stmfd     sp!,{r0}						   
                  		      2389 %%LINE    000244								   
00000778 00000704 1B0000EA	      2390 		   b.x	     L123						   
                  		      2391 L98:										   
                  		      2392 ; - case - 									   
                  		      2393 %%LINE    000246								   
                  		      2394 ;Expr(246): btsprintf(cmp1,"VB")	   					   
                  		      2395 %%SCOPE   init,loc,val							   
0000087C 00000708 6C119FE5	      2396 		   ldr	     r1,S_S41						   
         0000070C 02002DE9	      2397 		   stmfd     sp!,{r1}						   
         00000710 00102DE9	      2398 		   stmfd     sp!,{r12}						   
                  		      2399 %%CALL									   
00000000 00000714 000000EB	    E 2400 		   bl	     @btsprintf						   
                  		      2401 %%LINE    000247								   
                  		      2402 ;Expr(247): btsprintf(cmp2,"VC")	   					   
00000878 00000718 58019FE5	      2403 		   ldr	     r0,S_S42						   
         0000071C 01002DE9	      2404 		   stmfd     sp!,{r0}						   
00000018 00000720 18108DE2	      2405 		   adrl	     r1,sp,AS@CheckDataByType-16+12			   
         00000724 02002DE9	      2406 		   stmfd     sp!,{r1}						   
                  		      2407 %%CALL									   
00000000 00000728 000000EB	    E 2408 		   bl	     @btsprintf						   
                  		      2409 %%LINE    000248								   
                  		      2410 ;Expr(248): size=2	    - break -						   
00000002 0000072C 0200A0E3	      2411 		   mov	     r0,#2						   
00000028 00000730 28008DE5	      2412 		   str	     r0,[sp,#AS@CheckDataByType-4+16]			   
                  		      2413 %%LINE    000249								   
00000010 00000734 10D08DE2	      2414 		   add	     sp,#16						   
00000790 00000738 140000EA	      2415 		   b.x	     L105						   
                  		      2416 L100:									   
                  		      2417 ; - case - 									   
                  		      2418 %%LINE    000251								   
                  		      2419 ;Expr(251): btsprintf(cmp1,"TOS")	   					   
                  		      2420 %%SCOPE   init,loc,val							   
00000884 0000073C 40119FE5	      2421 		   ldr	     r1,S_S43						   
         00000740 02002DE9	      2422 		   stmfd     sp!,{r1}						   


   CROSS ASSEMBLER     V10-L41   (8901)  XASS-V                                           Thu 03-Jan-2019 13:05:27      PAGE-0051
											              ARM               0102
Addr     Location Object-Code	   RE Isn  Source Statement  [ ********                       ]				    Error
  		  1 2 3 4 5 6 7 8	   ....*....1....*....2....*....3....*....4....*....5....*....6....*....7....*....8
         00000744 00102DE9	      2423 		   stmfd     sp!,{r12}						   
                  		      2424 %%CALL									   
00000000 00000748 000000EB	    E 2425 		   bl	     @btsprintf						   
                  		      2426 %%LINE    000252								   
                  		      2427 ;Expr(252): btsprintf(cmp2,"TOR")	   					   
00000008 0000074C 08D08DE2	      2428 		   add	     sp,#8						   
00000880 00000750 28019FE5	      2429 		   ldr	     r0,S_S44						   
         00000754 01002DE9	      2430 		   stmfd     sp!,{r0}						   
                  		      2431 %%LINE    000254								   
00000778 00000758 060000EA	      2432 		   b.x	     L123						   
                  		      2433 L102:									   
                  		      2434 ; - case - 									   
                  		      2435 %%LINE    000256								   
                  		      2436 ;Expr(256): btsprintf(cmp1,"SOS")	   					   
                  		      2437 %%SCOPE   init,loc,val							   
0000088C 0000075C 28119FE5	      2438 		   ldr	     r1,S_S45						   
         00000760 02002DE9	      2439 		   stmfd     sp!,{r1}						   
         00000764 00102DE9	      2440 		   stmfd     sp!,{r12}						   
                  		      2441 %%CALL									   
00000000 00000768 000000EB	    E 2442 		   bl	     @btsprintf						   
                  		      2443 %%LINE    000257								   
                  		      2444 ;Expr(257): btsprintf(cmp2,"SOR")	   					   
00000008 0000076C 08D08DE2	      2445 		   add	     sp,#8						   
00000888 00000770 10019FE5	      2446 		   ldr	     r0,S_S46						   
         00000774 01002DE9	      2447 		   stmfd     sp!,{r0}						   
                  		      2448 L123:									   
                  		      2449 ;winch object								   
                  		      2450 %%SCOPE   init,loc,val							   
00000010 00000778 10108DE2	      2451 		   adrl	     r1,sp,AS@CheckDataByType-16+4			   
         0000077C 02002DE9	      2452 		   stmfd     sp!,{r1}						   
                  		      2453 %%CALL									   
00000000 00000780 000000EB	    E 2454 		   bl	     @btsprintf						   
                  		      2455 ;Expr(258): size=3	    - break -						   
00000003 00000784 0300A0E3	      2456 		   mov	     r0,#3						   
00000020 00000788 20008DE5	      2457 		   str	     r0,[sp,#AS@CheckDataByType-4+8]			   
00000008 0000078C 08D08DE2	      2458 		   add	     sp,#8						   
                  		      2459 L105:									   
                  		      2460 ; - if -									   
                  		      2461 %%LINE    000262								   
                  		      2462 ;Expr(262): !btmemcmp((char*)loc,"OS1",3)	   				   
                  		      2463 %%SCOPE   init,loc,val							   
00000003 00000790 0320A0E3	      2464 		   mov	     r2,#3						   
00000890 00000794 F4109FE5	      2465 		   ldr	     r1,S_S47						   
         00000798 0600A0E1	      2466 		   mov	     r0,r6						   
                  		      2467 %%CALL									   
00000000 0000079C 000000EB	    E 2468 		   bl	     @btmemcmp						   
00000000 000007A0 000050E3	      2469 		   cmp	     r0,#0						   
000007C4 000007A4 0600001A	      2470 		   bne.x     L112						   
                  		      2471 ; - then - - if -								   
                  		      2472 %%LINE    000264								   
                  		      2473 ;Expr(264): btmemcmp((char*)val,cmp1,size)	   				   
                  		      2474 %%SCOPE   init,val								   
00000018 000007A8 18209DE5	      2475 		   ldr	     r2,[sp,#AS@CheckDataByType-4]			   
         000007AC 0C10A0E1	      2476 		   mov	     r1,r12						   


   CROSS ASSEMBLER     V10-L41   (8901)  XASS-V                                           Thu 03-Jan-2019 13:05:27      PAGE-0052
											              ARM               0102
Addr     Location Object-Code	   RE Isn  Source Statement  [ ********                       ]				    Error
  		  1 2 3 4 5 6 7 8	   ....*....1....*....2....*....3....*....4....*....5....*....6....*....7....*....8
         000007B0 0700A0E1	      2477 		   mov	     r0,r7						   
                  		      2478 %%SCOPE   off,val								   
                  		      2479 %%CALL									   
00000000 000007B4 000000EB	    E 2480 		   bl	     @btmemcmp						   
00000000 000007B8 000050E3	      2481 		   cmp	     r0,#0						   
000007FC 000007BC 0E00000A	      2482 		   beq.x     L120						   
000007F4 000007C0 0B0000EA	      2483 		   b.x	     L124						   
                  		      2484 L112:									   
                  		      2485 ; - else - - if -								   
                  		      2486 %%LINE    000269								   
                  		      2487 ;Expr(269): !btmemcmp((char*)loc,"OR1",3)	   				   
                  		      2488 %%SCOPE   init,loc,val							   
00000003 000007C4 0320A0E3	      2489 		   mov	     r2,#3						   
00000894 000007C8 C4109FE5	      2490 		   ldr	     r1,S_S48						   
         000007CC 0600A0E1	      2491 		   mov	     r0,r6						   
                  		      2492 %%SCOPE   off,loc								   
                  		      2493 %%CALL									   
00000000 000007D0 000000EB	    E 2494 		   bl	     @btmemcmp						   
00000000 000007D4 000050E3	      2495 		   cmp	     r0,#0						   
000007FC 000007D8 0700001A	      2496 		   bne.x     L120						   
                  		      2497 ; - then - - if -								   
                  		      2498 %%LINE    000271								   
                  		      2499 ;Expr(271): btmemcmp((char*)val,cmp2,size)	   				   
                  		      2500 %%SCOPE   init,val								   
00000018 000007DC 18209DE5	      2501 		   ldr	     r2,[sp,#AS@CheckDataByType-4]			   
0000000C 000007E0 0C108DE2	      2502 		   adrl	     r1,sp,AS@CheckDataByType-16			   
         000007E4 0700A0E1	      2503 		   mov	     r0,r7						   
                  		      2504 %%SCOPE   off,val								   
                  		      2505 %%CALL									   
00000000 000007E8 000000EB	    E 2506 		   bl	     @btmemcmp						   
00000000 000007EC 000050E3	      2507 		   cmp	     r0,#0						   
000007FC 000007F0 0100000A	      2508 		   beq.x     L120						   
                  		      2509 L124:									   
                  		      2510 ;winch object								   
                  		      2511 ;Expr(273): - 1 								   
                  		      2512 %%SCOPE   init								   
00000000 000007F4 0000E0E3	      2513 		   mvn	     r0,#0						   
00000800 000007F8 000000EA	      2514 		   b.x	     L122						   
                  		      2515 L120:									   
                  		      2516 ; - endif - - return -							   
                  		      2517 %%LINE    000277								   
                  		      2518 ;Expr(277): 0   								   
                  		      2519 %%SCOPE   init								   
00000000 000007FC 0000A0E3	      2520 		   mov	     r0,#0						   
                  		      2521 L122:									   
                  		      2522 ; RET									   
                  		      2523 %%LINE    000278								   
                  		      2524 %%SCOPE init									   
                  		      2525 %%EF	     									   
0000001C 00000800 1CD08DE2	      2526 		   add	     sp,#28						   
                  		      2527 %%RESTORE	   R6								   
                  		      2528 %%RESTORE	   R7								   
                  		      2529 %%RESTORE	   R10								   
                  		      2530 %%RESTORE	   R12								   


   CROSS ASSEMBLER     V10-L41   (8901)  XASS-V                                           Thu 03-Jan-2019 13:05:27      PAGE-0053
											              ARM               0102
Addr     Location Object-Code	   RE Isn  Source Statement  [ ********                       ]				    Error
  		  1 2 3 4 5 6 7 8	   ....*....1....*....2....*....3....*....4....*....5....*....6....*....7....*....8
                  		      2531 %%RETURN									   
         00000804 C09CBDE8	      2532 		   ldmfd     sp!,{r6,r7,r10,r11,r12,pc}				   
         00000808 		      2533 		   bnd	     4							   
                  		      2534 %%FEND    									   
                  		      2535 ;	   type -> regid  11	    int						   
                  		      2536 ;	   size -> offset -4	    int						   
                  		      2537 ;	   loc -> regid  7  pointer						   
                  		      2538 ;	   val -> regid  8  pointer						   
                  		      2539 ;	   cmp2 -> offset -16	    array					   
                  		      2540 ;	   cmp1 -> offset -28	    array					   
                  		      2541 %%EFILE   									   
                  		      2542 ; DATA-LIST before block							   
         00000808 		      2543 	   bnd	   4								   
         00000808 1C000000	   R  2544 S_S3:   dd	   S3								   
         0000080C 0F000000	   R  2545 S_S2:   dd	   S2								   
         00000810 00000000	   R  2546 S_S1:   dd	   S1								   
         00000814 60000000	   R  2547 S_S11:  dd	   S11								   
         00000818 2E000000	   R  2548 S_S4:   dd	   S4								   
         0000081C 6F000000	   R  2549 S_S12:  dd	   S12								   
         00000820 7A000000	   R  2550 S_S14:  dd	   S14								   
         00000824 7B000000	   R  2551 S_S15:  dd	   S15								   
         00000828 7E000000	   R  2552 S_S16:  dd	   S16								   
         0000082C 89000000	   R  2553 S_S18:  dd	   S18								   
         00000830 B80B0000	      2554 S_3000: dd	   3000								   
         00000834 8A000000	   R  2555 S_S19:  dd	   S19								   
         00000838 94000000	   R  2556 S_S21:  dd	   S21								   
         0000083C 8B000000	   R  2557 S_S20:  dd	   S20								   
         00000840 A9000000	   R  2558 S_S22:  dd	   S22								   
         00000844 D1000000	   R  2559 S_S25:  dd	   S25								   
         00000848 C0000000	   R  2560 S_S24:  dd	   S24								   
         0000084C 10010000	   R  2561 S_S30:  dd	   S30								   
         00000850 11010000	   R  2562 S_S31:  dd	   S31								   
         00000854 28010000	   R  2563 S_S34:  dd	   S34								   
         00000858 23010000	   R  2564 S_S33:  dd	   S33								   
         0000085C 1A010000	   R  2565 S_S32:  dd	   S32								   
         00000860 29010000	   R  2566 S_S35:  dd	   S35								   
         00000864 30010000	   R  2567 S_S36:  dd	   S36								   
         00000868 43010000	   R  2568 S_S38:  dd	   S38								   
         0000086C 3F010000	   R  2569 S_S37:  dd	   S37								   
         00000870 4B010000	   R  2570 S_S40:  dd	   S40								   
         00000874 47010000	   R  2571 S_S39:  dd	   S39								   
         00000878 52010000	   R  2572 S_S42:  dd	   S42								   
         0000087C 4F010000	   R  2573 S_S41:  dd	   S41								   
         00000880 59010000	   R  2574 S_S44:  dd	   S44								   
         00000884 55010000	   R  2575 S_S43:  dd	   S43								   
         00000888 61010000	   R  2576 S_S46:  dd	   S46								   
         0000088C 5D010000	   R  2577 S_S45:  dd	   S45								   
         00000890 65010000	   R  2578 S_S47:  dd	   S47								   
         00000894 69010000	   R  2579 S_S48:  dd	   S48								   
         00000898 		      2580 		   end								   


   CROSS ASSEMBLER     V10-L41   (8901)  XASS-V           PROGRAM INFORMATION             Thu 03-Jan-2019 13:05:27      PAGE-0054
											              ARM               0102


				     +--------------------+
				     | Source Information |
				     +--------------------+

			      Instruction    Comment	    Macro	   Expansion	  Total		 Error

	  Source  Step           766           1814            0                0          2580              0

	  Include Step             0              0            0                0             0              0

	  Total   Step           766           1814            0                0          2580              0







				     +--------------------+
				     | Object Information |
				     +--------------------+

	  Section Name           Type		Top Address	    End Address 	Size

	  I_Common               Comm		00000000            00000170            00000170 (       368) relocatable
	  C_Common               Code		00000000            00000898            00000898 (      2200) relocatable
